ELF Header:
  Magic:   7f 45 4c 46 01 01 01 00 00 00 00 00 00 00 00 00 
  Class:                             ELF32
  Data:                              2's complement, little endian
  Version:                           1 (current)
  OS/ABI:                            UNIX - System V
  ABI Version:                       0
  Type:                              EXEC (Executable file)
  Machine:                           MIPS R3000
  Version:                           0x1
  Entry point address:               0x80100000
  Start of program headers:          52 (bytes into file)
  Start of section headers:          285656 (bytes into file)
  Flags:                             0x70001001, noreorder, o32, mips32r2
  Size of this header:               52 (bytes)
  Size of program headers:           32 (bytes)
  Number of program headers:         2
  Size of section headers:           40 (bytes)
  Number of section headers:         18
  Section header string table index: 17

Section Headers:
  [Nr] Name              Type            Addr     Off    Size   ES Flg Lk Inf Al
  [ 0]                   NULL            00000000 000000 000000 00      0   0  0
  [ 1] .text_init        PROGBITS        80100000 0207d0 000000 00   W  0   0  1
  [ 2] .text_c           PROGBITS        80100000 010000 003b18 00  AX  0   0  4
  [ 3] .rodata           PROGBITS        80103b18 013b18 000540 00  WA  0   0  4
  [ 4] .data             PROGBITS        80120000 020000 0007d0 00  WA  0   0  4
  [ 5] .bss              NOBITS          801207d0 0207d0 00010c 00  WA  0   0  4
  [ 6] .gnu.attributes   GNU_ATTRIBUTES  00000000 0207d0 000010 00      0   0  1
  [ 7] .comment          PROGBITS        00000000 0207e0 000044 01  MS  0   0  1
  [ 8] .debug_line       MIPS_DWARF      00000000 020824 002e76 00      0   0  1
  [ 9] .debug_info       MIPS_DWARF      00000000 02369a 004d35 00      0   0  1
  [10] .debug_abbrev     MIPS_DWARF      00000000 0283cf 00120b 00      0   0  1
  [11] .debug_aranges    MIPS_DWARF      00000000 0295e0 000140 00      0   0  8
  [12] .debug_str        MIPS_DWARF      00000000 029720 01547b 01  MS  0   0  1
  [13] .debug_macro      MIPS_DWARF      00000000 03eb9b 005200 00      0   0  1
  [14] .debug_frame      MIPS_DWARF      00000000 043d9c 000b18 00      0   0  4
  [15] .symtab           SYMTAB          00000000 0448b4 000900 10     16  42  4
  [16] .strtab           STRTAB          00000000 0451b4 00096f 00      0   0  1
  [17] .shstrtab         STRTAB          00000000 045b23 0000b4 00      0   0  1
Key to Flags:
  W (write), A (alloc), X (execute), M (merge), S (strings), I (info),
  L (link order), O (extra OS processing required), G (group), T (TLS),
  C (compressed), x (unknown), o (OS specific), E (exclude),
  p (processor specific)

Program Headers:
  Type           Offset   VirtAddr   PhysAddr   FileSiz MemSiz  Flg Align
  LOAD           0x010000 0x80100000 0x80100000 0x04058 0x04058 RWE 0x10000
  LOAD           0x020000 0x80120000 0x80104058 0x007d0 0x008dc RW  0x10000

 Section to Segment mapping:
  Segment Sections...
   00     .text_c .rodata 
   01     .data .bss 

mips_app.elf:     file format elf32-tradlittlemips
mips_app.elf
architecture: mips:isa32r2, flags 0x00000112:
EXEC_P, HAS_SYMS, D_PAGED
start address 0x80100000

Program Header:
    LOAD off    0x00010000 vaddr 0x80100000 paddr 0x80100000 align 2**16
         filesz 0x00004058 memsz 0x00004058 flags rwx
    LOAD off    0x00020000 vaddr 0x80120000 paddr 0x80104058 align 2**16
         filesz 0x000007d0 memsz 0x000008dc flags rw-
private flags = 70001001: [abi=O32] [mips32r2] [not 32bitmode] [noreorder]

Sections:
Idx Name            Size      VMA       LMA       File off  Algn  Flags
  0 .text_init      00000000  80100000  80100000  000207d0  2**0  CONTENTS
  1 .text_c         00003b18  80100000  80100000  00010000  2**2  CONTENTS, ALLOC, LOAD, READONLY, CODE
  2 .rodata         00000540  80103b18  80103b18  00013b18  2**2  CONTENTS, ALLOC, LOAD, DATA
  3 .data           000007d0  80120000  80104058  00020000  2**2  CONTENTS, ALLOC, LOAD, DATA
  4 .bss            0000010c  801207d0  80104828  000207d0  2**2  ALLOC
  5 .gnu.attributes 00000010  00000000  00000000  000207d0  2**0  CONTENTS, READONLY
  6 .comment        00000044  00000000  00000000  000207e0  2**0  CONTENTS, READONLY
  7 .debug_line     00002e76  00000000  00000000  00020824  2**0  CONTENTS, READONLY, DEBUGGING
  8 .debug_info     00004d35  00000000  00000000  0002369a  2**0  CONTENTS, READONLY, DEBUGGING
  9 .debug_abbrev   0000120b  00000000  00000000  000283cf  2**0  CONTENTS, READONLY, DEBUGGING
 10 .debug_aranges  00000140  00000000  00000000  000295e0  2**3  CONTENTS, READONLY, DEBUGGING
 11 .debug_str      0001547b  00000000  00000000  00029720  2**0  CONTENTS, READONLY, DEBUGGING
 12 .debug_macro    00005200  00000000  00000000  0003eb9b  2**0  CONTENTS, READONLY, DEBUGGING
 13 .debug_frame    00000b18  00000000  00000000  00043d9c  2**2  CONTENTS, READONLY, DEBUGGING
SYMBOL TABLE:
80100000 l    d  .text_init	00000000 .text_init
80100000 l    d  .text_c	00000000 .text_c
80103b18 l    d  .rodata	00000000 .rodata
80120000 l    d  .data	00000000 .data
801207d0 l    d  .bss	00000000 .bss
00000000 l    d  .gnu.attributes	00000000 .gnu.attributes
00000000 l    d  .comment	00000000 .comment
00000000 l    d  .debug_line	00000000 .debug_line
00000000 l    d  .debug_info	00000000 .debug_info
00000000 l    d  .debug_abbrev	00000000 .debug_abbrev
00000000 l    d  .debug_aranges	00000000 .debug_aranges
00000000 l    d  .debug_str	00000000 .debug_str
00000000 l    d  .debug_macro	00000000 .debug_macro
00000000 l    d  .debug_frame	00000000 .debug_frame
00000000 l    df *ABS*	00000000 CMakeFiles/mips_app.elf.dir/D_/MCU_WorkSpace/IntegrationTest/mcu4in_IT/function_cpus/MIPS/src/asm/start_app.S.obj
80100180 l       .text_c	00000000 __general_exception_loop
801001ac l       .text_c	00000000 init_resources
801001f8 l       .text_c	00000000 all_done
80100204 l       .text_c	00000000 copy_data
80100244 l       .text_c	00000000 zero_bss
8010022c l       .text_c	00000000 next_ram_dword
80100274 l       .text_c	00000000 copy_c2_ram_done
80100264 l       .text_c	00000000 next_bss_word
801002dc l       .text_c	00000000 done_wr
00000000 l    df *ABS*	00000000 D:\MCU_WorkSpace\IntegrationTest\mcu4in_IT\function_cpus\application\main.c
801207d4 l     O .bss	00000004 target_uart
00000000 l    df *ABS*	00000000 D:\MCU_WorkSpace\IntegrationTest\mcu4in_IT\function_cpus\common\src\context.c
00000000 l    df *ABS*	00000000 D:\MCU_WorkSpace\IntegrationTest\mcu4in_IT\function_cpus\common\src\delay.c
00000000 l    df *ABS*	00000000 D:\MCU_WorkSpace\IntegrationTest\mcu4in_IT\function_cpus\common\src\driver_common.c
00000000 l    df *ABS*	00000000 D:\MCU_WorkSpace\IntegrationTest\mcu4in_IT\function_cpus\common\src\irq.c
801207d8 l     O .bss	00000004 k
00000000 l    df *ABS*	00000000 D:\MCU_WorkSpace\IntegrationTest\mcu4in_IT\function_cpus\common\src\uart_stdout.c
80103e10 l     O .rodata	00000010 cmap
8010248c l     F .text_c	000000a0 printn
00000000 l    df *ABS*	00000000 D:\MCU_WorkSpace\IntegrationTest\mcu4in_IT\function_cpus\common\src\plic\plic.c
801207dc l     O .bss	00000100 SystemExtInterruptHandlers
801028b8 l     F .text_c	0000003c system_default_interrupt_handler
801028f4 l     F .text_c	00000070 Interrupt_Init
00000000 l    df *ABS*	00000000 D:\MCU_WorkSpace\IntegrationTest\mcu4in_IT\function_cpus\Drivers\source\hm_uart_hjj.c
80103ec0 l     O .rodata	0000009c uart_cfg_8M
80103f5c l     O .rodata	0000009c uart_cfg_20M
80100584 g     F .text_c	000001b4 TestSaveByFunc
801208dc g       .gnu.attributes	00000000 __HeapBase
80100000 g       *ABS*	00000000 _boot_rom
80100ca4 g     F .text_c	000002c8 TestCPUVary
80101490 g     F .text_c	00000168 TestUARTMultipleIRQ
80102c58 g     F .text_c	00000098 PLIC_Register_IRQ
80103464 g     F .text_c	00000068 UART_BlockGetChar
80120000 g     O .data	000004b0 varyMsg
801002ec g     F .text_c	0000015c TestLabel
80103414 g     F .text_c	00000050 UART_PollGetChar
801020e8 g     F .text_c	00000128 IRQ_Init
801035ac g     F .text_c	00000038 UART_EnableInt
801033dc g     F .text_c	00000038 UART_PollFifoPutChar
801287c0 g       *ABS*	00000000 _gp
80103350 g     F .text_c	0000008c UART_BlockPutChars
80102ea4 g     F .text_c	0000037c UART_Init
80101ee8 g     F .text_c	00000078 user_handle_helper
8010168c g     F .text_c	00000054 SRAM_Init
801023b4 g     F .text_c	0000008c uart_stdout_init
801009d0 g     F .text_c	000002d4 TestSRAM
801208dc g       .gnu.attributes	00000000 __HeapLimit
80120000 g       *ABS*	00000000 _fdata_ram
80100198 g     F .text_c	00000068 __cpu_init
80103b18 g       *ABS*	00000000 rodata_start
80103300 g     F .text_c	00000050 UART_BlockPutChar
80103520 g     F .text_c	0000008c UART_WriteBytes
80102af8 g     F .text_c	000000f0 PLIC_Register_IRQ_Hard
80102be8 g     F .text_c	00000070 PLIC_Register_IRQ_Soft
80101a98 g     F .text_c	000000b4 pml_stack_save
801029bc g     F .text_c	00000058 Interrupt_Get_ExtIRQ
80100f6c g     F .text_c	00000370 TestOneCPUErr
801038e0 g     F .text_c	00000070 UART_RS485ReceiverCmd
80101634 g     F .text_c	00000058 pml_stack_restore
801036f4 g     F .text_c	00000038 UART_TfifoTrigger
80103ff8 g     O .rodata	00000060 __Labels
80102008 g     F .text_c	00000038 user3_handler
80100000 g       *ABS*	00000000 _ftext_rom
801208dc g       .bss	00000000 _freemem
80101be8 g     F .text_c	00000080 TellSche
80103784 g     F .text_c	0000015c UART_RS485Config
801208dc g       .gnu.attributes	00000000 end
80103ff8 g       .rodata	00000000 __label_start__
801018c8 g     F .text_c	00000088 pml_save_inc
80101370 g     F .text_c	00000120 TestUARTSimpleIRQ
80101f60 g     F .text_c	00000038 user0_handler
80100000 g       *ABS*	00000000 _etext_rom
801035e4 g     F .text_c	00000038 UART_DisableInt
80101838 g     F .text_c	00000090 pml_loc_malloc
80102cf0 g     F .text_c	00000128 PLIC_Init_Hard
80101e90 g     F .text_c	00000058 save_context_handler
80101b4c g     F .text_c	0000009c event_delay
80100738 g     F .text_c	00000298 TestLocMalloc
80104058 g       .rodata	00000000 __label_end__
80102e18 g     F .text_c	00000034 PLIC_Init_Soft
80102e4c g     F .text_c	00000058 PLIC_Init
801016e0 g     F .text_c	000000d8 GetLabelAddr
801015f8 g     F .text_c	0000003c main
80101950 g     F .text_c	00000088 pml_save_dec
80100000 g       *ABS*	00000000 _ftext_c_rom
801036bc g     F .text_c	00000038 UART_RfifoTrigger
80102440 g     F .text_c	0000004c uart_putc
801020b0  w    F .text_c	00000038 user6_handler
80103ac8 g     F .text_c	00000050 UART_RS485SendData
801208dc g       .gnu.attributes	00000000 __end__
8010366c g     F .text_c	00000050 UART_GetIntMask
80101a38 g     F .text_c	00000060 pml_loc_restore
80103220 g     F .text_c	000000a8 UART_ConfigBaud
80101c68 g     F .text_c	000000c0 stack_restore_helper
801207d0 g     O .bss	00000001 uart_buffer_received
8010252c g     F .text_c	0000038c uart_printf
801034cc g     F .text_c	00000054 UART_WriteByte
80101dc0 g     F .text_c	00000088 Resource_Init
80102210 g     F .text_c	000001a4 _mips_general_exception
8012c000 g       .bss	00000000 __StackTop
801012dc g     F .text_c	00000094 user5_handler
80102040 g     F .text_c	00000038 user4_handler
8010361c g     F .text_c	00000050 UART_GetIntState
80101fd0 g     F .text_c	00000038 user2_handler
80104058 g       *ABS*	00000000 rodata_end
80103950 g     F .text_c	00000124 UART_RS485Send
80101d28 g     F .text_c	00000098 Delay
8010027c g     F .text_c	00000070 init_cp0
8012c000 g       *ABS*	00000000 __stack
80100200 g     F .text_c	0000007c copy_c2_ram
80102a14 g     F .text_c	000000e4 plic_handler
801032c8 g     F .text_c	00000038 UART_PollPutChar
801019d8 g     F .text_c	00000060 pml_loc_save
801208dc g       .bss	00000000 _end
80100000 g     F .text_c	00000024 __reset_vector
80103b18 g       *ABS*	00000000 _etext_c_rom
8012c000 g       *ABS*	00000000 __StackLimit
80100448 g     F .text_c	0000013c TestSaveByCtrl
80101f98 g     F .text_c	00000038 user1_handler
801017b8 g     F .text_c	00000080 pml_com_malloc
80103a74 g     F .text_c	00000054 UART_RS485SendSlvAddr
801207d0 g       *ABS*	00000000 _edata_ram
80104058 g       .data	00000000 _fdata_rom
8010372c g     F .text_c	00000058 UART_SetDmaMode
801204b0 g     O .data	00000320 incMsg
80101e48 g     F .text_c	00000048 Driver_Init
80102964 g     F .text_c	00000058 Interrupt_Register_ExtIRQ
801207d0 g       .data	00000000 _fbss



Disassembly of section .text_c:

80100000 <__reset_vector>:
__reset_vector():
D:\MCU_WorkSpace\IntegrationTest\mcu4in_IT\function_cpus\MIPS\src\asm/start_app.S:42
	# and jumps to it. This does 2 things; First it will jump to a KSEG1 address which is a
	# mirror of the KSEG0 BEV address but cacheable. Second it will do a mode switch to
	# enable micromips mode.

LEAF(__reset_vector)
	la a2,__cpu_init
80100000:	3c068010 	lui	a2,0x8010
80100004:	24c60198 	addiu	a2,a2,408
D:\MCU_WorkSpace\IntegrationTest\mcu4in_IT\function_cpus\MIPS\src\asm/start_app.S:43
	mtc0	$0, C0_COUNT  	    # Clear cp0 Count (Used to measure boot time.)
80100008:	40804800 	mtc0	zero,c0_count
D:\MCU_WorkSpace\IntegrationTest\mcu4in_IT\function_cpus\MIPS\src\asm/start_app.S:44
	jr a2
8010000c:	00c00008 	jr	a2
80100010:	00000000 	nop
	...

80100180 <__general_exception_loop>:
__general_exception_loop():
D:\MCU_WorkSpace\IntegrationTest\mcu4in_IT\function_cpus\MIPS\src\asm/start_app.S:64
	.org 0x180
	.set push
	.set nomicromips                        # This code assumes exceptions are handled in MIPS32 mode
.weak _mips_general_exception
__general_exception_loop:
	LA	k1, _mips_general_exception
80100180:	3c1b8010 	lui	k1,0x8010
80100184:	277b2210 	addiu	k1,k1,8720
D:\MCU_WorkSpace\IntegrationTest\mcu4in_IT\function_cpus\MIPS\src\asm/start_app.S:65
	beqz    k1, __general_exception_loop
80100188:	1360fffd 	beqz	k1,80100180 <__general_exception_loop>
8010018c:	00000000 	nop
D:\MCU_WorkSpace\IntegrationTest\mcu4in_IT\function_cpus\MIPS\src\asm/start_app.S:66
	jr	k1
80100190:	03600008 	jr	k1
80100194:	00000000 	nop

80100198 <__cpu_init>:
__cpu_init():
D:\MCU_WorkSpace\IntegrationTest\mcu4in_IT\function_cpus\MIPS\src\asm/start_app.S:121
LEAF(__cpu_init)

	# Verify the code is here due to a reset and not NMI. If this is an NMI then trigger
	# a debugger breakpoint using a sdbp instruction.

    mfc0    s1, C0_STATUS              	# Read CP0 Status
80100198:	40116000 	mfc0	s1,c0_status
D:\MCU_WorkSpace\IntegrationTest\mcu4in_IT\function_cpus\MIPS\src\asm/start_app.S:122
    ext	    s1, s1, 19, 1				# extract NMI
8010019c:	7e3104c0 	ext	s1,s1,0x13,0x1
D:\MCU_WorkSpace\IntegrationTest\mcu4in_IT\function_cpus\MIPS\src\asm/start_app.S:123
    beqz    s1, init_resources 		 	# Branch if this is NOT an NMI exception.
801001a0:	12200002 	beqz	s1,801001ac <init_resources>
801001a4:	00000000 	nop
D:\MCU_WorkSpace\IntegrationTest\mcu4in_IT\function_cpus\MIPS\src\asm/start_app.S:124
    sdbbp                              	# Failed assertion: NMI.
801001a8:	7000003f 	sdbbp

801001ac <init_resources>:
D:\MCU_WorkSpace\IntegrationTest\mcu4in_IT\function_cpus\MIPS\src\asm/start_app.S:131
init_resources:  						# initializes resources for "cpu".

	# Set the global pointer register address to _gp and the stack pointer register to
	# STACK_BASE_ADDR these values are assigned in the linker file

    la      gp, _gp						# All share globals.
801001ac:	3c1c8013 	lui	gp,0x8013
801001b0:	279c87c0 	addiu	gp,gp,-30784
D:\MCU_WorkSpace\IntegrationTest\mcu4in_IT\function_cpus\MIPS\src\asm/start_app.S:133
	#li      sp, STACK_BASE_ADDR		# LI RD, IMM32  <--> RD = IMM32
	la      sp, __stack                 # LA RD, LABEL  <--> RD = ADDRESS(LABEL)
801001b4:	3c1d8013 	lui	sp,0x8013
801001b8:	27bdc000 	addiu	sp,sp,-16384
D:\MCU_WorkSpace\IntegrationTest\mcu4in_IT\function_cpus\MIPS\src\asm/start_app.S:137

    # Initialize CP0 registers

    la a2,     init_cp0    				# Init CP0 Status, Count, Compare, Watch*, and Cause.
801001bc:	3c068010 	lui	a2,0x8010
801001c0:	24c6027c 	addiu	a2,a2,636
D:\MCU_WorkSpace\IntegrationTest\mcu4in_IT\function_cpus\MIPS\src\asm/start_app.S:138
    jalr a2
801001c4:	00c0f809 	jalr	a2
801001c8:	00000000 	nop
D:\MCU_WorkSpace\IntegrationTest\mcu4in_IT\function_cpus\MIPS\src\asm/start_app.S:142

	# Copy "C" code (main.c) and data to RAM and zero bss

    la 		a2, copy_c2_ram
801001cc:	3c068010 	lui	a2,0x8010
801001d0:	24c60200 	addiu	a2,a2,512
D:\MCU_WorkSpace\IntegrationTest\mcu4in_IT\function_cpus\MIPS\src\asm/start_app.S:143
    jalr 	a2
801001d4:	00c0f809 	jalr	a2
801001d8:	00000000 	nop
D:\MCU_WorkSpace\IntegrationTest\mcu4in_IT\function_cpus\MIPS\src\asm/start_app.S:150
    # Prepare for eret to main (sp and gp set in set_gpr_boot_values).
	/* Jump to C code */
	# la t0, Resource_Init # FIXME wait hardware solve it
    # jalr t0

    la      ra, all_done				# If main returns then go to all_done:.
801001dc:	3c1f8010 	lui	ra,0x8010
801001e0:	27ff01f8 	addiu	ra,ra,504
D:\MCU_WorkSpace\IntegrationTest\mcu4in_IT\function_cpus\MIPS\src\asm/start_app.S:151
    la      v0, Resource_Init					# load the address of the main function
801001e4:	3c028010 	lui	v0,0x8010
801001e8:	24421dc0 	addiu	v0,v0,7616
D:\MCU_WorkSpace\IntegrationTest\mcu4in_IT\function_cpus\MIPS\src\asm/start_app.S:152
    mtc0    v0, C0_ERRPC				# Write ErrorEPC with the address of main
801001ec:	4082f000 	mtc0	v0,c0_errorepc
D:\MCU_WorkSpace\IntegrationTest\mcu4in_IT\function_cpus\MIPS\src\asm/start_app.S:153
    ehb									# clear hazards (makes sure write to ErrorEPC has completed)
801001f0:	000000c0 	ehb
D:\MCU_WorkSpace\IntegrationTest\mcu4in_IT\function_cpus\MIPS\src\asm/start_app.S:156

    # Return from exception will now execute code in main
    eret   								# Exit reset exception handler and start execution of main().
801001f4:	42000018 	eret

801001f8 <all_done>:
D:\MCU_WorkSpace\IntegrationTest\mcu4in_IT\function_cpus\MIPS\src\asm/start_app.S:162

/**************************************************************************************
**************************************************************************************/
all_done:
    # If main returns it will return to this point.  Just spin here.
    b       all_done
801001f8:	1000ffff 	b	801001f8 <all_done>
801001fc:	00000000 	nop

80100200 <copy_c2_ram>:
copy_c2_ram():
D:\MCU_WorkSpace\IntegrationTest\mcu4in_IT\function_cpus\MIPS\src\asm/copy_c2_ram.s:51

/**************************************************************************************
**************************************************************************************/
LEAF(copy_c2_ram)

	li      all_ones, 0xffffffff
80100200:	2411ffff 	li	s1,-1

80100204 <copy_data>:
D:\MCU_WorkSpace\IntegrationTest\mcu4in_IT\function_cpus\MIPS\src\asm/copy_c2_ram.s:75
    bne     end_addr, destination_addr, next_ram_word
*/

copy_data:
// now copy the data
    LA      source_addr, _fdata_rom
80100204:	3c058010 	lui	a1,0x8010
80100208:	24a54058 	addiu	a1,a1,16472
D:\MCU_WorkSpace\IntegrationTest\mcu4in_IT\function_cpus\MIPS\src\asm/copy_c2_ram.s:76
    LA      destination_addr,  _fdata_ram
8010020c:	3c068012 	lui	a2,0x8012
80100210:	24c60000 	addiu	a2,a2,0
D:\MCU_WorkSpace\IntegrationTest\mcu4in_IT\function_cpus\MIPS\src\asm/copy_c2_ram.s:77
    LA      end_addr, _edata_ram
80100214:	3c078012 	lui	a3,0x8012
80100218:	24e707d0 	addiu	a3,a3,2000
D:\MCU_WorkSpace\IntegrationTest\mcu4in_IT\function_cpus\MIPS\src\asm/copy_c2_ram.s:81
    #if !defined(EVA) && !defined(MPU)  // NOTE EVA mode assumed to be uncached
    	// Switch address to uncached (kseg1) so copy will go directly
    	// to memory
    	ins     destination_addr, all_ones, 29, 1
8010021c:	7e26ef44 	ins	a2,s1,0x1d,0x1
D:\MCU_WorkSpace\IntegrationTest\mcu4in_IT\function_cpus\MIPS\src\asm/copy_c2_ram.s:82
    	ins     end_addr, all_ones, 29, 1
80100220:	7e27ef44 	ins	a3,s1,0x1d,0x1
D:\MCU_WorkSpace\IntegrationTest\mcu4in_IT\function_cpus\MIPS\src\asm/copy_c2_ram.s:84
    #endif
    beq     destination_addr, end_addr, zero_bss  // if no data skip ahead
80100224:	10c70007 	beq	a2,a3,80100244 <zero_bss>
80100228:	00000000 	nop

8010022c <next_ram_dword>:
D:\MCU_WorkSpace\IntegrationTest\mcu4in_IT\function_cpus\MIPS\src\asm/copy_c2_ram.s:86
next_ram_dword:
    lw      data, 0(source_addr)
8010022c:	8ca40000 	lw	a0,0(a1)
D:\MCU_WorkSpace\IntegrationTest\mcu4in_IT\function_cpus\MIPS\src\asm/copy_c2_ram.s:87
    sw      data, 0(destination_addr)
80100230:	acc40000 	sw	a0,0(a2)
D:\MCU_WorkSpace\IntegrationTest\mcu4in_IT\function_cpus\MIPS\src\asm/copy_c2_ram.s:88
    addiu   destination_addr, 4
80100234:	24c60004 	addiu	a2,a2,4
D:\MCU_WorkSpace\IntegrationTest\mcu4in_IT\function_cpus\MIPS\src\asm/copy_c2_ram.s:89
    addiu   source_addr, 4
80100238:	24a50004 	addiu	a1,a1,4
D:\MCU_WorkSpace\IntegrationTest\mcu4in_IT\function_cpus\MIPS\src\asm/copy_c2_ram.s:90
    bne     end_addr, destination_addr, next_ram_dword
8010023c:	14e6fffb 	bne	a3,a2,8010022c <next_ram_dword>
80100240:	00000000 	nop

80100244 <zero_bss>:
D:\MCU_WorkSpace\IntegrationTest\mcu4in_IT\function_cpus\MIPS\src\asm/copy_c2_ram.s:93

zero_bss:
    LA      destination_addr, _fbss
80100244:	3c068012 	lui	a2,0x8012
80100248:	24c607d0 	addiu	a2,a2,2000
D:\MCU_WorkSpace\IntegrationTest\mcu4in_IT\function_cpus\MIPS\src\asm/copy_c2_ram.s:94
    LA      end_addr, _end
8010024c:	3c078012 	lui	a3,0x8012
80100250:	24e708dc 	addiu	a3,a3,2268
D:\MCU_WorkSpace\IntegrationTest\mcu4in_IT\function_cpus\MIPS\src\asm/copy_c2_ram.s:98
    #ifndef EVA  // NOTE EVA mode assumed to be uncached
    	// Switch address to uncached (kseg1) so copy will go directly
    	// to memory
	    ins     destination_addr, all_ones, 29, 1
80100254:	7e26ef44 	ins	a2,s1,0x1d,0x1
D:\MCU_WorkSpace\IntegrationTest\mcu4in_IT\function_cpus\MIPS\src\asm/copy_c2_ram.s:99
	    ins     end_addr, all_ones, 29, 1
80100258:	7e27ef44 	ins	a3,s1,0x1d,0x1
D:\MCU_WorkSpace\IntegrationTest\mcu4in_IT\function_cpus\MIPS\src\asm/copy_c2_ram.s:101
    #endif
    beq     destination_addr, end_addr, copy_c2_ram_done
8010025c:	10c70005 	beq	a2,a3,80100274 <copy_c2_ram_done>
80100260:	00000000 	nop

80100264 <next_bss_word>:
D:\MCU_WorkSpace\IntegrationTest\mcu4in_IT\function_cpus\MIPS\src\asm/copy_c2_ram.s:103
next_bss_word:
    sw      zero, 0(destination_addr)
80100264:	acc00000 	sw	zero,0(a2)
D:\MCU_WorkSpace\IntegrationTest\mcu4in_IT\function_cpus\MIPS\src\asm/copy_c2_ram.s:104
    addiu   destination_addr, 4
80100268:	24c60004 	addiu	a2,a2,4
D:\MCU_WorkSpace\IntegrationTest\mcu4in_IT\function_cpus\MIPS\src\asm/copy_c2_ram.s:105
    bne     destination_addr, end_addr, next_bss_word
8010026c:	14c7fffd 	bne	a2,a3,80100264 <next_bss_word>
80100270:	00000000 	nop

80100274 <copy_c2_ram_done>:
D:\MCU_WorkSpace\IntegrationTest\mcu4in_IT\function_cpus\MIPS\src\asm/copy_c2_ram.s:108

copy_c2_ram_done:
    jalr	zero,      ra
80100274:	03e00009 	jalr	zero,ra
80100278:	00000000 	nop

8010027c <init_cp0>:
init_cp0():
D:\MCU_WorkSpace\IntegrationTest\mcu4in_IT\function_cpus\MIPS\src\asm/init_cp0.s:45
/**************************************************************************************
**************************************************************************************/
LEAF(init_cp0)

    // Initialize Status
	li	    a1, 0x00400004		// (M_StatusERL | M_StatusBEV), close timer-interrupt
8010027c:	3c050040 	lui	a1,0x40
80100280:	34a50004 	ori	a1,a1,0x4
D:\MCU_WorkSpace\IntegrationTest\mcu4in_IT\function_cpus\MIPS\src\asm/init_cp0.s:46
	mtc0	a1, C0_STATUS		// write C0_Status
80100284:	40856000 	mtc0	a1,c0_status
D:\MCU_WorkSpace\IntegrationTest\mcu4in_IT\function_cpus\MIPS\src\asm/init_cp0.s:49

	// Initialize Watch registers if implemented.
	mfc0	a0, C0_CONFIG1		// read C0_Config1
80100288:	40048001 	mfc0	a0,c0_config1
D:\MCU_WorkSpace\IntegrationTest\mcu4in_IT\function_cpus\MIPS\src\asm/init_cp0.s:50
	ext	    a1, a0, 3, 1		// extract bit 3 WR (Watch registers implemented)
8010028c:	7c8500c0 	ext	a1,a0,0x3,0x1
D:\MCU_WorkSpace\IntegrationTest\mcu4in_IT\function_cpus\MIPS\src\asm/init_cp0.s:51
	beq 	a1, zero, done_wr
80100290:	10a00012 	beqz	a1,801002dc <done_wr>
80100294:	00000000 	nop
D:\MCU_WorkSpace\IntegrationTest\mcu4in_IT\function_cpus\MIPS\src\asm/init_cp0.s:53

	li    	a1, 0x7				// (M_WatchHiI | M_WatchHiR | M_WatchHiW)
80100298:	24050007 	li	a1,7
D:\MCU_WorkSpace\IntegrationTest\mcu4in_IT\function_cpus\MIPS\src\asm/init_cp0.s:56

	// Clear Watch Status bits and disable watch exceptions
	mtc0	a1, C0_WATCHHI		// write C0_WatchHi0
8010029c:	40859800 	mtc0	a1,c0_watchhi
D:\MCU_WorkSpace\IntegrationTest\mcu4in_IT\function_cpus\MIPS\src\asm/init_cp0.s:57
	mtc0	zero, C0_WATCHLO	// write C0_WatchLo0
801002a0:	40809000 	mtc0	zero,c0_watchlo
D:\MCU_WorkSpace\IntegrationTest\mcu4in_IT\function_cpus\MIPS\src\asm/init_cp0.s:59

	mtc0	a1, C0_WATCHHI, 1	// write C0_WatchHi1
801002a4:	40859801 	mtc0	a1,c0_watchhi,1
D:\MCU_WorkSpace\IntegrationTest\mcu4in_IT\function_cpus\MIPS\src\asm/init_cp0.s:60
	mtc0	zero, C0_WATCHLO, 1	// write C0_WatchLo1
801002a8:	40809001 	mtc0	zero,c0_watchlo,1
D:\MCU_WorkSpace\IntegrationTest\mcu4in_IT\function_cpus\MIPS\src\asm/init_cp0.s:62

	mtc0	a1, C0_WATCHHI, 2	// write C0_WatchHi2
801002ac:	40859802 	mtc0	a1,c0_watchhi,2
D:\MCU_WorkSpace\IntegrationTest\mcu4in_IT\function_cpus\MIPS\src\asm/init_cp0.s:63
	mtc0	zero, C0_WATCHLO, 2	// write C0_WatchLo2
801002b0:	40809002 	mtc0	zero,c0_watchlo,2
D:\MCU_WorkSpace\IntegrationTest\mcu4in_IT\function_cpus\MIPS\src\asm/init_cp0.s:65

	mtc0	a1, C0_WATCHHI, 3	// write C0_WatchHi3
801002b4:	40859803 	mtc0	a1,c0_watchhi,3
D:\MCU_WorkSpace\IntegrationTest\mcu4in_IT\function_cpus\MIPS\src\asm/init_cp0.s:66
	mtc0	zero, C0_WATCHLO, 3	// write C0_WatchLo3
801002b8:	40809003 	mtc0	zero,c0_watchlo,3
D:\MCU_WorkSpace\IntegrationTest\mcu4in_IT\function_cpus\MIPS\src\asm/init_cp0.s:68

	mtc0	a1, C0_WATCHHI, 4	// write C0_WatchHi4
801002bc:	40859804 	mtc0	a1,c0_watchhi,4
D:\MCU_WorkSpace\IntegrationTest\mcu4in_IT\function_cpus\MIPS\src\asm/init_cp0.s:69
	mtc0	zero, C0_WATCHLO, 4	// write C0_WatchLo4
801002c0:	40809004 	mtc0	zero,c0_watchlo,4
D:\MCU_WorkSpace\IntegrationTest\mcu4in_IT\function_cpus\MIPS\src\asm/init_cp0.s:71

	mtc0	a1, C0_WATCHHI, 5	// write C0_WatchHi5
801002c4:	40859805 	mtc0	a1,c0_watchhi,5
D:\MCU_WorkSpace\IntegrationTest\mcu4in_IT\function_cpus\MIPS\src\asm/init_cp0.s:72
	mtc0	zero, C0_WATCHLO, 5	// write C0_WatchLo5
801002c8:	40809005 	mtc0	zero,c0_watchlo,5
D:\MCU_WorkSpace\IntegrationTest\mcu4in_IT\function_cpus\MIPS\src\asm/init_cp0.s:74

	mtc0	a1, C0_WATCHHI, 6	// write C0_WatchHi6
801002cc:	40859806 	mtc0	a1,c0_watchhi,6
D:\MCU_WorkSpace\IntegrationTest\mcu4in_IT\function_cpus\MIPS\src\asm/init_cp0.s:75
	mtc0	zero, C0_WATCHLO, 6	// write C0_WatchLo6
801002d0:	40809006 	mtc0	zero,c0_watchlo,6
D:\MCU_WorkSpace\IntegrationTest\mcu4in_IT\function_cpus\MIPS\src\asm/init_cp0.s:77

	mtc0	a1, C0_WATCHHI, 7	// write C0_WatchHi7
801002d4:	40859807 	mtc0	a1,c0_watchhi,7
D:\MCU_WorkSpace\IntegrationTest\mcu4in_IT\function_cpus\MIPS\src\asm/init_cp0.s:78
	mtc0	zero, C0_WATCHLO, 7	// write C0_WatchLo7
801002d8:	40809007 	mtc0	zero,c0_watchlo,7

801002dc <done_wr>:
D:\MCU_WorkSpace\IntegrationTest\mcu4in_IT\function_cpus\MIPS\src\asm/init_cp0.s:83

done_wr:

	// Clear WP bit to avoid watch exception upon user code entry, IV, and software interrupts.
	mtc0	zero, C0_CAUSE		// write C0_Cause: Init AFTER init of CP0 WatchHi/Lo registers.
801002dc:	40806800 	mtc0	zero,c0_cause
D:\MCU_WorkSpace\IntegrationTest\mcu4in_IT\function_cpus\MIPS\src\asm/init_cp0.s:86

	// Clear timer interrupt. (Count was cleared at the reset vector to allow timing boot.)
	mtc0	zero, C0_COMPARE	// write C0_Compare
801002e0:	40805800 	mtc0	zero,c0_compare
D:\MCU_WorkSpace\IntegrationTest\mcu4in_IT\function_cpus\MIPS\src\asm/init_cp0.s:88

    jr      ra
801002e4:	03e00008 	jr	ra
801002e8:	00000000 	nop

801002ec <TestLabel>:
TestLabel():
D:\MCU_WorkSpace\IntegrationTest\mcu4in_IT\function_cpus\application/main.c:35
  kIncAccCnt = 2, 
  kIncRectify = 3, 
  kIncMax 
} IncStrategyTypes;

void TestLabel() {
801002ec:	27bdffd0 	addiu	sp,sp,-48
801002f0:	afbf002c 	sw	ra,44(sp)
801002f4:	afbe0028 	sw	s8,40(sp)
801002f8:	03a0f025 	move	s8,sp
D:\MCU_WorkSpace\IntegrationTest\mcu4in_IT\function_cpus\application/main.c:36
  int i = 0;
801002fc:	afc00010 	sw	zero,16(s8)
D:\MCU_WorkSpace\IntegrationTest\mcu4in_IT\function_cpus\application/main.c:37
  int t = 0;
80100300:	afc00014 	sw	zero,20(s8)
D:\MCU_WorkSpace\IntegrationTest\mcu4in_IT\function_cpus\application/main.c:38
  i = 1;
80100304:	24020001 	li	v0,1
80100308:	afc20010 	sw	v0,16(s8)
D:\MCU_WorkSpace\IntegrationTest\mcu4in_IT\function_cpus\application/main.c:40

  EVENT_END_WITH_LABEL(0);
8010030c:	afc00018 	sw	zero,24(s8)
80100310:	03a01025 	move	v0,sp
80100314:	afc20018 	sw	v0,24(s8)
80100318:	3c028012 	lui	v0,0x8012
8010031c:	3442e000 	ori	v0,v0,0xe000
80100320:	8fc30018 	lw	v1,24(s8)
80100324:	ac430000 	sw	v1,0(v0)
80100328:	3c024100 	lui	v0,0x4100
8010032c:	34420034 	ori	v0,v0,0x34
80100330:	ac400000 	sw	zero,0(v0)
80100334:	3c024100 	lui	v0,0x4100
80100338:	3442001c 	ori	v0,v0,0x1c
8010033c:	24030001 	li	v1,1
80100340:	ac430000 	sw	v1,0(v0)
80100344:	0c0406d3 	jal	80101b4c <event_delay>
80100348:	00000000 	nop
D:\MCU_WorkSpace\IntegrationTest\mcu4in_IT\function_cpus\application/main.c:41
  i = 2;
8010034c:	24020002 	li	v0,2
80100350:	afc20010 	sw	v0,16(s8)
D:\MCU_WorkSpace\IntegrationTest\mcu4in_IT\function_cpus\application/main.c:42
  uart_printf("\r\n%d",i);
80100354:	8fc50010 	lw	a1,16(s8)
80100358:	3c028010 	lui	v0,0x8010
8010035c:	24443b18 	addiu	a0,v0,15128
80100360:	0c04094b 	jal	8010252c <uart_printf>
80100364:	00000000 	nop
D:\MCU_WorkSpace\IntegrationTest\mcu4in_IT\function_cpus\application/main.c:44

  EVENT_END_WITH_LABEL(1);
80100368:	afc0001c 	sw	zero,28(s8)
8010036c:	03a01025 	move	v0,sp
80100370:	afc2001c 	sw	v0,28(s8)
80100374:	3c028012 	lui	v0,0x8012
80100378:	3442e000 	ori	v0,v0,0xe000
8010037c:	8fc3001c 	lw	v1,28(s8)
80100380:	ac430000 	sw	v1,0(v0)
80100384:	3c024100 	lui	v0,0x4100
80100388:	34420034 	ori	v0,v0,0x34
8010038c:	24030001 	li	v1,1
80100390:	ac430000 	sw	v1,0(v0)
80100394:	3c024100 	lui	v0,0x4100
80100398:	3442001c 	ori	v0,v0,0x1c
8010039c:	24030001 	li	v1,1
801003a0:	ac430000 	sw	v1,0(v0)
801003a4:	0c0406d3 	jal	80101b4c <event_delay>
801003a8:	00000000 	nop
D:\MCU_WorkSpace\IntegrationTest\mcu4in_IT\function_cpus\application/main.c:45
  i = i+1;
801003ac:	8fc20010 	lw	v0,16(s8)
801003b0:	24420001 	addiu	v0,v0,1
801003b4:	afc20010 	sw	v0,16(s8)
D:\MCU_WorkSpace\IntegrationTest\mcu4in_IT\function_cpus\application/main.c:46
  uart_printf("%d",i);
801003b8:	8fc50010 	lw	a1,16(s8)
801003bc:	3c028010 	lui	v0,0x8010
801003c0:	24443b20 	addiu	a0,v0,15136
801003c4:	0c04094b 	jal	8010252c <uart_printf>
801003c8:	00000000 	nop
D:\MCU_WorkSpace\IntegrationTest\mcu4in_IT\function_cpus\application/main.c:48

  if (t == 0) {
801003cc:	8fc20014 	lw	v0,20(s8)
801003d0:	1440000f 	bnez	v0,80100410 <TestLabel+0x124>
801003d4:	00000000 	nop
D:\MCU_WorkSpace\IntegrationTest\mcu4in_IT\function_cpus\application/main.c:49
    t = 1;
801003d8:	24020001 	li	v0,1
801003dc:	afc20014 	sw	v0,20(s8)
D:\MCU_WorkSpace\IntegrationTest\mcu4in_IT\function_cpus\application/main.c:50
    unsigned* lad = NULL;
801003e0:	afc00020 	sw	zero,32(s8)
D:\MCU_WorkSpace\IntegrationTest\mcu4in_IT\function_cpus\application/main.c:51
    GetLabelAddr(EVENT_INDEX, &lad);
801003e4:	3c024100 	lui	v0,0x4100
801003e8:	34420034 	ori	v0,v0,0x34
801003ec:	8c420000 	lw	v0,0(v0)
801003f0:	27c30020 	addiu	v1,s8,32
801003f4:	00602825 	move	a1,v1
801003f8:	00402025 	move	a0,v0
801003fc:	0c0405b8 	jal	801016e0 <GetLabelAddr>
80100400:	00000000 	nop
D:\MCU_WorkSpace\IntegrationTest\mcu4in_IT\function_cpus\application/main.c:52
    goto *lad;
80100404:	8fc20020 	lw	v0,32(s8)
80100408:	00400008 	jr	v0
8010040c:	00000000 	nop
D:\MCU_WorkSpace\IntegrationTest\mcu4in_IT\function_cpus\application/main.c:55
  }
  
  i = 5;
80100410:	24020005 	li	v0,5
80100414:	afc20010 	sw	v0,16(s8)
D:\MCU_WorkSpace\IntegrationTest\mcu4in_IT\function_cpus\application/main.c:56
  uart_printf("%d",i);
80100418:	8fc50010 	lw	a1,16(s8)
8010041c:	3c028010 	lui	v0,0x8010
80100420:	24443b20 	addiu	a0,v0,15136
80100424:	0c04094b 	jal	8010252c <uart_printf>
80100428:	00000000 	nop
D:\MCU_WorkSpace\IntegrationTest\mcu4in_IT\function_cpus\application/main.c:59
  // uart_printf("\r\n2345<----- Label Test passed if and only if the print were the same!\r\n");
  // uart_printf("**** chk_pass_cnt = %d, %d, %d  ****\r\n", S0_CHK_PASS_CNT, S1_CHK_PASS_CNT, S2_CHK_PASS_CNT);
}
8010042c:	00000000 	nop
80100430:	03c0e825 	move	sp,s8
80100434:	8fbf002c 	lw	ra,44(sp)
80100438:	8fbe0028 	lw	s8,40(sp)
8010043c:	27bd0030 	addiu	sp,sp,48
80100440:	03e00008 	jr	ra
80100444:	00000000 	nop

80100448 <TestSaveByCtrl>:
TestSaveByCtrl():
D:\MCU_WorkSpace\IntegrationTest\mcu4in_IT\function_cpus\application/main.c:61

void TestSaveByCtrl() {
80100448:	27bdffd8 	addiu	sp,sp,-40
8010044c:	afbf0024 	sw	ra,36(sp)
80100450:	afbe0020 	sw	s8,32(sp)
80100454:	03a0f025 	move	s8,sp
D:\MCU_WorkSpace\IntegrationTest\mcu4in_IT\function_cpus\application/main.c:62
  unsigned int i = 0;
80100458:	afc00010 	sw	zero,16(s8)
D:\MCU_WorkSpace\IntegrationTest\mcu4in_IT\function_cpus\application/main.c:63
  Delay(3);                   // wait sche_cpu control save
8010045c:	24040003 	li	a0,3
80100460:	0c04074a 	jal	80101d28 <Delay>
80100464:	00000000 	nop
D:\MCU_WorkSpace\IntegrationTest\mcu4in_IT\function_cpus\application/main.c:64
  i = i + 3;
80100468:	8fc20010 	lw	v0,16(s8)
8010046c:	24420003 	addiu	v0,v0,3
80100470:	afc20010 	sw	v0,16(s8)
D:\MCU_WorkSpace\IntegrationTest\mcu4in_IT\function_cpus\application/main.c:65
  uart_printf("%u", i);
80100474:	8fc50010 	lw	a1,16(s8)
80100478:	3c028010 	lui	v0,0x8010
8010047c:	24443b24 	addiu	a0,v0,15140
80100480:	0c04094b 	jal	8010252c <uart_printf>
80100484:	00000000 	nop
D:\MCU_WorkSpace\IntegrationTest\mcu4in_IT\function_cpus\application/main.c:66
  EVENT_END_WITH_LABEL(2);
80100488:	afc00014 	sw	zero,20(s8)
8010048c:	03a01025 	move	v0,sp
80100490:	afc20014 	sw	v0,20(s8)
80100494:	3c028012 	lui	v0,0x8012
80100498:	3442e000 	ori	v0,v0,0xe000
8010049c:	8fc30014 	lw	v1,20(s8)
801004a0:	ac430000 	sw	v1,0(v0)
801004a4:	3c024100 	lui	v0,0x4100
801004a8:	34420034 	ori	v0,v0,0x34
801004ac:	24030002 	li	v1,2
801004b0:	ac430000 	sw	v1,0(v0)
801004b4:	3c024100 	lui	v0,0x4100
801004b8:	3442001c 	ori	v0,v0,0x1c
801004bc:	24030001 	li	v1,1
801004c0:	ac430000 	sw	v1,0(v0)
801004c4:	0c0406d3 	jal	80101b4c <event_delay>
801004c8:	00000000 	nop
D:\MCU_WorkSpace\IntegrationTest\mcu4in_IT\function_cpus\application/main.c:68

  Delay(3);
801004cc:	24040003 	li	a0,3
801004d0:	0c04074a 	jal	80101d28 <Delay>
801004d4:	00000000 	nop
D:\MCU_WorkSpace\IntegrationTest\mcu4in_IT\function_cpus\application/main.c:69
  i = i + 3;
801004d8:	8fc20010 	lw	v0,16(s8)
801004dc:	24420003 	addiu	v0,v0,3
801004e0:	afc20010 	sw	v0,16(s8)
D:\MCU_WorkSpace\IntegrationTest\mcu4in_IT\function_cpus\application/main.c:70
  uart_printf("%u", i);
801004e4:	8fc50010 	lw	a1,16(s8)
801004e8:	3c028010 	lui	v0,0x8010
801004ec:	24443b24 	addiu	a0,v0,15140
801004f0:	0c04094b 	jal	8010252c <uart_printf>
801004f4:	00000000 	nop
D:\MCU_WorkSpace\IntegrationTest\mcu4in_IT\function_cpus\application/main.c:71
  EVENT_END_WITH_LABEL(3);
801004f8:	afc00018 	sw	zero,24(s8)
801004fc:	03a01025 	move	v0,sp
80100500:	afc20018 	sw	v0,24(s8)
80100504:	3c028012 	lui	v0,0x8012
80100508:	3442e000 	ori	v0,v0,0xe000
8010050c:	8fc30018 	lw	v1,24(s8)
80100510:	ac430000 	sw	v1,0(v0)
80100514:	3c024100 	lui	v0,0x4100
80100518:	34420034 	ori	v0,v0,0x34
8010051c:	24030003 	li	v1,3
80100520:	ac430000 	sw	v1,0(v0)
80100524:	3c024100 	lui	v0,0x4100
80100528:	3442001c 	ori	v0,v0,0x1c
8010052c:	24030001 	li	v1,1
80100530:	ac430000 	sw	v1,0(v0)
80100534:	0c0406d3 	jal	80101b4c <event_delay>
80100538:	00000000 	nop
D:\MCU_WorkSpace\IntegrationTest\mcu4in_IT\function_cpus\application/main.c:73

  Delay(3);
8010053c:	24040003 	li	a0,3
80100540:	0c04074a 	jal	80101d28 <Delay>
80100544:	00000000 	nop
D:\MCU_WorkSpace\IntegrationTest\mcu4in_IT\function_cpus\application/main.c:74
  i = i + 3;
80100548:	8fc20010 	lw	v0,16(s8)
8010054c:	24420003 	addiu	v0,v0,3
80100550:	afc20010 	sw	v0,16(s8)
D:\MCU_WorkSpace\IntegrationTest\mcu4in_IT\function_cpus\application/main.c:75
  uart_printf("%u", i);
80100554:	8fc50010 	lw	a1,16(s8)
80100558:	3c028010 	lui	v0,0x8010
8010055c:	24443b24 	addiu	a0,v0,15140
80100560:	0c04094b 	jal	8010252c <uart_printf>
80100564:	00000000 	nop
D:\MCU_WorkSpace\IntegrationTest\mcu4in_IT\function_cpus\application/main.c:77
  // uart_printf("\r\nSaveByCtrl Test passed if and only if the save context interrupts were triggered twice!\r\n");
}
80100568:	00000000 	nop
8010056c:	03c0e825 	move	sp,s8
80100570:	8fbf0024 	lw	ra,36(sp)
80100574:	8fbe0020 	lw	s8,32(sp)
80100578:	27bd0028 	addiu	sp,sp,40
8010057c:	03e00008 	jr	ra
80100580:	00000000 	nop

80100584 <TestSaveByFunc>:
TestSaveByFunc():
D:\MCU_WorkSpace\IntegrationTest\mcu4in_IT\function_cpus\application/main.c:79

void TestSaveByFunc() {
80100584:	27bdffd8 	addiu	sp,sp,-40
80100588:	afbf0024 	sw	ra,36(sp)
8010058c:	afbe0020 	sw	s8,32(sp)
80100590:	03a0f025 	move	s8,sp
D:\MCU_WorkSpace\IntegrationTest\mcu4in_IT\function_cpus\application/main.c:80
  unsigned int i = 0;
80100594:	afc00010 	sw	zero,16(s8)
D:\MCU_WorkSpace\IntegrationTest\mcu4in_IT\function_cpus\application/main.c:81
  uart_printf("%u", i);
80100598:	8fc50010 	lw	a1,16(s8)
8010059c:	3c028010 	lui	v0,0x8010
801005a0:	24443b24 	addiu	a0,v0,15140
801005a4:	0c04094b 	jal	8010252c <uart_printf>
801005a8:	00000000 	nop
D:\MCU_WorkSpace\IntegrationTest\mcu4in_IT\function_cpus\application/main.c:83

  SAVE_CONTEXT = 1; // Func CPU save context after event_end
801005ac:	3c024100 	lui	v0,0x4100
801005b0:	34420040 	ori	v0,v0,0x40
801005b4:	24030001 	li	v1,1
801005b8:	ac430000 	sw	v1,0(v0)
D:\MCU_WorkSpace\IntegrationTest\mcu4in_IT\function_cpus\application/main.c:84
  i = i + 3;
801005bc:	8fc20010 	lw	v0,16(s8)
801005c0:	24420003 	addiu	v0,v0,3
801005c4:	afc20010 	sw	v0,16(s8)
D:\MCU_WorkSpace\IntegrationTest\mcu4in_IT\function_cpus\application/main.c:85
  uart_printf("%u", i);
801005c8:	8fc50010 	lw	a1,16(s8)
801005cc:	3c028010 	lui	v0,0x8010
801005d0:	24443b24 	addiu	a0,v0,15140
801005d4:	0c04094b 	jal	8010252c <uart_printf>
801005d8:	00000000 	nop
D:\MCU_WorkSpace\IntegrationTest\mcu4in_IT\function_cpus\application/main.c:86
  EVENT_END_WITH_LABEL(4);
801005dc:	afc00014 	sw	zero,20(s8)
801005e0:	03a01025 	move	v0,sp
801005e4:	afc20014 	sw	v0,20(s8)
801005e8:	3c028012 	lui	v0,0x8012
801005ec:	3442e000 	ori	v0,v0,0xe000
801005f0:	8fc30014 	lw	v1,20(s8)
801005f4:	ac430000 	sw	v1,0(v0)
801005f8:	3c024100 	lui	v0,0x4100
801005fc:	34420034 	ori	v0,v0,0x34
80100600:	24030004 	li	v1,4
80100604:	ac430000 	sw	v1,0(v0)
80100608:	3c024100 	lui	v0,0x4100
8010060c:	3442001c 	ori	v0,v0,0x1c
80100610:	24030001 	li	v1,1
80100614:	ac430000 	sw	v1,0(v0)
80100618:	0c0406d3 	jal	80101b4c <event_delay>
8010061c:	00000000 	nop
D:\MCU_WorkSpace\IntegrationTest\mcu4in_IT\function_cpus\application/main.c:88

  for (i=i+1; i < 17; i++) {
80100620:	8fc20010 	lw	v0,16(s8)
80100624:	24420001 	addiu	v0,v0,1
80100628:	afc20010 	sw	v0,16(s8)
8010062c:	10000036 	b	80100708 <TestSaveByFunc+0x184>
80100630:	00000000 	nop
D:\MCU_WorkSpace\IntegrationTest\mcu4in_IT\function_cpus\application/main.c:89
    uart_printf("%u", i);
80100634:	8fc50010 	lw	a1,16(s8)
80100638:	3c028010 	lui	v0,0x8010
8010063c:	24443b24 	addiu	a0,v0,15140
80100640:	0c04094b 	jal	8010252c <uart_printf>
80100644:	00000000 	nop
D:\MCU_WorkSpace\IntegrationTest\mcu4in_IT\function_cpus\application/main.c:90
    if (i % 3 == 0) {
80100648:	8fc40010 	lw	a0,16(s8)
8010064c:	3c02aaaa 	lui	v0,0xaaaa
80100650:	3442aaab 	ori	v0,v0,0xaaab
80100654:	00820019 	multu	a0,v0
80100658:	00001010 	mfhi	v0
8010065c:	00021842 	srl	v1,v0,0x1
80100660:	00601025 	move	v0,v1
80100664:	00021040 	sll	v0,v0,0x1
80100668:	00431021 	addu	v0,v0,v1
8010066c:	00821823 	subu	v1,a0,v0
80100670:	14600005 	bnez	v1,80100688 <TestSaveByFunc+0x104>
80100674:	00000000 	nop
D:\MCU_WorkSpace\IntegrationTest\mcu4in_IT\function_cpus\application/main.c:91
      SAVE_CONTEXT = 1;
80100678:	3c024100 	lui	v0,0x4100
8010067c:	34420040 	ori	v0,v0,0x40
80100680:	24030001 	li	v1,1
80100684:	ac430000 	sw	v1,0(v0)
D:\MCU_WorkSpace\IntegrationTest\mcu4in_IT\function_cpus\application/main.c:93
    }
    if (i % 5 == 0) {
80100688:	8fc40010 	lw	a0,16(s8)
8010068c:	3c02cccc 	lui	v0,0xcccc
80100690:	3442cccd 	ori	v0,v0,0xcccd
80100694:	00820019 	multu	a0,v0
80100698:	00001010 	mfhi	v0
8010069c:	00021882 	srl	v1,v0,0x2
801006a0:	00601025 	move	v0,v1
801006a4:	00021080 	sll	v0,v0,0x2
801006a8:	00431021 	addu	v0,v0,v1
801006ac:	00821823 	subu	v1,a0,v0
801006b0:	14600012 	bnez	v1,801006fc <TestSaveByFunc+0x178>
801006b4:	00000000 	nop
D:\MCU_WorkSpace\IntegrationTest\mcu4in_IT\function_cpus\application/main.c:94
      EVENT_END_WITH_LABEL(5);
801006b8:	afc00018 	sw	zero,24(s8)
801006bc:	03a01025 	move	v0,sp
801006c0:	afc20018 	sw	v0,24(s8)
801006c4:	3c028012 	lui	v0,0x8012
801006c8:	3442e000 	ori	v0,v0,0xe000
801006cc:	8fc30018 	lw	v1,24(s8)
801006d0:	ac430000 	sw	v1,0(v0)
801006d4:	3c024100 	lui	v0,0x4100
801006d8:	34420034 	ori	v0,v0,0x34
801006dc:	24030005 	li	v1,5
801006e0:	ac430000 	sw	v1,0(v0)
801006e4:	3c024100 	lui	v0,0x4100
801006e8:	3442001c 	ori	v0,v0,0x1c
801006ec:	24030001 	li	v1,1
801006f0:	ac430000 	sw	v1,0(v0)
801006f4:	0c0406d3 	jal	80101b4c <event_delay>
801006f8:	00000000 	nop
D:\MCU_WorkSpace\IntegrationTest\mcu4in_IT\function_cpus\application/main.c:88 (discriminator 2)
  for (i=i+1; i < 17; i++) {
801006fc:	8fc20010 	lw	v0,16(s8)
80100700:	24420001 	addiu	v0,v0,1
80100704:	afc20010 	sw	v0,16(s8)
D:\MCU_WorkSpace\IntegrationTest\mcu4in_IT\function_cpus\application/main.c:88 (discriminator 1)
80100708:	8fc20010 	lw	v0,16(s8)
8010070c:	2c420011 	sltiu	v0,v0,17
80100710:	1440ffc8 	bnez	v0,80100634 <TestSaveByFunc+0xb0>
80100714:	00000000 	nop
	...
D:\MCU_WorkSpace\IntegrationTest\mcu4in_IT\function_cpus\application/main.c:98
    }
  }
  // uart_printf("\r\nSaveByFunc Test passed if and only if the save context interrupts were triggered thrice!\r\n");
}
80100720:	03c0e825 	move	sp,s8
80100724:	8fbf0024 	lw	ra,36(sp)
80100728:	8fbe0020 	lw	s8,32(sp)
8010072c:	27bd0028 	addiu	sp,sp,40
80100730:	03e00008 	jr	ra
80100734:	00000000 	nop

80100738 <TestLocMalloc>:
TestLocMalloc():
D:\MCU_WorkSpace\IntegrationTest\mcu4in_IT\function_cpus\application/main.c:100

void TestLocMalloc() {
80100738:	27bdffc8 	addiu	sp,sp,-56
8010073c:	afbf0034 	sw	ra,52(sp)
80100740:	afbe0030 	sw	s8,48(sp)
80100744:	03a0f025 	move	s8,sp
D:\MCU_WorkSpace\IntegrationTest\mcu4in_IT\function_cpus\application/main.c:101
  int* local = (int*)pml_loc_malloc(sizeof(int));
80100748:	24040004 	li	a0,4
8010074c:	0c04060e 	jal	80101838 <pml_loc_malloc>
80100750:	00000000 	nop
80100754:	afc20018 	sw	v0,24(s8)
D:\MCU_WorkSpace\IntegrationTest\mcu4in_IT\function_cpus\application/main.c:102
  *local = 100;
80100758:	8fc20018 	lw	v0,24(s8)
8010075c:	24030064 	li	v1,100
80100760:	ac430000 	sw	v1,0(v0)
D:\MCU_WorkSpace\IntegrationTest\mcu4in_IT\function_cpus\application/main.c:103
  uart_printf("0-*local=%d!\r\n", *local);
80100764:	8fc20018 	lw	v0,24(s8)
80100768:	8c420000 	lw	v0,0(v0)
8010076c:	00402825 	move	a1,v0
80100770:	3c028010 	lui	v0,0x8010
80100774:	24443b28 	addiu	a0,v0,15144
80100778:	0c04094b 	jal	8010252c <uart_printf>
8010077c:	00000000 	nop
D:\MCU_WorkSpace\IntegrationTest\mcu4in_IT\function_cpus\application/main.c:104
  int t = 0;
80100780:	afc0001c 	sw	zero,28(s8)
D:\MCU_WorkSpace\IntegrationTest\mcu4in_IT\function_cpus\application/main.c:106

  EVENT_END_WITH_LABEL(6);
80100784:	afc00020 	sw	zero,32(s8)
80100788:	03a01025 	move	v0,sp
8010078c:	afc20020 	sw	v0,32(s8)
80100790:	3c028012 	lui	v0,0x8012
80100794:	3442e000 	ori	v0,v0,0xe000
80100798:	8fc30020 	lw	v1,32(s8)
8010079c:	ac430000 	sw	v1,0(v0)
801007a0:	3c024100 	lui	v0,0x4100
801007a4:	34420034 	ori	v0,v0,0x34
801007a8:	24030006 	li	v1,6
801007ac:	ac430000 	sw	v1,0(v0)
801007b0:	3c024100 	lui	v0,0x4100
801007b4:	3442001c 	ori	v0,v0,0x1c
801007b8:	24030001 	li	v1,1
801007bc:	ac430000 	sw	v1,0(v0)
801007c0:	0c0406d3 	jal	80101b4c <event_delay>
801007c4:	00000000 	nop
D:\MCU_WorkSpace\IntegrationTest\mcu4in_IT\function_cpus\application/main.c:107
  for (int i = 0; i < 10; i++) {
801007c8:	afc00010 	sw	zero,16(s8)
801007cc:	10000009 	b	801007f4 <TestLocMalloc+0xbc>
801007d0:	00000000 	nop
D:\MCU_WorkSpace\IntegrationTest\mcu4in_IT\function_cpus\application/main.c:108 (discriminator 3)
    *local = *local - 1;
801007d4:	8fc20018 	lw	v0,24(s8)
801007d8:	8c420000 	lw	v0,0(v0)
801007dc:	2443ffff 	addiu	v1,v0,-1
801007e0:	8fc20018 	lw	v0,24(s8)
801007e4:	ac430000 	sw	v1,0(v0)
D:\MCU_WorkSpace\IntegrationTest\mcu4in_IT\function_cpus\application/main.c:107 (discriminator 3)
  for (int i = 0; i < 10; i++) {
801007e8:	8fc20010 	lw	v0,16(s8)
801007ec:	24420001 	addiu	v0,v0,1
801007f0:	afc20010 	sw	v0,16(s8)
D:\MCU_WorkSpace\IntegrationTest\mcu4in_IT\function_cpus\application/main.c:107 (discriminator 1)
801007f4:	8fc20010 	lw	v0,16(s8)
801007f8:	2842000a 	slti	v0,v0,10
801007fc:	1440fff5 	bnez	v0,801007d4 <TestLocMalloc+0x9c>
80100800:	00000000 	nop
D:\MCU_WorkSpace\IntegrationTest\mcu4in_IT\function_cpus\application/main.c:110
  }
  uart_printf("6-*local=%d!\r\n", *local);
80100804:	8fc20018 	lw	v0,24(s8)
80100808:	8c420000 	lw	v0,0(v0)
8010080c:	00402825 	move	a1,v0
80100810:	3c028010 	lui	v0,0x8010
80100814:	24443b38 	addiu	a0,v0,15160
80100818:	0c04094b 	jal	8010252c <uart_printf>
8010081c:	00000000 	nop
D:\MCU_WorkSpace\IntegrationTest\mcu4in_IT\function_cpus\application/main.c:112

  EVENT_END_WITH_LABEL(7);
80100820:	afc00024 	sw	zero,36(s8)
80100824:	03a01025 	move	v0,sp
80100828:	afc20024 	sw	v0,36(s8)
8010082c:	3c028012 	lui	v0,0x8012
80100830:	3442e000 	ori	v0,v0,0xe000
80100834:	8fc30024 	lw	v1,36(s8)
80100838:	ac430000 	sw	v1,0(v0)
8010083c:	3c024100 	lui	v0,0x4100
80100840:	34420034 	ori	v0,v0,0x34
80100844:	24030007 	li	v1,7
80100848:	ac430000 	sw	v1,0(v0)
8010084c:	3c024100 	lui	v0,0x4100
80100850:	3442001c 	ori	v0,v0,0x1c
80100854:	24030001 	li	v1,1
80100858:	ac430000 	sw	v1,0(v0)
8010085c:	0c0406d3 	jal	80101b4c <event_delay>
80100860:	00000000 	nop
D:\MCU_WorkSpace\IntegrationTest\mcu4in_IT\function_cpus\application/main.c:113
  for (int i = 0; i < 10; i++) {
80100864:	afc00014 	sw	zero,20(s8)
80100868:	10000009 	b	80100890 <TestLocMalloc+0x158>
8010086c:	00000000 	nop
D:\MCU_WorkSpace\IntegrationTest\mcu4in_IT\function_cpus\application/main.c:114 (discriminator 3)
    *local = *local - 1;
80100870:	8fc20018 	lw	v0,24(s8)
80100874:	8c420000 	lw	v0,0(v0)
80100878:	2443ffff 	addiu	v1,v0,-1
8010087c:	8fc20018 	lw	v0,24(s8)
80100880:	ac430000 	sw	v1,0(v0)
D:\MCU_WorkSpace\IntegrationTest\mcu4in_IT\function_cpus\application/main.c:113 (discriminator 3)
  for (int i = 0; i < 10; i++) {
80100884:	8fc20014 	lw	v0,20(s8)
80100888:	24420001 	addiu	v0,v0,1
8010088c:	afc20014 	sw	v0,20(s8)
D:\MCU_WorkSpace\IntegrationTest\mcu4in_IT\function_cpus\application/main.c:113 (discriminator 1)
80100890:	8fc20014 	lw	v0,20(s8)
80100894:	2842000a 	slti	v0,v0,10
80100898:	1440fff5 	bnez	v0,80100870 <TestLocMalloc+0x138>
8010089c:	00000000 	nop
D:\MCU_WorkSpace\IntegrationTest\mcu4in_IT\function_cpus\application/main.c:116
  }
  uart_printf("7-*local=%d!\r\n", *local);
801008a0:	8fc20018 	lw	v0,24(s8)
801008a4:	8c420000 	lw	v0,0(v0)
801008a8:	00402825 	move	a1,v0
801008ac:	3c028010 	lui	v0,0x8010
801008b0:	24443b48 	addiu	a0,v0,15176
801008b4:	0c04094b 	jal	8010252c <uart_printf>
801008b8:	00000000 	nop
D:\MCU_WorkSpace\IntegrationTest\mcu4in_IT\function_cpus\application/main.c:118

  if (t == 0) {
801008bc:	8fc2001c 	lw	v0,28(s8)
801008c0:	14400015 	bnez	v0,80100918 <TestLocMalloc+0x1e0>
801008c4:	00000000 	nop
D:\MCU_WorkSpace\IntegrationTest\mcu4in_IT\function_cpus\application/main.c:119
    t = 1;
801008c8:	24020001 	li	v0,1
801008cc:	afc2001c 	sw	v0,28(s8)
D:\MCU_WorkSpace\IntegrationTest\mcu4in_IT\function_cpus\application/main.c:120
    pml_loc_restore();
801008d0:	0c04068e 	jal	80101a38 <pml_loc_restore>
801008d4:	00000000 	nop
D:\MCU_WorkSpace\IntegrationTest\mcu4in_IT\function_cpus\application/main.c:122
    // uart_printf("7-restored!\r\n");
    RESTORE_FINISH = 0x1;
801008d8:	3c024100 	lui	v0,0x4100
801008dc:	34420018 	ori	v0,v0,0x18
801008e0:	24030001 	li	v1,1
801008e4:	ac430000 	sw	v1,0(v0)
D:\MCU_WorkSpace\IntegrationTest\mcu4in_IT\function_cpus\application/main.c:124
    // uart_printf("7-restore finished!\r\n");
    unsigned* lad = NULL;
801008e8:	afc00028 	sw	zero,40(s8)
D:\MCU_WorkSpace\IntegrationTest\mcu4in_IT\function_cpus\application/main.c:125
    GetLabelAddr(LAST_PASS_EVENT_INDEX, &lad);
801008ec:	3c024100 	lui	v0,0x4100
801008f0:	3442003c 	ori	v0,v0,0x3c
801008f4:	8c420000 	lw	v0,0(v0)
801008f8:	27c30028 	addiu	v1,s8,40
801008fc:	00602825 	move	a1,v1
80100900:	00402025 	move	a0,v0
80100904:	0c0405b8 	jal	801016e0 <GetLabelAddr>
80100908:	00000000 	nop
D:\MCU_WorkSpace\IntegrationTest\mcu4in_IT\function_cpus\application/main.c:127
    // uart_printf("id=%d, addr=%x,%x!\r\n", LAST_PASS_EVENT_INDEX, lad, *lad);
    goto *lad;
8010090c:	8fc20028 	lw	v0,40(s8)
80100910:	00400008 	jr	v0
80100914:	00000000 	nop
D:\MCU_WorkSpace\IntegrationTest\mcu4in_IT\function_cpus\application/main.c:130
  }

  *local = *local - 1;
80100918:	8fc20018 	lw	v0,24(s8)
8010091c:	8c420000 	lw	v0,0(v0)
80100920:	2443ffff 	addiu	v1,v0,-1
80100924:	8fc20018 	lw	v0,24(s8)
80100928:	ac430000 	sw	v1,0(v0)
D:\MCU_WorkSpace\IntegrationTest\mcu4in_IT\function_cpus\application/main.c:131
  uart_printf("9-*local=%d!\r\n", *local);
8010092c:	8fc20018 	lw	v0,24(s8)
80100930:	8c420000 	lw	v0,0(v0)
80100934:	00402825 	move	a1,v0
80100938:	3c028010 	lui	v0,0x8010
8010093c:	24443b58 	addiu	a0,v0,15192
80100940:	0c04094b 	jal	8010252c <uart_printf>
80100944:	00000000 	nop
D:\MCU_WorkSpace\IntegrationTest\mcu4in_IT\function_cpus\application/main.c:132
  if (*local == 79) {
80100948:	8fc20018 	lw	v0,24(s8)
8010094c:	8c430000 	lw	v1,0(v0)
80100950:	2402004f 	li	v0,79
80100954:	14620007 	bne	v1,v0,80100974 <TestLocMalloc+0x23c>
80100958:	00000000 	nop
D:\MCU_WorkSpace\IntegrationTest\mcu4in_IT\function_cpus\application/main.c:133
    uart_printf("SRAM LocMalloc Test Passed!\r\n");
8010095c:	3c028010 	lui	v0,0x8010
80100960:	24443b68 	addiu	a0,v0,15208
80100964:	0c04094b 	jal	8010252c <uart_printf>
80100968:	00000000 	nop
D:\MCU_WorkSpace\IntegrationTest\mcu4in_IT\function_cpus\application/main.c:137
  } else {
    uart_printf("SRAM LocMalloc Test Failed, chk_pass_cnt = %d, %d, %d!!!\r\n", S0_CHK_PASS_CNT, S1_CHK_PASS_CNT, S2_CHK_PASS_CNT);
  }
}
8010096c:	10000011 	b	801009b4 <TestLocMalloc+0x27c>
80100970:	00000000 	nop
D:\MCU_WorkSpace\IntegrationTest\mcu4in_IT\function_cpus\application/main.c:135
    uart_printf("SRAM LocMalloc Test Failed, chk_pass_cnt = %d, %d, %d!!!\r\n", S0_CHK_PASS_CNT, S1_CHK_PASS_CNT, S2_CHK_PASS_CNT);
80100974:	3c024100 	lui	v0,0x4100
80100978:	34420048 	ori	v0,v0,0x48
8010097c:	8c430000 	lw	v1,0(v0)
80100980:	3c024100 	lui	v0,0x4100
80100984:	3442004c 	ori	v0,v0,0x4c
80100988:	8c440000 	lw	a0,0(v0)
8010098c:	3c024100 	lui	v0,0x4100
80100990:	34420050 	ori	v0,v0,0x50
80100994:	8c420000 	lw	v0,0(v0)
80100998:	00403825 	move	a3,v0
8010099c:	00803025 	move	a2,a0
801009a0:	00602825 	move	a1,v1
801009a4:	3c028010 	lui	v0,0x8010
801009a8:	24443b88 	addiu	a0,v0,15240
801009ac:	0c04094b 	jal	8010252c <uart_printf>
801009b0:	00000000 	nop
D:\MCU_WorkSpace\IntegrationTest\mcu4in_IT\function_cpus\application/main.c:137
}
801009b4:	00000000 	nop
801009b8:	03c0e825 	move	sp,s8
801009bc:	8fbf0034 	lw	ra,52(sp)
801009c0:	8fbe0030 	lw	s8,48(sp)
801009c4:	27bd0038 	addiu	sp,sp,56
801009c8:	03e00008 	jr	ra
801009cc:	00000000 	nop

801009d0 <TestSRAM>:
TestSRAM():
D:\MCU_WorkSpace\IntegrationTest\mcu4in_IT\function_cpus\application/main.c:139

void TestSRAM() {
801009d0:	27bdffd0 	addiu	sp,sp,-48
801009d4:	afbf002c 	sw	ra,44(sp)
801009d8:	afbe0028 	sw	s8,40(sp)
801009dc:	03a0f025 	move	s8,sp
D:\MCU_WorkSpace\IntegrationTest\mcu4in_IT\function_cpus\application/main.c:140
  unsigned int results = 1;
801009e0:	24020001 	li	v0,1
801009e4:	afc20010 	sw	v0,16(s8)
D:\MCU_WorkSpace\IntegrationTest\mcu4in_IT\function_cpus\application/main.c:142

  unsigned int sram_data = 0;
801009e8:	afc00014 	sw	zero,20(s8)
D:\MCU_WorkSpace\IntegrationTest\mcu4in_IT\function_cpus\application/main.c:143
  unsigned int sram_data_new = 0;
801009ec:	afc00018 	sw	zero,24(s8)
D:\MCU_WorkSpace\IntegrationTest\mcu4in_IT\function_cpus\application/main.c:145

  unsigned target_addr = 0;
801009f0:	afc0001c 	sw	zero,28(s8)
D:\MCU_WorkSpace\IntegrationTest\mcu4in_IT\function_cpus\application/main.c:146
  unsigned addr_offset = 0;
801009f4:	afc00020 	sw	zero,32(s8)
D:\MCU_WorkSpace\IntegrationTest\mcu4in_IT\function_cpus\application/main.c:149
  do{
    //--------------------- Test the start of contextSRAM
    addr_offset = 4; // HJJ the first word fixed as offset while malloc
801009f8:	24020004 	li	v0,4
801009fc:	afc20020 	sw	v0,32(s8)
D:\MCU_WorkSpace\IntegrationTest\mcu4in_IT\function_cpus\application/main.c:150
    target_addr = LOC_SRAM_BASEADDR + addr_offset;
80100a00:	8fc30020 	lw	v1,32(s8)
80100a04:	3c028012 	lui	v0,0x8012
80100a08:	3442c000 	ori	v0,v0,0xc000
80100a0c:	00621021 	addu	v0,v1,v0
80100a10:	afc2001c 	sw	v0,28(s8)
D:\MCU_WorkSpace\IntegrationTest\mcu4in_IT\function_cpus\application/main.c:151
    sram_data = (*(volatile unsigned *)target_addr);
80100a14:	8fc2001c 	lw	v0,28(s8)
80100a18:	8c420000 	lw	v0,0(v0)
80100a1c:	afc20014 	sw	v0,20(s8)
D:\MCU_WorkSpace\IntegrationTest\mcu4in_IT\function_cpus\application/main.c:153
#ifdef TARGET_MIPS
    results = (sram_data == 123) ? results : 1001;
80100a20:	8fc30014 	lw	v1,20(s8)
80100a24:	2402007b 	li	v0,123
80100a28:	14620004 	bne	v1,v0,80100a3c <TestSRAM+0x6c>
80100a2c:	00000000 	nop
D:\MCU_WorkSpace\IntegrationTest\mcu4in_IT\function_cpus\application/main.c:153 (discriminator 1)
80100a30:	8fc20010 	lw	v0,16(s8)
80100a34:	10000002 	b	80100a40 <TestSRAM+0x70>
80100a38:	00000000 	nop
D:\MCU_WorkSpace\IntegrationTest\mcu4in_IT\function_cpus\application/main.c:153 (discriminator 2)
80100a3c:	240203e9 	li	v0,1001
D:\MCU_WorkSpace\IntegrationTest\mcu4in_IT\function_cpus\application/main.c:153 (discriminator 4)
80100a40:	afc20010 	sw	v0,16(s8)
D:\MCU_WorkSpace\IntegrationTest\mcu4in_IT\function_cpus\application/main.c:161 (discriminator 4)
    results = (sram_data == 345) ? results : 1002;
#endif
#ifdef TARGET_RISCV
    results = (sram_data == 567) ? results : 1003;
#endif
    (*(volatile unsigned *)target_addr) = 666;
80100a44:	8fc2001c 	lw	v0,28(s8)
80100a48:	2403029a 	li	v1,666
80100a4c:	ac430000 	sw	v1,0(v0)
D:\MCU_WorkSpace\IntegrationTest\mcu4in_IT\function_cpus\application/main.c:162 (discriminator 4)
    sram_data_new = (*(volatile unsigned *)target_addr);
80100a50:	8fc2001c 	lw	v0,28(s8)
80100a54:	8c420000 	lw	v0,0(v0)
80100a58:	afc20018 	sw	v0,24(s8)
D:\MCU_WorkSpace\IntegrationTest\mcu4in_IT\function_cpus\application/main.c:163 (discriminator 4)
    results = (sram_data_new == 666) ? results : 1004;
80100a5c:	8fc30018 	lw	v1,24(s8)
80100a60:	2402029a 	li	v0,666
80100a64:	14620004 	bne	v1,v0,80100a78 <TestSRAM+0xa8>
80100a68:	00000000 	nop
D:\MCU_WorkSpace\IntegrationTest\mcu4in_IT\function_cpus\application/main.c:163 (discriminator 1)
80100a6c:	8fc20010 	lw	v0,16(s8)
80100a70:	10000002 	b	80100a7c <TestSRAM+0xac>
80100a74:	00000000 	nop
D:\MCU_WorkSpace\IntegrationTest\mcu4in_IT\function_cpus\application/main.c:163 (discriminator 2)
80100a78:	240203ec 	li	v0,1004
D:\MCU_WorkSpace\IntegrationTest\mcu4in_IT\function_cpus\application/main.c:163 (discriminator 4)
80100a7c:	afc20010 	sw	v0,16(s8)
D:\MCU_WorkSpace\IntegrationTest\mcu4in_IT\function_cpus\application/main.c:164 (discriminator 4)
    if (results != 1){
80100a80:	8fc30010 	lw	v1,16(s8)
80100a84:	24020001 	li	v0,1
80100a88:	1462006c 	bne	v1,v0,80100c3c <TestSRAM+0x26c>
80100a8c:	00000000 	nop
D:\MCU_WorkSpace\IntegrationTest\mcu4in_IT\function_cpus\application/main.c:169
      break;
    }

    //--------------------- Test the end of contextSRAM
    addr_offset = LOC_SRAM_SIZE - 4;
80100a90:	24023ffc 	li	v0,16380
80100a94:	afc20020 	sw	v0,32(s8)
D:\MCU_WorkSpace\IntegrationTest\mcu4in_IT\function_cpus\application/main.c:170
    target_addr = LOC_SRAM_BASEADDR + addr_offset;
80100a98:	8fc30020 	lw	v1,32(s8)
80100a9c:	3c028012 	lui	v0,0x8012
80100aa0:	3442c000 	ori	v0,v0,0xc000
80100aa4:	00621021 	addu	v0,v1,v0
80100aa8:	afc2001c 	sw	v0,28(s8)
D:\MCU_WorkSpace\IntegrationTest\mcu4in_IT\function_cpus\application/main.c:171
    sram_data = (*(volatile unsigned *)target_addr);
80100aac:	8fc2001c 	lw	v0,28(s8)
80100ab0:	8c420000 	lw	v0,0(v0)
80100ab4:	afc20014 	sw	v0,20(s8)
D:\MCU_WorkSpace\IntegrationTest\mcu4in_IT\function_cpus\application/main.c:173
  #ifdef TARGET_MIPS
    results = (sram_data == 234) ? results : 1005;
80100ab8:	8fc30014 	lw	v1,20(s8)
80100abc:	240200ea 	li	v0,234
80100ac0:	14620004 	bne	v1,v0,80100ad4 <TestSRAM+0x104>
80100ac4:	00000000 	nop
D:\MCU_WorkSpace\IntegrationTest\mcu4in_IT\function_cpus\application/main.c:173 (discriminator 1)
80100ac8:	8fc20010 	lw	v0,16(s8)
80100acc:	10000002 	b	80100ad8 <TestSRAM+0x108>
80100ad0:	00000000 	nop
D:\MCU_WorkSpace\IntegrationTest\mcu4in_IT\function_cpus\application/main.c:173 (discriminator 2)
80100ad4:	240203ed 	li	v0,1005
D:\MCU_WorkSpace\IntegrationTest\mcu4in_IT\function_cpus\application/main.c:173 (discriminator 4)
80100ad8:	afc20010 	sw	v0,16(s8)
D:\MCU_WorkSpace\IntegrationTest\mcu4in_IT\function_cpus\application/main.c:181 (discriminator 4)
    results = (sram_data == 456) ? results : 1006;
  #endif
  #ifdef TARGET_RISCV
    results = (sram_data == 678) ? results : 1007;
  #endif
    (*(volatile unsigned *)target_addr) = 777;
80100adc:	8fc2001c 	lw	v0,28(s8)
80100ae0:	24030309 	li	v1,777
80100ae4:	ac430000 	sw	v1,0(v0)
D:\MCU_WorkSpace\IntegrationTest\mcu4in_IT\function_cpus\application/main.c:182 (discriminator 4)
    sram_data_new = (*(volatile unsigned *)target_addr);
80100ae8:	8fc2001c 	lw	v0,28(s8)
80100aec:	8c420000 	lw	v0,0(v0)
80100af0:	afc20018 	sw	v0,24(s8)
D:\MCU_WorkSpace\IntegrationTest\mcu4in_IT\function_cpus\application/main.c:183 (discriminator 4)
    results = (sram_data_new == 777) ? results : 1008;
80100af4:	8fc30018 	lw	v1,24(s8)
80100af8:	24020309 	li	v0,777
80100afc:	14620004 	bne	v1,v0,80100b10 <TestSRAM+0x140>
80100b00:	00000000 	nop
D:\MCU_WorkSpace\IntegrationTest\mcu4in_IT\function_cpus\application/main.c:183 (discriminator 1)
80100b04:	8fc20010 	lw	v0,16(s8)
80100b08:	10000002 	b	80100b14 <TestSRAM+0x144>
80100b0c:	00000000 	nop
D:\MCU_WorkSpace\IntegrationTest\mcu4in_IT\function_cpus\application/main.c:183 (discriminator 2)
80100b10:	240203f0 	li	v0,1008
D:\MCU_WorkSpace\IntegrationTest\mcu4in_IT\function_cpus\application/main.c:183 (discriminator 4)
80100b14:	afc20010 	sw	v0,16(s8)
D:\MCU_WorkSpace\IntegrationTest\mcu4in_IT\function_cpus\application/main.c:184 (discriminator 4)
    if (results != 1){
80100b18:	8fc30010 	lw	v1,16(s8)
80100b1c:	24020001 	li	v0,1
80100b20:	14620049 	bne	v1,v0,80100c48 <TestSRAM+0x278>
80100b24:	00000000 	nop
D:\MCU_WorkSpace\IntegrationTest\mcu4in_IT\function_cpus\application/main.c:189
      break;
    }

    //--------------------- Test the start of CommonSRAM
    addr_offset = 4;
80100b28:	24020004 	li	v0,4
80100b2c:	afc20020 	sw	v0,32(s8)
D:\MCU_WorkSpace\IntegrationTest\mcu4in_IT\function_cpus\application/main.c:190
    target_addr = COM_SRAM_BASEADDR + addr_offset;
80100b30:	8fc30020 	lw	v1,32(s8)
80100b34:	3c024400 	lui	v0,0x4400
80100b38:	00621021 	addu	v0,v1,v0
80100b3c:	afc2001c 	sw	v0,28(s8)
D:\MCU_WorkSpace\IntegrationTest\mcu4in_IT\function_cpus\application/main.c:191
    sram_data = (*(volatile unsigned *)target_addr);
80100b40:	8fc2001c 	lw	v0,28(s8)
80100b44:	8c420000 	lw	v0,0(v0)
80100b48:	afc20014 	sw	v0,20(s8)
D:\MCU_WorkSpace\IntegrationTest\mcu4in_IT\function_cpus\application/main.c:192
    results = (sram_data == 789) ? results : 1009;
80100b4c:	8fc30014 	lw	v1,20(s8)
80100b50:	24020315 	li	v0,789
80100b54:	14620004 	bne	v1,v0,80100b68 <TestSRAM+0x198>
80100b58:	00000000 	nop
D:\MCU_WorkSpace\IntegrationTest\mcu4in_IT\function_cpus\application/main.c:192 (discriminator 1)
80100b5c:	8fc20010 	lw	v0,16(s8)
80100b60:	10000002 	b	80100b6c <TestSRAM+0x19c>
80100b64:	00000000 	nop
D:\MCU_WorkSpace\IntegrationTest\mcu4in_IT\function_cpus\application/main.c:192 (discriminator 2)
80100b68:	240203f1 	li	v0,1009
D:\MCU_WorkSpace\IntegrationTest\mcu4in_IT\function_cpus\application/main.c:192 (discriminator 4)
80100b6c:	afc20010 	sw	v0,16(s8)
D:\MCU_WorkSpace\IntegrationTest\mcu4in_IT\function_cpus\application/main.c:193 (discriminator 4)
    (*(volatile unsigned *)target_addr) = 888;
80100b70:	8fc2001c 	lw	v0,28(s8)
80100b74:	24030378 	li	v1,888
80100b78:	ac430000 	sw	v1,0(v0)
D:\MCU_WorkSpace\IntegrationTest\mcu4in_IT\function_cpus\application/main.c:194 (discriminator 4)
    sram_data_new = (*(volatile unsigned *)target_addr);
80100b7c:	8fc2001c 	lw	v0,28(s8)
80100b80:	8c420000 	lw	v0,0(v0)
80100b84:	afc20018 	sw	v0,24(s8)
D:\MCU_WorkSpace\IntegrationTest\mcu4in_IT\function_cpus\application/main.c:195 (discriminator 4)
    results = (sram_data_new == 888) ? results : 1010;
80100b88:	8fc30018 	lw	v1,24(s8)
80100b8c:	24020378 	li	v0,888
80100b90:	14620004 	bne	v1,v0,80100ba4 <TestSRAM+0x1d4>
80100b94:	00000000 	nop
D:\MCU_WorkSpace\IntegrationTest\mcu4in_IT\function_cpus\application/main.c:195 (discriminator 1)
80100b98:	8fc20010 	lw	v0,16(s8)
80100b9c:	10000002 	b	80100ba8 <TestSRAM+0x1d8>
80100ba0:	00000000 	nop
D:\MCU_WorkSpace\IntegrationTest\mcu4in_IT\function_cpus\application/main.c:195 (discriminator 2)
80100ba4:	240203f2 	li	v0,1010
D:\MCU_WorkSpace\IntegrationTest\mcu4in_IT\function_cpus\application/main.c:195 (discriminator 4)
80100ba8:	afc20010 	sw	v0,16(s8)
D:\MCU_WorkSpace\IntegrationTest\mcu4in_IT\function_cpus\application/main.c:199 (discriminator 4)
    // uart_printf("the start of CommonSRAM: %d --> %d. \r\n", sram_data, sram_data_new);

    //--------------------- Test the end of CommonSRAM
    addr_offset = COM_SRAM_SIZE - 4;
80100bac:	3c020001 	lui	v0,0x1
80100bb0:	3442fffc 	ori	v0,v0,0xfffc
80100bb4:	afc20020 	sw	v0,32(s8)
D:\MCU_WorkSpace\IntegrationTest\mcu4in_IT\function_cpus\application/main.c:200 (discriminator 4)
    target_addr = COM_SRAM_BASEADDR + addr_offset;
80100bb8:	8fc30020 	lw	v1,32(s8)
80100bbc:	3c024400 	lui	v0,0x4400
80100bc0:	00621021 	addu	v0,v1,v0
80100bc4:	afc2001c 	sw	v0,28(s8)
D:\MCU_WorkSpace\IntegrationTest\mcu4in_IT\function_cpus\application/main.c:201 (discriminator 4)
    sram_data = (*(volatile unsigned *)target_addr);
80100bc8:	8fc2001c 	lw	v0,28(s8)
80100bcc:	8c420000 	lw	v0,0(v0)
80100bd0:	afc20014 	sw	v0,20(s8)
D:\MCU_WorkSpace\IntegrationTest\mcu4in_IT\function_cpus\application/main.c:202 (discriminator 4)
    results = (sram_data == 890) ? results : 1011;
80100bd4:	8fc30014 	lw	v1,20(s8)
80100bd8:	2402037a 	li	v0,890
80100bdc:	14620004 	bne	v1,v0,80100bf0 <TestSRAM+0x220>
80100be0:	00000000 	nop
D:\MCU_WorkSpace\IntegrationTest\mcu4in_IT\function_cpus\application/main.c:202 (discriminator 1)
80100be4:	8fc20010 	lw	v0,16(s8)
80100be8:	10000002 	b	80100bf4 <TestSRAM+0x224>
80100bec:	00000000 	nop
D:\MCU_WorkSpace\IntegrationTest\mcu4in_IT\function_cpus\application/main.c:202 (discriminator 2)
80100bf0:	240203f3 	li	v0,1011
D:\MCU_WorkSpace\IntegrationTest\mcu4in_IT\function_cpus\application/main.c:202 (discriminator 4)
80100bf4:	afc20010 	sw	v0,16(s8)
D:\MCU_WorkSpace\IntegrationTest\mcu4in_IT\function_cpus\application/main.c:203 (discriminator 4)
    (*(volatile unsigned *)target_addr) = 999;
80100bf8:	8fc2001c 	lw	v0,28(s8)
80100bfc:	240303e7 	li	v1,999
80100c00:	ac430000 	sw	v1,0(v0)
D:\MCU_WorkSpace\IntegrationTest\mcu4in_IT\function_cpus\application/main.c:204 (discriminator 4)
    sram_data_new = (*(volatile unsigned *)target_addr);
80100c04:	8fc2001c 	lw	v0,28(s8)
80100c08:	8c420000 	lw	v0,0(v0)
80100c0c:	afc20018 	sw	v0,24(s8)
D:\MCU_WorkSpace\IntegrationTest\mcu4in_IT\function_cpus\application/main.c:205 (discriminator 4)
    results = (sram_data_new == 999) ? results : 1012;
80100c10:	8fc30018 	lw	v1,24(s8)
80100c14:	240203e7 	li	v0,999
80100c18:	14620004 	bne	v1,v0,80100c2c <TestSRAM+0x25c>
80100c1c:	00000000 	nop
D:\MCU_WorkSpace\IntegrationTest\mcu4in_IT\function_cpus\application/main.c:205 (discriminator 1)
80100c20:	8fc20010 	lw	v0,16(s8)
80100c24:	10000002 	b	80100c30 <TestSRAM+0x260>
80100c28:	00000000 	nop
D:\MCU_WorkSpace\IntegrationTest\mcu4in_IT\function_cpus\application/main.c:205 (discriminator 2)
80100c2c:	240203f4 	li	v0,1012
D:\MCU_WorkSpace\IntegrationTest\mcu4in_IT\function_cpus\application/main.c:205 (discriminator 4)
80100c30:	afc20010 	sw	v0,16(s8)
D:\MCU_WorkSpace\IntegrationTest\mcu4in_IT\function_cpus\application/main.c:208 (discriminator 4)
    // uart_printf("the   end of CommonSRAM: %d --> %d. \r\n", sram_data, sram_data_new);

    break;
80100c34:	10000005 	b	80100c4c <TestSRAM+0x27c>
80100c38:	00000000 	nop
D:\MCU_WorkSpace\IntegrationTest\mcu4in_IT\function_cpus\application/main.c:165
      break;
80100c3c:	00000000 	nop
80100c40:	10000002 	b	80100c4c <TestSRAM+0x27c>
80100c44:	00000000 	nop
D:\MCU_WorkSpace\IntegrationTest\mcu4in_IT\function_cpus\application/main.c:185
      break;
80100c48:	00000000 	nop
D:\MCU_WorkSpace\IntegrationTest\mcu4in_IT\function_cpus\application/main.c:211
  } while(1);

  if (results == 1) {
80100c4c:	8fc30010 	lw	v1,16(s8)
80100c50:	24020001 	li	v0,1
80100c54:	14620007 	bne	v1,v0,80100c74 <TestSRAM+0x2a4>
80100c58:	00000000 	nop
D:\MCU_WorkSpace\IntegrationTest\mcu4in_IT\function_cpus\application/main.c:212
    uart_printf("SRAM Test Passed!\r\n");
80100c5c:	3c028010 	lui	v0,0x8010
80100c60:	24443bc4 	addiu	a0,v0,15300
80100c64:	0c04094b 	jal	8010252c <uart_printf>
80100c68:	00000000 	nop
D:\MCU_WorkSpace\IntegrationTest\mcu4in_IT\function_cpus\application/main.c:216
  } else {
    uart_printf("SRAM Test Failed, errCode=%d!!!\r\n", results);
  }
}
80100c6c:	10000006 	b	80100c88 <TestSRAM+0x2b8>
80100c70:	00000000 	nop
D:\MCU_WorkSpace\IntegrationTest\mcu4in_IT\function_cpus\application/main.c:214
    uart_printf("SRAM Test Failed, errCode=%d!!!\r\n", results);
80100c74:	8fc50010 	lw	a1,16(s8)
80100c78:	3c028010 	lui	v0,0x8010
80100c7c:	24443bd8 	addiu	a0,v0,15320
80100c80:	0c04094b 	jal	8010252c <uart_printf>
80100c84:	00000000 	nop
D:\MCU_WorkSpace\IntegrationTest\mcu4in_IT\function_cpus\application/main.c:216
}
80100c88:	00000000 	nop
80100c8c:	03c0e825 	move	sp,s8
80100c90:	8fbf002c 	lw	ra,44(sp)
80100c94:	8fbe0028 	lw	s8,40(sp)
80100c98:	27bd0030 	addiu	sp,sp,48
80100c9c:	03e00008 	jr	ra
80100ca0:	00000000 	nop

80100ca4 <TestCPUVary>:
TestCPUVary():
D:\MCU_WorkSpace\IntegrationTest\mcu4in_IT\function_cpus\application/main.c:238
   {"kVarySelect, @ABCDEFGHIJ!\n"},
   {"kVarySelect, @1234567890!\n"}
  }
};

void TestCPUVary(const VaryStrategyTypes strategy, const unsigned scenario) {
80100ca4:	27bdffd0 	addiu	sp,sp,-48
80100ca8:	afbf002c 	sw	ra,44(sp)
80100cac:	afbe0028 	sw	s8,40(sp)
80100cb0:	03a0f025 	move	s8,sp
80100cb4:	afc40030 	sw	a0,48(s8)
80100cb8:	afc50034 	sw	a1,52(s8)
D:\MCU_WorkSpace\IntegrationTest\mcu4in_IT\function_cpus\application/main.c:239
  int t = 0;
80100cbc:	afc00010 	sw	zero,16(s8)
D:\MCU_WorkSpace\IntegrationTest\mcu4in_IT\function_cpus\application/main.c:240
  if (RD_RESTORE_FROM_CHECKER == 1) {
80100cc0:	3c024100 	lui	v0,0x4100
80100cc4:	34420020 	ori	v0,v0,0x20
80100cc8:	8c430000 	lw	v1,0(v0)
80100ccc:	24020001 	li	v0,1
80100cd0:	14620025 	bne	v1,v0,80100d68 <TestCPUVary+0xc4>
80100cd4:	00000000 	nop
D:\MCU_WorkSpace\IntegrationTest\mcu4in_IT\function_cpus\application/main.c:241
    if (ALL_CPU_ERROR == 1) {
80100cd8:	3c024100 	lui	v0,0x4100
80100cdc:	34420038 	ori	v0,v0,0x38
80100ce0:	8c430000 	lw	v1,0(v0)
80100ce4:	24020001 	li	v0,1
80100ce8:	1462002a 	bne	v1,v0,80100d94 <TestCPUVary+0xf0>
80100cec:	00000000 	nop
D:\MCU_WorkSpace\IntegrationTest\mcu4in_IT\function_cpus\application/main.c:242
      pml_stack_restore();
80100cf0:	0c04058d 	jal	80101634 <pml_stack_restore>
80100cf4:	00000000 	nop
D:\MCU_WorkSpace\IntegrationTest\mcu4in_IT\function_cpus\application/main.c:243
      pml_loc_restore();
80100cf8:	0c04068e 	jal	80101a38 <pml_loc_restore>
80100cfc:	00000000 	nop
D:\MCU_WorkSpace\IntegrationTest\mcu4in_IT\function_cpus\application/main.c:244
      t = 1;
80100d00:	24020001 	li	v0,1
80100d04:	afc20010 	sw	v0,16(s8)
D:\MCU_WorkSpace\IntegrationTest\mcu4in_IT\function_cpus\application/main.c:245
      RESTORE_FINISH = 0x1;
80100d08:	3c024100 	lui	v0,0x4100
80100d0c:	34420018 	ori	v0,v0,0x18
80100d10:	24030001 	li	v1,1
80100d14:	ac430000 	sw	v1,0(v0)
D:\MCU_WorkSpace\IntegrationTest\mcu4in_IT\function_cpus\application/main.c:246
      unsigned* lad = NULL;
80100d18:	afc00018 	sw	zero,24(s8)
D:\MCU_WorkSpace\IntegrationTest\mcu4in_IT\function_cpus\application/main.c:247
      uart_printf("li = %d\n", LAST_PASS_EVENT_INDEX);
80100d1c:	3c024100 	lui	v0,0x4100
80100d20:	3442003c 	ori	v0,v0,0x3c
80100d24:	8c420000 	lw	v0,0(v0)
80100d28:	00402825 	move	a1,v0
80100d2c:	3c028010 	lui	v0,0x8010
80100d30:	24443bfc 	addiu	a0,v0,15356
80100d34:	0c04094b 	jal	8010252c <uart_printf>
80100d38:	00000000 	nop
D:\MCU_WorkSpace\IntegrationTest\mcu4in_IT\function_cpus\application/main.c:248
      GetLabelAddr(LAST_PASS_EVENT_INDEX, &lad);
80100d3c:	3c024100 	lui	v0,0x4100
80100d40:	3442003c 	ori	v0,v0,0x3c
80100d44:	8c420000 	lw	v0,0(v0)
80100d48:	27c30018 	addiu	v1,s8,24
80100d4c:	00602825 	move	a1,v1
80100d50:	00402025 	move	a0,v0
80100d54:	0c0405b8 	jal	801016e0 <GetLabelAddr>
80100d58:	00000000 	nop
D:\MCU_WorkSpace\IntegrationTest\mcu4in_IT\function_cpus\application/main.c:249
      goto *lad;
80100d5c:	8fc20018 	lw	v0,24(s8)
80100d60:	00400008 	jr	v0
80100d64:	00000000 	nop
D:\MCU_WorkSpace\IntegrationTest\mcu4in_IT\function_cpus\application/main.c:251
    }
  } else if (CTRL_RST_FLAG == 1)
80100d68:	3c024100 	lui	v0,0x4100
80100d6c:	34420058 	ori	v0,v0,0x58
80100d70:	8c430000 	lw	v1,0(v0)
80100d74:	24020001 	li	v0,1
80100d78:	14620006 	bne	v1,v0,80100d94 <TestCPUVary+0xf0>
80100d7c:	00000000 	nop
D:\MCU_WorkSpace\IntegrationTest\mcu4in_IT\function_cpus\application/main.c:253
  {
    t = 1;
80100d80:	24020001 	li	v0,1
80100d84:	afc20010 	sw	v0,16(s8)
D:\MCU_WorkSpace\IntegrationTest\mcu4in_IT\function_cpus\application/main.c:254
    CTRL_RST_FLAG = 0;
80100d88:	3c024100 	lui	v0,0x4100
80100d8c:	34420058 	ori	v0,v0,0x58
80100d90:	ac400000 	sw	zero,0(v0)
D:\MCU_WorkSpace\IntegrationTest\mcu4in_IT\function_cpus\application/main.c:257
  }

  int* local = (int*)pml_loc_malloc(sizeof(int));
80100d94:	24040004 	li	a0,4
80100d98:	0c04060e 	jal	80101838 <pml_loc_malloc>
80100d9c:	00000000 	nop
80100da0:	afc20014 	sw	v0,20(s8)
D:\MCU_WorkSpace\IntegrationTest\mcu4in_IT\function_cpus\application/main.c:258
  *local = 100;
80100da4:	8fc20014 	lw	v0,20(s8)
80100da8:	24030064 	li	v1,100
80100dac:	ac430000 	sw	v1,0(v0)
D:\MCU_WorkSpace\IntegrationTest\mcu4in_IT\function_cpus\application/main.c:259
  uart_printf("o:%u\r\n", *local);
80100db0:	8fc20014 	lw	v0,20(s8)
80100db4:	8c420000 	lw	v0,0(v0)
80100db8:	00402825 	move	a1,v0
80100dbc:	3c028010 	lui	v0,0x8010
80100dc0:	24443c08 	addiu	a0,v0,15368
80100dc4:	0c04094b 	jal	8010252c <uart_printf>
80100dc8:	00000000 	nop
D:\MCU_WorkSpace\IntegrationTest\mcu4in_IT\function_cpus\application/main.c:260
  EVENT_END_WITH_LABEL(8);
80100dcc:	afc0001c 	sw	zero,28(s8)
80100dd0:	03a01025 	move	v0,sp
80100dd4:	afc2001c 	sw	v0,28(s8)
80100dd8:	3c028012 	lui	v0,0x8012
80100ddc:	3442e000 	ori	v0,v0,0xe000
80100de0:	8fc3001c 	lw	v1,28(s8)
80100de4:	ac430000 	sw	v1,0(v0)
80100de8:	3c024100 	lui	v0,0x4100
80100dec:	34420034 	ori	v0,v0,0x34
80100df0:	24030008 	li	v1,8
80100df4:	ac430000 	sw	v1,0(v0)
80100df8:	3c024100 	lui	v0,0x4100
80100dfc:	3442001c 	ori	v0,v0,0x1c
80100e00:	24030001 	li	v1,1
80100e04:	ac430000 	sw	v1,0(v0)
80100e08:	0c0406d3 	jal	80101b4c <event_delay>
80100e0c:	00000000 	nop
D:\MCU_WorkSpace\IntegrationTest\mcu4in_IT\function_cpus\application/main.c:262

  *local = *local - 10;
80100e10:	8fc20014 	lw	v0,20(s8)
80100e14:	8c420000 	lw	v0,0(v0)
80100e18:	2443fff6 	addiu	v1,v0,-10
80100e1c:	8fc20014 	lw	v0,20(s8)
80100e20:	ac430000 	sw	v1,0(v0)
D:\MCU_WorkSpace\IntegrationTest\mcu4in_IT\function_cpus\application/main.c:263
  EVENT_END_WITH_LABEL(9);
80100e24:	afc00020 	sw	zero,32(s8)
80100e28:	03a01025 	move	v0,sp
80100e2c:	afc20020 	sw	v0,32(s8)
80100e30:	3c028012 	lui	v0,0x8012
80100e34:	3442e000 	ori	v0,v0,0xe000
80100e38:	8fc30020 	lw	v1,32(s8)
80100e3c:	ac430000 	sw	v1,0(v0)
80100e40:	3c024100 	lui	v0,0x4100
80100e44:	34420034 	ori	v0,v0,0x34
80100e48:	24030009 	li	v1,9
80100e4c:	ac430000 	sw	v1,0(v0)
80100e50:	3c024100 	lui	v0,0x4100
80100e54:	3442001c 	ori	v0,v0,0x1c
80100e58:	24030001 	li	v1,1
80100e5c:	ac430000 	sw	v1,0(v0)
80100e60:	0c0406d3 	jal	80101b4c <event_delay>
80100e64:	00000000 	nop
D:\MCU_WorkSpace\IntegrationTest\mcu4in_IT\function_cpus\application/main.c:264
  if (t == 0) {
80100e68:	8fc20010 	lw	v0,16(s8)
80100e6c:	14400010 	bnez	v0,80100eb0 <TestCPUVary+0x20c>
80100e70:	00000000 	nop
D:\MCU_WorkSpace\IntegrationTest\mcu4in_IT\function_cpus\application/main.c:266
#ifdef TARGET_MIPS
    uart_printf(varyMsg[strategy][0]);
80100e74:	8fc30030 	lw	v1,48(s8)
80100e78:	2402012c 	li	v0,300
80100e7c:	70621802 	mul	v1,v1,v0
80100e80:	3c028012 	lui	v0,0x8012
80100e84:	24420000 	addiu	v0,v0,0
80100e88:	00621021 	addu	v0,v1,v0
80100e8c:	00402025 	move	a0,v0
80100e90:	0c04094b 	jal	8010252c <uart_printf>
80100e94:	00000000 	nop
D:\MCU_WorkSpace\IntegrationTest\mcu4in_IT\function_cpus\application/main.c:274
    uart_printf(varyMsg[strategy][1]);
#endif
#ifdef TARGET_RISCV
    uart_printf(varyMsg[strategy][2]);
#endif
    uart_printf("\n**** Not reset but select!   ****\n");
80100e98:	3c028010 	lui	v0,0x8010
80100e9c:	24443c10 	addiu	a0,v0,15376
80100ea0:	0c04094b 	jal	8010252c <uart_printf>
80100ea4:	00000000 	nop
80100ea8:	10000005 	b	80100ec0 <TestCPUVary+0x21c>
80100eac:	00000000 	nop
D:\MCU_WorkSpace\IntegrationTest\mcu4in_IT\function_cpus\application/main.c:276
  } else {
    uart_printf("Reboot...end!\n");
80100eb0:	3c028010 	lui	v0,0x8010
80100eb4:	24443c34 	addiu	a0,v0,15412
80100eb8:	0c04094b 	jal	8010252c <uart_printf>
80100ebc:	00000000 	nop
D:\MCU_WorkSpace\IntegrationTest\mcu4in_IT\function_cpus\application/main.c:279
  }

  *local = *local - 10;
80100ec0:	8fc20014 	lw	v0,20(s8)
80100ec4:	8c420000 	lw	v0,0(v0)
80100ec8:	2443fff6 	addiu	v1,v0,-10
80100ecc:	8fc20014 	lw	v0,20(s8)
80100ed0:	ac430000 	sw	v1,0(v0)
D:\MCU_WorkSpace\IntegrationTest\mcu4in_IT\function_cpus\application/main.c:280
  uart_printf("r:%d\r\n", *local);
80100ed4:	8fc20014 	lw	v0,20(s8)
80100ed8:	8c420000 	lw	v0,0(v0)
80100edc:	00402825 	move	a1,v0
80100ee0:	3c028010 	lui	v0,0x8010
80100ee4:	24443c44 	addiu	a0,v0,15428
80100ee8:	0c04094b 	jal	8010252c <uart_printf>
80100eec:	00000000 	nop
D:\MCU_WorkSpace\IntegrationTest\mcu4in_IT\function_cpus\application/main.c:282

  uart_printf("**** chk_pass_cnt = %d, %d, %d  ****\n", S0_CHK_PASS_CNT, S1_CHK_PASS_CNT, S2_CHK_PASS_CNT);
80100ef0:	3c024100 	lui	v0,0x4100
80100ef4:	34420048 	ori	v0,v0,0x48
80100ef8:	8c430000 	lw	v1,0(v0)
80100efc:	3c024100 	lui	v0,0x4100
80100f00:	3442004c 	ori	v0,v0,0x4c
80100f04:	8c440000 	lw	a0,0(v0)
80100f08:	3c024100 	lui	v0,0x4100
80100f0c:	34420050 	ori	v0,v0,0x50
80100f10:	8c420000 	lw	v0,0(v0)
80100f14:	00403825 	move	a3,v0
80100f18:	00803025 	move	a2,a0
80100f1c:	00602825 	move	a1,v1
80100f20:	3c028010 	lui	v0,0x8010
80100f24:	24443c4c 	addiu	a0,v0,15436
80100f28:	0c04094b 	jal	8010252c <uart_printf>
80100f2c:	00000000 	nop
D:\MCU_WorkSpace\IntegrationTest\mcu4in_IT\function_cpus\application/main.c:283
  if (scenario == 1) {
80100f30:	8fc30034 	lw	v1,52(s8)
80100f34:	24020001 	li	v0,1
80100f38:	14620005 	bne	v1,v0,80100f50 <TestCPUVary+0x2ac>
80100f3c:	00000000 	nop
D:\MCU_WorkSpace\IntegrationTest\mcu4in_IT\function_cpus\application/main.c:284
    TestUARTSimpleIRQ(HM_UART0);
80100f40:	3c024000 	lui	v0,0x4000
80100f44:	3444c000 	ori	a0,v0,0xc000
80100f48:	0c0404dc 	jal	80101370 <TestUARTSimpleIRQ>
80100f4c:	00000000 	nop
D:\MCU_WorkSpace\IntegrationTest\mcu4in_IT\function_cpus\application/main.c:286
  }
}
80100f50:	00000000 	nop
80100f54:	03c0e825 	move	sp,s8
80100f58:	8fbf002c 	lw	ra,44(sp)
80100f5c:	8fbe0028 	lw	s8,40(sp)
80100f60:	27bd0030 	addiu	sp,sp,48
80100f64:	03e00008 	jr	ra
80100f68:	00000000 	nop

80100f6c <TestOneCPUErr>:
TestOneCPUErr():
D:\MCU_WorkSpace\IntegrationTest\mcu4in_IT\function_cpus\application/main.c:303
  },
  {{"kIncRectify, @abcdefghijk!\n"},
   {"kIncRectify, @12345678901!\n"}
  }
};
void TestOneCPUErr(const FunctionCPUID id, const IncStrategyTypes strategy, const unsigned int scenario) {
80100f6c:	27bdffd0 	addiu	sp,sp,-48
80100f70:	afbf002c 	sw	ra,44(sp)
80100f74:	afbe0028 	sw	s8,40(sp)
80100f78:	03a0f025 	move	s8,sp
80100f7c:	afc40030 	sw	a0,48(s8)
80100f80:	afc50034 	sw	a1,52(s8)
80100f84:	afc60038 	sw	a2,56(s8)
D:\MCU_WorkSpace\IntegrationTest\mcu4in_IT\function_cpus\application/main.c:304
  if (RD_RESTORE_FROM_CHECKER == 1) {
80100f88:	3c024100 	lui	v0,0x4100
80100f8c:	34420020 	ori	v0,v0,0x20
80100f90:	8c430000 	lw	v1,0(v0)
80100f94:	24020001 	li	v0,1
80100f98:	1462002f 	bne	v1,v0,80101058 <TestOneCPUErr+0xec>
80100f9c:	00000000 	nop
D:\MCU_WorkSpace\IntegrationTest\mcu4in_IT\function_cpus\application/main.c:305
    if (ALL_CPU_ERROR == 0) {  // one cpu err
80100fa0:	3c024100 	lui	v0,0x4100
80100fa4:	34420038 	ori	v0,v0,0x38
80100fa8:	8c420000 	lw	v0,0(v0)
80100fac:	1440002a 	bnez	v0,80101058 <TestOneCPUErr+0xec>
80100fb0:	00000000 	nop
D:\MCU_WorkSpace\IntegrationTest\mcu4in_IT\function_cpus\application/main.c:307
      // TellSche(1);
      pml_stack_restore();
80100fb4:	0c04058d 	jal	80101634 <pml_stack_restore>
80100fb8:	00000000 	nop
D:\MCU_WorkSpace\IntegrationTest\mcu4in_IT\function_cpus\application/main.c:309
      // pml_reg_restore();
      pml_loc_restore();
80100fbc:	0c04068e 	jal	80101a38 <pml_loc_restore>
80100fc0:	00000000 	nop
D:\MCU_WorkSpace\IntegrationTest\mcu4in_IT\function_cpus\application/main.c:311
      
      RESTORE_FINISH = 0x1;
80100fc4:	3c024100 	lui	v0,0x4100
80100fc8:	34420018 	ori	v0,v0,0x18
80100fcc:	24030001 	li	v1,1
80100fd0:	ac430000 	sw	v1,0(v0)
D:\MCU_WorkSpace\IntegrationTest\mcu4in_IT\function_cpus\application/main.c:314
      
      while (1) {
        if (OTHER_CPU1_EVENT_END && OTHER_CPU2_EVENT_END) {
80100fd4:	3c024100 	lui	v0,0x4100
80100fd8:	34420024 	ori	v0,v0,0x24
80100fdc:	8c420000 	lw	v0,0(v0)
80100fe0:	1040fffc 	beqz	v0,80100fd4 <TestOneCPUErr+0x68>
80100fe4:	00000000 	nop
D:\MCU_WorkSpace\IntegrationTest\mcu4in_IT\function_cpus\application/main.c:314 (discriminator 1)
80100fe8:	3c024100 	lui	v0,0x4100
80100fec:	34420028 	ori	v0,v0,0x28
80100ff0:	8c420000 	lw	v0,0(v0)
80100ff4:	1040fff7 	beqz	v0,80100fd4 <TestOneCPUErr+0x68>
80100ff8:	00000000 	nop
D:\MCU_WorkSpace\IntegrationTest\mcu4in_IT\function_cpus\application/main.c:315
          if (OTHER_CPU1_EVENT_INDEX == OTHER_CPU2_EVENT_INDEX) {
80100ffc:	3c024100 	lui	v0,0x4100
80101000:	3442002c 	ori	v0,v0,0x2c
80101004:	8c430000 	lw	v1,0(v0)
80101008:	3c024100 	lui	v0,0x4100
8010100c:	34420030 	ori	v0,v0,0x30
80101010:	8c420000 	lw	v0,0(v0)
80101014:	10620003 	beq	v1,v0,80101024 <TestOneCPUErr+0xb8>
80101018:	00000000 	nop
D:\MCU_WorkSpace\IntegrationTest\mcu4in_IT\function_cpus\application/main.c:314
        if (OTHER_CPU1_EVENT_END && OTHER_CPU2_EVENT_END) {
8010101c:	1000ffed 	b	80100fd4 <TestOneCPUErr+0x68>
80101020:	00000000 	nop
D:\MCU_WorkSpace\IntegrationTest\mcu4in_IT\function_cpus\application/main.c:316
            break;
80101024:	00000000 	nop
D:\MCU_WorkSpace\IntegrationTest\mcu4in_IT\function_cpus\application/main.c:321
          }
        }
      }

      unsigned* lad = NULL;
80101028:	afc00018 	sw	zero,24(s8)
D:\MCU_WorkSpace\IntegrationTest\mcu4in_IT\function_cpus\application/main.c:322
      GetLabelAddr(OTHER_CPU1_EVENT_INDEX, &lad);
8010102c:	3c024100 	lui	v0,0x4100
80101030:	3442002c 	ori	v0,v0,0x2c
80101034:	8c420000 	lw	v0,0(v0)
80101038:	27c30018 	addiu	v1,s8,24
8010103c:	00602825 	move	a1,v1
80101040:	00402025 	move	a0,v0
80101044:	0c0405b8 	jal	801016e0 <GetLabelAddr>
80101048:	00000000 	nop
D:\MCU_WorkSpace\IntegrationTest\mcu4in_IT\function_cpus\application/main.c:327
      // Delay(1);
      // *(volatile unsigned *)(TEL_ADDR - 12) = OTHER_CPU1_EVENT_INDEX;
      // *(volatile unsigned *)(TEL_ADDR - 16) = lad;
      // TellSche(3);
      goto *lad;
8010104c:	8fc20018 	lw	v0,24(s8)
80101050:	00400008 	jr	v0
80101054:	00000000 	nop
D:\MCU_WorkSpace\IntegrationTest\mcu4in_IT\function_cpus\application/main.c:331
    } 
  }
  
  int* common = (int*)pml_com_malloc(sizeof(int));
80101058:	24040004 	li	a0,4
8010105c:	0c0405ee 	jal	801017b8 <pml_com_malloc>
80101060:	00000000 	nop
80101064:	afc20010 	sw	v0,16(s8)
D:\MCU_WorkSpace\IntegrationTest\mcu4in_IT\function_cpus\application/main.c:332
  *common = 1000;
80101068:	8fc20010 	lw	v0,16(s8)
8010106c:	240303e8 	li	v1,1000
80101070:	ac430000 	sw	v1,0(v0)
D:\MCU_WorkSpace\IntegrationTest\mcu4in_IT\function_cpus\application/main.c:333
  int* local = (int*)pml_loc_malloc(sizeof(int));
80101074:	24040004 	li	a0,4
80101078:	0c04060e 	jal	80101838 <pml_loc_malloc>
8010107c:	00000000 	nop
80101080:	afc20014 	sw	v0,20(s8)
D:\MCU_WorkSpace\IntegrationTest\mcu4in_IT\function_cpus\application/main.c:334
  *local = 99;
80101084:	8fc20014 	lw	v0,20(s8)
80101088:	24030063 	li	v1,99
8010108c:	ac430000 	sw	v1,0(v0)
D:\MCU_WorkSpace\IntegrationTest\mcu4in_IT\function_cpus\application/main.c:335
  uart_printf("o:%d,%d\r\n", *common, *local);
80101090:	8fc20010 	lw	v0,16(s8)
80101094:	8c430000 	lw	v1,0(v0)
80101098:	8fc20014 	lw	v0,20(s8)
8010109c:	8c420000 	lw	v0,0(v0)
801010a0:	00403025 	move	a2,v0
801010a4:	00602825 	move	a1,v1
801010a8:	3c028010 	lui	v0,0x8010
801010ac:	24443c74 	addiu	a0,v0,15476
801010b0:	0c04094b 	jal	8010252c <uart_printf>
801010b4:	00000000 	nop
D:\MCU_WorkSpace\IntegrationTest\mcu4in_IT\function_cpus\application/main.c:338

  // triple modular redundancy
  *common = *common - 10;
801010b8:	8fc20010 	lw	v0,16(s8)
801010bc:	8c420000 	lw	v0,0(v0)
801010c0:	2443fff6 	addiu	v1,v0,-10
801010c4:	8fc20010 	lw	v0,16(s8)
801010c8:	ac430000 	sw	v1,0(v0)
D:\MCU_WorkSpace\IntegrationTest\mcu4in_IT\function_cpus\application/main.c:339
  *local = *local - 10;
801010cc:	8fc20014 	lw	v0,20(s8)
801010d0:	8c420000 	lw	v0,0(v0)
801010d4:	2443fff6 	addiu	v1,v0,-10
801010d8:	8fc20014 	lw	v0,20(s8)
801010dc:	ac430000 	sw	v1,0(v0)
D:\MCU_WorkSpace\IntegrationTest\mcu4in_IT\function_cpus\application/main.c:340
  EVENT_END_WITH_LABEL(10);
801010e0:	afc0001c 	sw	zero,28(s8)
801010e4:	03a01025 	move	v0,sp
801010e8:	afc2001c 	sw	v0,28(s8)
801010ec:	3c028012 	lui	v0,0x8012
801010f0:	3442e000 	ori	v0,v0,0xe000
801010f4:	8fc3001c 	lw	v1,28(s8)
801010f8:	ac430000 	sw	v1,0(v0)
801010fc:	3c024100 	lui	v0,0x4100
80101100:	34420034 	ori	v0,v0,0x34
80101104:	2403000a 	li	v1,10
80101108:	ac430000 	sw	v1,0(v0)
8010110c:	3c024100 	lui	v0,0x4100
80101110:	3442001c 	ori	v0,v0,0x1c
80101114:	24030001 	li	v1,1
80101118:	ac430000 	sw	v1,0(v0)
8010111c:	0c0406d3 	jal	80101b4c <event_delay>
80101120:	00000000 	nop
D:\MCU_WorkSpace\IntegrationTest\mcu4in_IT\function_cpus\application/main.c:344
  
  // trigger 2vs.1
#ifdef TARGET_MIPS
    uart_printf(incMsg[strategy][id == kCPU0]);
80101124:	8fc20030 	lw	v0,48(s8)
80101128:	2c420001 	sltiu	v0,v0,1
8010112c:	304200ff 	andi	v0,v0,0xff
80101130:	00401825 	move	v1,v0
80101134:	24020064 	li	v0,100
80101138:	70621802 	mul	v1,v1,v0
8010113c:	8fc40034 	lw	a0,52(s8)
80101140:	240200c8 	li	v0,200
80101144:	70821002 	mul	v0,a0,v0
80101148:	00621821 	addu	v1,v1,v0
8010114c:	3c028012 	lui	v0,0x8012
80101150:	244204b0 	addiu	v0,v0,1200
80101154:	00621021 	addu	v0,v1,v0
80101158:	00402025 	move	a0,v0
8010115c:	0c04094b 	jal	8010252c <uart_printf>
80101160:	00000000 	nop
D:\MCU_WorkSpace\IntegrationTest\mcu4in_IT\function_cpus\application/main.c:354
#ifdef TARGET_RISCV
    uart_printf(incMsg[strategy][id == kCPU2]);
#endif

  // dual modular redundancy
  *common = *common - *local;
80101164:	8fc20010 	lw	v0,16(s8)
80101168:	8c430000 	lw	v1,0(v0)
8010116c:	8fc20014 	lw	v0,20(s8)
80101170:	8c420000 	lw	v0,0(v0)
80101174:	00621823 	subu	v1,v1,v0
80101178:	8fc20010 	lw	v0,16(s8)
8010117c:	ac430000 	sw	v1,0(v0)
D:\MCU_WorkSpace\IntegrationTest\mcu4in_IT\function_cpus\application/main.c:356
  // *local = *local - 1;  // 2cpu-mode, change *local will cause the err cpu's value different below.
  uart_printf("chk_pass_cnt=%d,%d,%d\r\n", S0_CHK_PASS_CNT, S1_CHK_PASS_CNT, S2_CHK_PASS_CNT);
80101180:	3c024100 	lui	v0,0x4100
80101184:	34420048 	ori	v0,v0,0x48
80101188:	8c430000 	lw	v1,0(v0)
8010118c:	3c024100 	lui	v0,0x4100
80101190:	3442004c 	ori	v0,v0,0x4c
80101194:	8c440000 	lw	a0,0(v0)
80101198:	3c024100 	lui	v0,0x4100
8010119c:	34420050 	ori	v0,v0,0x50
801011a0:	8c420000 	lw	v0,0(v0)
801011a4:	00403825 	move	a3,v0
801011a8:	00803025 	move	a2,a0
801011ac:	00602825 	move	a1,v1
801011b0:	3c028010 	lui	v0,0x8010
801011b4:	24443c80 	addiu	a0,v0,15488
801011b8:	0c04094b 	jal	8010252c <uart_printf>
801011bc:	00000000 	nop
D:\MCU_WorkSpace\IntegrationTest\mcu4in_IT\function_cpus\application/main.c:359
  
  // wait for the failed cpu recovering
  Delay(5);
801011c0:	24040005 	li	a0,5
801011c4:	0c04074a 	jal	80101d28 <Delay>
801011c8:	00000000 	nop
D:\MCU_WorkSpace\IntegrationTest\mcu4in_IT\function_cpus\application/main.c:360
  EVENT_END_WITH_LABEL(11);
801011cc:	afc00020 	sw	zero,32(s8)
801011d0:	03a01025 	move	v0,sp
801011d4:	afc20020 	sw	v0,32(s8)
801011d8:	3c028012 	lui	v0,0x8012
801011dc:	3442e000 	ori	v0,v0,0xe000
801011e0:	8fc30020 	lw	v1,32(s8)
801011e4:	ac430000 	sw	v1,0(v0)
801011e8:	3c024100 	lui	v0,0x4100
801011ec:	34420034 	ori	v0,v0,0x34
801011f0:	2403000b 	li	v1,11
801011f4:	ac430000 	sw	v1,0(v0)
801011f8:	3c024100 	lui	v0,0x4100
801011fc:	3442001c 	ori	v0,v0,0x1c
80101200:	24030001 	li	v1,1
80101204:	ac430000 	sw	v1,0(v0)
80101208:	0c0406d3 	jal	80101b4c <event_delay>
8010120c:	00000000 	nop
D:\MCU_WorkSpace\IntegrationTest\mcu4in_IT\function_cpus\application/main.c:363
  
  // If recovered, here should be equal; otherwise, wait more time.
  uart_printf("chk_pass_cnt=%d,%d,%d\r\n", S0_CHK_PASS_CNT, S1_CHK_PASS_CNT, S2_CHK_PASS_CNT);
80101210:	3c024100 	lui	v0,0x4100
80101214:	34420048 	ori	v0,v0,0x48
80101218:	8c430000 	lw	v1,0(v0)
8010121c:	3c024100 	lui	v0,0x4100
80101220:	3442004c 	ori	v0,v0,0x4c
80101224:	8c440000 	lw	a0,0(v0)
80101228:	3c024100 	lui	v0,0x4100
8010122c:	34420050 	ori	v0,v0,0x50
80101230:	8c420000 	lw	v0,0(v0)
80101234:	00403825 	move	a3,v0
80101238:	00803025 	move	a2,a0
8010123c:	00602825 	move	a1,v1
80101240:	3c028010 	lui	v0,0x8010
80101244:	24443c80 	addiu	a0,v0,15488
80101248:	0c04094b 	jal	8010252c <uart_printf>
8010124c:	00000000 	nop
D:\MCU_WorkSpace\IntegrationTest\mcu4in_IT\function_cpus\application/main.c:365
  
  *common = *common - 10;
80101250:	8fc20010 	lw	v0,16(s8)
80101254:	8c420000 	lw	v0,0(v0)
80101258:	2443fff6 	addiu	v1,v0,-10
8010125c:	8fc20010 	lw	v0,16(s8)
80101260:	ac430000 	sw	v1,0(v0)
D:\MCU_WorkSpace\IntegrationTest\mcu4in_IT\function_cpus\application/main.c:366
  *local = *local - 10;
80101264:	8fc20014 	lw	v0,20(s8)
80101268:	8c420000 	lw	v0,0(v0)
8010126c:	2443fff6 	addiu	v1,v0,-10
80101270:	8fc20014 	lw	v0,20(s8)
80101274:	ac430000 	sw	v1,0(v0)
D:\MCU_WorkSpace\IntegrationTest\mcu4in_IT\function_cpus\application/main.c:367
  uart_printf("r:%d,%d\r\n", *common, *local); // 891,79
80101278:	8fc20010 	lw	v0,16(s8)
8010127c:	8c430000 	lw	v1,0(v0)
80101280:	8fc20014 	lw	v0,20(s8)
80101284:	8c420000 	lw	v0,0(v0)
80101288:	00403025 	move	a2,v0
8010128c:	00602825 	move	a1,v1
80101290:	3c028010 	lui	v0,0x8010
80101294:	24443c98 	addiu	a0,v0,15512
80101298:	0c04094b 	jal	8010252c <uart_printf>
8010129c:	00000000 	nop
D:\MCU_WorkSpace\IntegrationTest\mcu4in_IT\function_cpus\application/main.c:369

  if (scenario == 1) {
801012a0:	8fc30038 	lw	v1,56(s8)
801012a4:	24020001 	li	v0,1
801012a8:	14620005 	bne	v1,v0,801012c0 <TestOneCPUErr+0x354>
801012ac:	00000000 	nop
D:\MCU_WorkSpace\IntegrationTest\mcu4in_IT\function_cpus\application/main.c:370
    TestUARTSimpleIRQ(HM_UART0);
801012b0:	3c024000 	lui	v0,0x4000
801012b4:	3444c000 	ori	a0,v0,0xc000
801012b8:	0c0404dc 	jal	80101370 <TestUARTSimpleIRQ>
801012bc:	00000000 	nop
D:\MCU_WorkSpace\IntegrationTest\mcu4in_IT\function_cpus\application/main.c:372
  }
}
801012c0:	00000000 	nop
801012c4:	03c0e825 	move	sp,s8
801012c8:	8fbf002c 	lw	ra,44(sp)
801012cc:	8fbe0028 	lw	s8,40(sp)
801012d0:	27bd0030 	addiu	sp,sp,48
801012d4:	03e00008 	jr	ra
801012d8:	00000000 	nop

801012dc <user5_handler>:
user5_handler():
D:\MCU_WorkSpace\IntegrationTest\mcu4in_IT\function_cpus\application/main.c:377

static HM_UART_TypeDef* target_uart = NULL;
char uart_buffer_received = 0;

void user5_handler(void) {
801012dc:	27bdffe8 	addiu	sp,sp,-24
801012e0:	afbf0014 	sw	ra,20(sp)
801012e4:	afbe0010 	sw	s8,16(sp)
801012e8:	03a0f025 	move	s8,sp
D:\MCU_WorkSpace\IntegrationTest\mcu4in_IT\function_cpus\application/main.c:378
  if (UART_GetIntState(target_uart, UART_INT_RTRIG_MASK)) {
801012ec:	3c028012 	lui	v0,0x8012
801012f0:	8c4207d4 	lw	v0,2004(v0)
801012f4:	24050001 	li	a1,1
801012f8:	00402025 	move	a0,v0
801012fc:	0c040d87 	jal	8010361c <UART_GetIntState>
80101300:	00000000 	nop
80101304:	10400013 	beqz	v0,80101354 <user5_handler+0x78>
80101308:	00000000 	nop
D:\MCU_WorkSpace\IntegrationTest\mcu4in_IT\function_cpus\application/main.c:379
		uart_buffer_received = UART_PollGetChar(target_uart);
8010130c:	3c028012 	lui	v0,0x8012
80101310:	8c4207d4 	lw	v0,2004(v0)
80101314:	00402025 	move	a0,v0
80101318:	0c040d05 	jal	80103414 <UART_PollGetChar>
8010131c:	00000000 	nop
80101320:	304300ff 	andi	v1,v0,0xff
80101324:	3c028012 	lui	v0,0x8012
80101328:	a04307d0 	sb	v1,2000(v0)
D:\MCU_WorkSpace\IntegrationTest\mcu4in_IT\function_cpus\application/main.c:380
		uart_printf("uart(%x) rx get user input: %c!\r\n", target_uart, uart_buffer_received);
8010132c:	3c028012 	lui	v0,0x8012
80101330:	8c4307d4 	lw	v1,2004(v0)
80101334:	3c028012 	lui	v0,0x8012
80101338:	904207d0 	lbu	v0,2000(v0)
8010133c:	00403025 	move	a2,v0
80101340:	00602825 	move	a1,v1
80101344:	3c028010 	lui	v0,0x8010
80101348:	24443ca4 	addiu	a0,v0,15524
8010134c:	0c04094b 	jal	8010252c <uart_printf>
80101350:	00000000 	nop
D:\MCU_WorkSpace\IntegrationTest\mcu4in_IT\function_cpus\application/main.c:382
	}
}
80101354:	00000000 	nop
80101358:	03c0e825 	move	sp,s8
8010135c:	8fbf0014 	lw	ra,20(sp)
80101360:	8fbe0010 	lw	s8,16(sp)
80101364:	27bd0018 	addiu	sp,sp,24
80101368:	03e00008 	jr	ra
8010136c:	00000000 	nop

80101370 <TestUARTSimpleIRQ>:
TestUARTSimpleIRQ():
D:\MCU_WorkSpace\IntegrationTest\mcu4in_IT\function_cpus\application/main.c:384

void TestUARTSimpleIRQ(const HM_UART_TypeDef* uartx) {
80101370:	27bdffd8 	addiu	sp,sp,-40
80101374:	afbf0024 	sw	ra,36(sp)
80101378:	afbe0020 	sw	s8,32(sp)
8010137c:	03a0f025 	move	s8,sp
80101380:	afc40028 	sw	a0,40(s8)
D:\MCU_WorkSpace\IntegrationTest\mcu4in_IT\function_cpus\application/main.c:385
  if (uartx != HM_UART0 && uartx != HM_UART1){
80101384:	8fc30028 	lw	v1,40(s8)
80101388:	3c024000 	lui	v0,0x4000
8010138c:	3442c000 	ori	v0,v0,0xc000
80101390:	1062000d 	beq	v1,v0,801013c8 <TestUARTSimpleIRQ+0x58>
80101394:	00000000 	nop
D:\MCU_WorkSpace\IntegrationTest\mcu4in_IT\function_cpus\application/main.c:385 (discriminator 1)
80101398:	8fc30028 	lw	v1,40(s8)
8010139c:	3c024000 	lui	v0,0x4000
801013a0:	3442d000 	ori	v0,v0,0xd000
801013a4:	10620008 	beq	v1,v0,801013c8 <TestUARTSimpleIRQ+0x58>
801013a8:	00000000 	nop
D:\MCU_WorkSpace\IntegrationTest\mcu4in_IT\function_cpus\application/main.c:386
    uart_printf("User IRQ Test by UART(%x)_Tx is not configured, please used UART0 or UART1.", uartx);
801013ac:	8fc50028 	lw	a1,40(s8)
801013b0:	3c028010 	lui	v0,0x8010
801013b4:	24443cc8 	addiu	a0,v0,15560
801013b8:	0c04094b 	jal	8010252c <uart_printf>
801013bc:	00000000 	nop
801013c0:	1000002d 	b	80101478 <TestUARTSimpleIRQ+0x108>
801013c4:	00000000 	nop
D:\MCU_WorkSpace\IntegrationTest\mcu4in_IT\function_cpus\application/main.c:392
    return;
  }

  // Delay(1); // wait the previous print finish

  target_uart = uartx;
801013c8:	3c028012 	lui	v0,0x8012
801013cc:	8fc30028 	lw	v1,40(s8)
801013d0:	ac4307d4 	sw	v1,2004(v0)
D:\MCU_WorkSpace\IntegrationTest\mcu4in_IT\function_cpus\application/main.c:394

  UART_InitTypeDef uart_init_cfg = {
801013d4:	3c020001 	lui	v0,0x1
801013d8:	3442c200 	ori	v0,v0,0xc200
801013dc:	afc20010 	sw	v0,16(s8)
801013e0:	24020001 	li	v0,1
801013e4:	a3c20014 	sb	v0,20(s8)
801013e8:	a3c00015 	sb	zero,21(s8)
801013ec:	24020004 	li	v0,4
801013f0:	a3c20016 	sb	v0,22(s8)
801013f4:	24020001 	li	v0,1
801013f8:	a3c20017 	sb	v0,23(s8)
801013fc:	24020001 	li	v0,1
80101400:	a3c20018 	sb	v0,24(s8)
80101404:	24020001 	li	v0,1
80101408:	a3c20019 	sb	v0,25(s8)
8010140c:	a3c0001a 	sb	zero,26(s8)
80101410:	a3c0001b 	sb	zero,27(s8)
80101414:	a3c0001c 	sb	zero,28(s8)
80101418:	a3c0001d 	sb	zero,29(s8)
D:\MCU_WorkSpace\IntegrationTest\mcu4in_IT\function_cpus\application/main.c:407
			.IrdaMode = UART_DEFAULT_MODE,
			.ChannelMode = UART_NORMAL_CHANNEL,
			.ClockSelect = UART_SEL_APB_CLOCK,
			.ClockPrescalar8 = UART_CLOCK_PRESCALAR_DIS
	};
  UART_Init(target_uart, &uart_init_cfg);
8010141c:	3c028012 	lui	v0,0x8012
80101420:	8c4207d4 	lw	v0,2004(v0)
80101424:	27c30010 	addiu	v1,s8,16
80101428:	00602825 	move	a1,v1
8010142c:	00402025 	move	a0,v0
80101430:	0c040ba9 	jal	80102ea4 <UART_Init>
80101434:	00000000 	nop
D:\MCU_WorkSpace\IntegrationTest\mcu4in_IT\function_cpus\application/main.c:409

  UART_RfifoTrigger(target_uart, 1);
80101438:	3c028012 	lui	v0,0x8012
8010143c:	8c4207d4 	lw	v0,2004(v0)
80101440:	24050001 	li	a1,1
80101444:	00402025 	move	a0,v0
80101448:	0c040daf 	jal	801036bc <UART_RfifoTrigger>
8010144c:	00000000 	nop
D:\MCU_WorkSpace\IntegrationTest\mcu4in_IT\function_cpus\application/main.c:410
  UART_EnableInt(target_uart, UART_INT_RTRIG_MASK);
80101450:	3c028012 	lui	v0,0x8012
80101454:	8c4207d4 	lw	v0,2004(v0)
80101458:	24050001 	li	a1,1
8010145c:	00402025 	move	a0,v0
80101460:	0c040d6b 	jal	801035ac <UART_EnableInt>
80101464:	00000000 	nop
D:\MCU_WorkSpace\IntegrationTest\mcu4in_IT\function_cpus\application/main.c:411
  uart_printf("Wait...\r\n");
80101468:	3c028010 	lui	v0,0x8010
8010146c:	24443d14 	addiu	a0,v0,15636
80101470:	0c04094b 	jal	8010252c <uart_printf>
80101474:	00000000 	nop
D:\MCU_WorkSpace\IntegrationTest\mcu4in_IT\function_cpus\application/main.c:412
}
80101478:	03c0e825 	move	sp,s8
8010147c:	8fbf0024 	lw	ra,36(sp)
80101480:	8fbe0020 	lw	s8,32(sp)
80101484:	27bd0028 	addiu	sp,sp,40
80101488:	03e00008 	jr	ra
8010148c:	00000000 	nop

80101490 <TestUARTMultipleIRQ>:
TestUARTMultipleIRQ():
D:\MCU_WorkSpace\IntegrationTest\mcu4in_IT\function_cpus\application/main.c:414

void TestUARTMultipleIRQ() {
80101490:	27bdffd0 	addiu	sp,sp,-48
80101494:	afbf002c 	sw	ra,44(sp)
80101498:	afbe0028 	sw	s8,40(sp)
8010149c:	03a0f025 	move	s8,sp
D:\MCU_WorkSpace\IntegrationTest\mcu4in_IT\function_cpus\application/main.c:416
  // nest_flag = 1;
  UART_InitTypeDef uart_init_cfg = {
801014a0:	3c020001 	lui	v0,0x1
801014a4:	3442c200 	ori	v0,v0,0xc200
801014a8:	afc20014 	sw	v0,20(s8)
801014ac:	24020001 	li	v0,1
801014b0:	a3c20018 	sb	v0,24(s8)
801014b4:	a3c00019 	sb	zero,25(s8)
801014b8:	24020004 	li	v0,4
801014bc:	a3c2001a 	sb	v0,26(s8)
801014c0:	24020001 	li	v0,1
801014c4:	a3c2001b 	sb	v0,27(s8)
801014c8:	24020001 	li	v0,1
801014cc:	a3c2001c 	sb	v0,28(s8)
801014d0:	24020001 	li	v0,1
801014d4:	a3c2001d 	sb	v0,29(s8)
801014d8:	a3c0001e 	sb	zero,30(s8)
801014dc:	a3c0001f 	sb	zero,31(s8)
801014e0:	a3c00020 	sb	zero,32(s8)
801014e4:	a3c00021 	sb	zero,33(s8)
D:\MCU_WorkSpace\IntegrationTest\mcu4in_IT\function_cpus\application/main.c:429
			.IrdaMode = UART_DEFAULT_MODE,
			.ChannelMode = UART_NORMAL_CHANNEL,
			.ClockSelect = UART_SEL_APB_CLOCK,
			.ClockPrescalar8 = UART_CLOCK_PRESCALAR_DIS
	};
  UART_Init(HM_UART0, &uart_init_cfg);
801014e8:	27c20014 	addiu	v0,s8,20
801014ec:	00402825 	move	a1,v0
801014f0:	3c024000 	lui	v0,0x4000
801014f4:	3444c000 	ori	a0,v0,0xc000
801014f8:	0c040ba9 	jal	80102ea4 <UART_Init>
801014fc:	00000000 	nop
D:\MCU_WorkSpace\IntegrationTest\mcu4in_IT\function_cpus\application/main.c:430
  UART_Init(HM_UART1, &uart_init_cfg);
80101500:	27c20014 	addiu	v0,s8,20
80101504:	00402825 	move	a1,v0
80101508:	3c024000 	lui	v0,0x4000
8010150c:	3444d000 	ori	a0,v0,0xd000
80101510:	0c040ba9 	jal	80102ea4 <UART_Init>
80101514:	00000000 	nop
D:\MCU_WorkSpace\IntegrationTest\mcu4in_IT\function_cpus\application/main.c:431
  UART_TfifoTrigger(HM_UART0, 1);
80101518:	24050001 	li	a1,1
8010151c:	3c024000 	lui	v0,0x4000
80101520:	3444c000 	ori	a0,v0,0xc000
80101524:	0c040dbd 	jal	801036f4 <UART_TfifoTrigger>
80101528:	00000000 	nop
D:\MCU_WorkSpace\IntegrationTest\mcu4in_IT\function_cpus\application/main.c:432
  UART_EnableInt(HM_UART0, UART_INT_TTRIG_MASK);
8010152c:	24050400 	li	a1,1024
80101530:	3c024000 	lui	v0,0x4000
80101534:	3444c000 	ori	a0,v0,0xc000
80101538:	0c040d6b 	jal	801035ac <UART_EnableInt>
8010153c:	00000000 	nop
D:\MCU_WorkSpace\IntegrationTest\mcu4in_IT\function_cpus\application/main.c:433
  UART_TfifoTrigger(HM_UART1, 1);
80101540:	24050001 	li	a1,1
80101544:	3c024000 	lui	v0,0x4000
80101548:	3444d000 	ori	a0,v0,0xd000
8010154c:	0c040dbd 	jal	801036f4 <UART_TfifoTrigger>
80101550:	00000000 	nop
D:\MCU_WorkSpace\IntegrationTest\mcu4in_IT\function_cpus\application/main.c:434
  UART_EnableInt(HM_UART1, UART_INT_TTRIG_MASK);
80101554:	24050400 	li	a1,1024
80101558:	3c024000 	lui	v0,0x4000
8010155c:	3444d000 	ori	a0,v0,0xd000
80101560:	0c040d6b 	jal	801035ac <UART_EnableInt>
80101564:	00000000 	nop
D:\MCU_WorkSpace\IntegrationTest\mcu4in_IT\function_cpus\application/main.c:435
  for (int i = 0; i < 4; i++){
80101568:	afc00010 	sw	zero,16(s8)
8010156c:	1000000d 	b	801015a4 <TestUARTMultipleIRQ+0x114>
80101570:	00000000 	nop
D:\MCU_WorkSpace\IntegrationTest\mcu4in_IT\function_cpus\application/main.c:436 (discriminator 3)
    UART_WriteByte(HM_UART0, 'A'+i);
80101574:	8fc20010 	lw	v0,16(s8)
80101578:	304200ff 	andi	v0,v0,0xff
8010157c:	24420041 	addiu	v0,v0,65
80101580:	304200ff 	andi	v0,v0,0xff
80101584:	00402825 	move	a1,v0
80101588:	3c024000 	lui	v0,0x4000
8010158c:	3444c000 	ori	a0,v0,0xc000
80101590:	0c040d33 	jal	801034cc <UART_WriteByte>
80101594:	00000000 	nop
D:\MCU_WorkSpace\IntegrationTest\mcu4in_IT\function_cpus\application/main.c:435 (discriminator 3)
  for (int i = 0; i < 4; i++){
80101598:	8fc20010 	lw	v0,16(s8)
8010159c:	24420001 	addiu	v0,v0,1
801015a0:	afc20010 	sw	v0,16(s8)
D:\MCU_WorkSpace\IntegrationTest\mcu4in_IT\function_cpus\application/main.c:435 (discriminator 1)
801015a4:	8fc20010 	lw	v0,16(s8)
801015a8:	28420004 	slti	v0,v0,4
801015ac:	1440fff1 	bnez	v0,80101574 <TestUARTMultipleIRQ+0xe4>
801015b0:	00000000 	nop
D:\MCU_WorkSpace\IntegrationTest\mcu4in_IT\function_cpus\application/main.c:438
  }
  UART_DisableInt(HM_UART0, UART_INT_TTRIG_MASK);
801015b4:	24050400 	li	a1,1024
801015b8:	3c024000 	lui	v0,0x4000
801015bc:	3444c000 	ori	a0,v0,0xc000
801015c0:	0c040d79 	jal	801035e4 <UART_DisableInt>
801015c4:	00000000 	nop
D:\MCU_WorkSpace\IntegrationTest\mcu4in_IT\function_cpus\application/main.c:439
  UART_DisableInt(HM_UART1, UART_INT_TTRIG_MASK);
801015c8:	24050400 	li	a1,1024
801015cc:	3c024000 	lui	v0,0x4000
801015d0:	3444d000 	ori	a0,v0,0xd000
801015d4:	0c040d79 	jal	801035e4 <UART_DisableInt>
801015d8:	00000000 	nop
D:\MCU_WorkSpace\IntegrationTest\mcu4in_IT\function_cpus\application/main.c:440
}
801015dc:	00000000 	nop
801015e0:	03c0e825 	move	sp,s8
801015e4:	8fbf002c 	lw	ra,44(sp)
801015e8:	8fbe0028 	lw	s8,40(sp)
801015ec:	27bd0030 	addiu	sp,sp,48
801015f0:	03e00008 	jr	ra
801015f4:	00000000 	nop

801015f8 <main>:
main():
D:\MCU_WorkSpace\IntegrationTest\mcu4in_IT\function_cpus\application/main.c:443


int main() {
801015f8:	27bdffe8 	addiu	sp,sp,-24
801015fc:	afbf0014 	sw	ra,20(sp)
80101600:	afbe0010 	sw	s8,16(sp)
80101604:	03a0f025 	move	s8,sp
D:\MCU_WorkSpace\IntegrationTest\mcu4in_IT\function_cpus\application/main.c:452
  // TestUARTMultipleIRQ();
  // TestLabel();
  // TestSaveByCtrl();
  // TestSaveByFunc();
  // TestOneCPUErr(kCPU0, kIncContCnt, 0);  // 0don't test irq; 1: test irq.
  TestCPUVary(kVaryReset, 0);             // 0don't test irq; 1: test irq.
80101608:	00002825 	move	a1,zero
8010160c:	00002025 	move	a0,zero
80101610:	0c040329 	jal	80100ca4 <TestCPUVary>
80101614:	00000000 	nop
D:\MCU_WorkSpace\IntegrationTest\mcu4in_IT\function_cpus\application/main.c:454
  
  return 0;
80101618:	00001025 	move	v0,zero
D:\MCU_WorkSpace\IntegrationTest\mcu4in_IT\function_cpus\application/main.c:455
}
8010161c:	03c0e825 	move	sp,s8
80101620:	8fbf0014 	lw	ra,20(sp)
80101624:	8fbe0010 	lw	s8,16(sp)
80101628:	27bd0018 	addiu	sp,sp,24
8010162c:	03e00008 	jr	ra
80101630:	00000000 	nop

80101634 <pml_stack_restore>:
pml_stack_restore():
D:\MCU_WorkSpace\IntegrationTest\mcu4in_IT\function_cpus\MIPS\src/gen.S:6
#include <mips/asm.h>
#include <mips/regdef.h>
#include <mips/cpu.h>

LEAF(pml_stack_restore)
    addiu	sp,sp,-32
80101634:	27bdffe0 	addiu	sp,sp,-32
D:\MCU_WorkSpace\IntegrationTest\mcu4in_IT\function_cpus\MIPS\src/gen.S:7
	sw	ra,28(sp)
80101638:	afbf001c 	sw	ra,28(sp)
D:\MCU_WorkSpace\IntegrationTest\mcu4in_IT\function_cpus\MIPS\src/gen.S:8
	sw	s8,24(sp)
8010163c:	afbe0018 	sw	s8,24(sp)
D:\MCU_WorkSpace\IntegrationTest\mcu4in_IT\function_cpus\MIPS\src/gen.S:9
	move	s8,sp
80101640:	03a0f025 	move	s8,sp
D:\MCU_WorkSpace\IntegrationTest\mcu4in_IT\function_cpus\MIPS\src/gen.S:10
	sw	zero,16(s8)
80101644:	afc00010 	sw	zero,16(s8)
D:\MCU_WorkSpace\IntegrationTest\mcu4in_IT\function_cpus\MIPS\src/gen.S:11
	addiu s7, s8, 24
80101648:	27d70018 	addiu	s7,s8,24
D:\MCU_WorkSpace\IntegrationTest\mcu4in_IT\function_cpus\MIPS\src/gen.S:12
	lw  s6, 0(s7)
8010164c:	8ef60000 	lw	s6,0(s7)
D:\MCU_WorkSpace\IntegrationTest\mcu4in_IT\function_cpus\MIPS\src/gen.S:13
	sw	s6,16(s8)
80101650:	afd60010 	sw	s6,16(s8)
D:\MCU_WorkSpace\IntegrationTest\mcu4in_IT\function_cpus\MIPS\src/gen.S:14
	lw	a0,16(s8)
80101654:	8fc40010 	lw	a0,16(s8)
D:\MCU_WorkSpace\IntegrationTest\mcu4in_IT\function_cpus\MIPS\src/gen.S:15
	la  t0, stack_restore_helper
80101658:	3c088010 	lui	t0,0x8010
8010165c:	25081c68 	addiu	t0,t0,7272
D:\MCU_WorkSpace\IntegrationTest\mcu4in_IT\function_cpus\MIPS\src/gen.S:16
	jalr t0
80101660:	0100f809 	jalr	t0
80101664:	00000000 	nop
	...
D:\MCU_WorkSpace\IntegrationTest\mcu4in_IT\function_cpus\MIPS\src/gen.S:19
	nop
	nop
    move	sp,s8
80101670:	03c0e825 	move	sp,s8
D:\MCU_WorkSpace\IntegrationTest\mcu4in_IT\function_cpus\MIPS\src/gen.S:20
    lw	ra,28(sp)
80101674:	8fbf001c 	lw	ra,28(sp)
D:\MCU_WorkSpace\IntegrationTest\mcu4in_IT\function_cpus\MIPS\src/gen.S:21
    lw	s8,24(sp)
80101678:	8fbe0018 	lw	s8,24(sp)
D:\MCU_WorkSpace\IntegrationTest\mcu4in_IT\function_cpus\MIPS\src/gen.S:22
    addiu	sp,sp,32
8010167c:	27bd0020 	addiu	sp,sp,32
D:\MCU_WorkSpace\IntegrationTest\mcu4in_IT\function_cpus\MIPS\src/gen.S:23
    jr	ra
80101680:	03e00008 	jr	ra
80101684:	00000000 	nop
D:\MCU_WorkSpace\IntegrationTest\mcu4in_IT\function_cpus\MIPS\src/gen.S:24
    nop
80101688:	00000000 	nop

8010168c <SRAM_Init>:
SRAM_Init():
D:\MCU_WorkSpace\IntegrationTest\mcu4in_IT\function_cpus\common\src/context.c:4
#include "io_mcu.h"
#include "context.h"

void SRAM_Init(void) {
8010168c:	27bdfff8 	addiu	sp,sp,-8
80101690:	afbe0004 	sw	s8,4(sp)
80101694:	03a0f025 	move	s8,sp
D:\MCU_WorkSpace\IntegrationTest\mcu4in_IT\function_cpus\common\src/context.c:5
  if (RD_RESTORE_FROM_CHECKER == 0) { // the first bootup
80101698:	3c024100 	lui	v0,0x4100
8010169c:	34420020 	ori	v0,v0,0x20
801016a0:	8c420000 	lw	v0,0(v0)
801016a4:	14400008 	bnez	v0,801016c8 <SRAM_Init+0x3c>
801016a8:	00000000 	nop
D:\MCU_WorkSpace\IntegrationTest\mcu4in_IT\function_cpus\common\src/context.c:6
    LOC_SRAM_OFF = 4;
801016ac:	3c028012 	lui	v0,0x8012
801016b0:	3442c000 	ori	v0,v0,0xc000
801016b4:	24030004 	li	v1,4
801016b8:	ac430000 	sw	v1,0(v0)
D:\MCU_WorkSpace\IntegrationTest\mcu4in_IT\function_cpus\common\src/context.c:7
    COM_SRAM_OFF = 4;
801016bc:	3c024400 	lui	v0,0x4400
801016c0:	24030004 	li	v1,4
801016c4:	ac430000 	sw	v1,0(v0)
D:\MCU_WorkSpace\IntegrationTest\mcu4in_IT\function_cpus\common\src/context.c:9
  }
}
801016c8:	00000000 	nop
801016cc:	03c0e825 	move	sp,s8
801016d0:	8fbe0004 	lw	s8,4(sp)
801016d4:	27bd0008 	addiu	sp,sp,8
801016d8:	03e00008 	jr	ra
801016dc:	00000000 	nop

801016e0 <GetLabelAddr>:
GetLabelAddr():
D:\MCU_WorkSpace\IntegrationTest\mcu4in_IT\function_cpus\common\src/context.c:11

void GetLabelAddr(unsigned int event_id, unsigned** plad){
801016e0:	27bdfff0 	addiu	sp,sp,-16
801016e4:	afbe000c 	sw	s8,12(sp)
801016e8:	03a0f025 	move	s8,sp
801016ec:	afc40010 	sw	a0,16(s8)
801016f0:	afc50014 	sw	a1,20(s8)
D:\MCU_WorkSpace\IntegrationTest\mcu4in_IT\function_cpus\common\src/context.c:15
  // unsigned int event_id = OTHER_CPU1_EVENT_INDEX;
  extern char __label_start__[];
  extern char __label_end__[];
  unsigned pair_size = (__label_end__ - __label_start__) >> 3;
801016f4:	3c028010 	lui	v0,0x8010
801016f8:	24434058 	addiu	v1,v0,16472
801016fc:	3c028010 	lui	v0,0x8010
80101700:	24423ff8 	addiu	v0,v0,16376
80101704:	00621023 	subu	v0,v1,v0
80101708:	000210c3 	sra	v0,v0,0x3
8010170c:	afc20004 	sw	v0,4(s8)
D:\MCU_WorkSpace\IntegrationTest\mcu4in_IT\function_cpus\common\src/context.c:16
  if(event_id > pair_size){
80101710:	8fc30010 	lw	v1,16(s8)
80101714:	8fc20004 	lw	v0,4(s8)
80101718:	0043102b 	sltu	v0,v0,v1
8010171c:	14400020 	bnez	v0,801017a0 <GetLabelAddr+0xc0>
80101720:	00000000 	nop
D:\MCU_WorkSpace\IntegrationTest\mcu4in_IT\function_cpus\common\src/context.c:20
    return;
  }

  unsigned* target_addr = (unsigned*)__label_start__;
80101724:	3c028010 	lui	v0,0x8010
80101728:	24423ff8 	addiu	v0,v0,16376
8010172c:	afc20000 	sw	v0,0(s8)
D:\MCU_WorkSpace\IntegrationTest\mcu4in_IT\function_cpus\common\src/context.c:22
  // target_addr = target_addr + event_id * 2 + 1; // Be carefulevent_id in lst file isn't incremental.
  while(target_addr < (unsigned*)__label_end__) {
80101730:	1000000e 	b	8010176c <GetLabelAddr+0x8c>
80101734:	00000000 	nop
D:\MCU_WorkSpace\IntegrationTest\mcu4in_IT\function_cpus\common\src/context.c:23
    if(*target_addr == event_id){
80101738:	8fc20000 	lw	v0,0(s8)
8010173c:	8c420000 	lw	v0,0(v0)
80101740:	8fc30010 	lw	v1,16(s8)
80101744:	14620006 	bne	v1,v0,80101760 <GetLabelAddr+0x80>
80101748:	00000000 	nop
D:\MCU_WorkSpace\IntegrationTest\mcu4in_IT\function_cpus\common\src/context.c:24
      target_addr++;
8010174c:	8fc20000 	lw	v0,0(s8)
80101750:	24420004 	addiu	v0,v0,4
80101754:	afc20000 	sw	v0,0(s8)
D:\MCU_WorkSpace\IntegrationTest\mcu4in_IT\function_cpus\common\src/context.c:25
      break;
80101758:	1000000a 	b	80101784 <GetLabelAddr+0xa4>
8010175c:	00000000 	nop
D:\MCU_WorkSpace\IntegrationTest\mcu4in_IT\function_cpus\common\src/context.c:27
    }
    target_addr += 2;
80101760:	8fc20000 	lw	v0,0(s8)
80101764:	24420008 	addiu	v0,v0,8
80101768:	afc20000 	sw	v0,0(s8)
D:\MCU_WorkSpace\IntegrationTest\mcu4in_IT\function_cpus\common\src/context.c:22
  while(target_addr < (unsigned*)__label_end__) {
8010176c:	8fc30000 	lw	v1,0(s8)
80101770:	3c028010 	lui	v0,0x8010
80101774:	24424058 	addiu	v0,v0,16472
80101778:	0062102b 	sltu	v0,v1,v0
8010177c:	1440ffee 	bnez	v0,80101738 <GetLabelAddr+0x58>
80101780:	00000000 	nop
D:\MCU_WorkSpace\IntegrationTest\mcu4in_IT\function_cpus\common\src/context.c:29
  }
  *plad = *(volatile unsigned *)target_addr;
80101784:	8fc20000 	lw	v0,0(s8)
80101788:	8c420000 	lw	v0,0(v0)
8010178c:	00401825 	move	v1,v0
80101790:	8fc20014 	lw	v0,20(s8)
80101794:	ac430000 	sw	v1,0(v0)
80101798:	10000002 	b	801017a4 <GetLabelAddr+0xc4>
8010179c:	00000000 	nop
D:\MCU_WorkSpace\IntegrationTest\mcu4in_IT\function_cpus\common\src/context.c:17
    return;
801017a0:	00000000 	nop
D:\MCU_WorkSpace\IntegrationTest\mcu4in_IT\function_cpus\common\src/context.c:30
}
801017a4:	03c0e825 	move	sp,s8
801017a8:	8fbe000c 	lw	s8,12(sp)
801017ac:	27bd0010 	addiu	sp,sp,16
801017b0:	03e00008 	jr	ra
801017b4:	00000000 	nop

801017b8 <pml_com_malloc>:
pml_com_malloc():
D:\MCU_WorkSpace\IntegrationTest\mcu4in_IT\function_cpus\common\src/context.c:32

unsigned pml_com_malloc(int length) {
801017b8:	27bdfff0 	addiu	sp,sp,-16
801017bc:	afbe000c 	sw	s8,12(sp)
801017c0:	03a0f025 	move	s8,sp
801017c4:	afc40010 	sw	a0,16(s8)
D:\MCU_WorkSpace\IntegrationTest\mcu4in_IT\function_cpus\common\src/context.c:33
  if (COM_SRAM_OFF + length > COM_SRAM_USRE_SIZE){
801017c8:	3c024400 	lui	v0,0x4400
801017cc:	8c430000 	lw	v1,0(v0)
801017d0:	8fc20010 	lw	v0,16(s8)
801017d4:	00621821 	addu	v1,v1,v0
801017d8:	34028001 	li	v0,0x8001
801017dc:	0062102b 	sltu	v0,v1,v0
801017e0:	14400004 	bnez	v0,801017f4 <pml_com_malloc+0x3c>
801017e4:	00000000 	nop
D:\MCU_WorkSpace\IntegrationTest\mcu4in_IT\function_cpus\common\src/context.c:34
    return 0;
801017e8:	00001025 	move	v0,zero
801017ec:	1000000d 	b	80101824 <pml_com_malloc+0x6c>
801017f0:	00000000 	nop
D:\MCU_WorkSpace\IntegrationTest\mcu4in_IT\function_cpus\common\src/context.c:37
  }

  unsigned offset = COM_SRAM_OFF;
801017f4:	3c024400 	lui	v0,0x4400
801017f8:	8c420000 	lw	v0,0(v0)
801017fc:	afc20000 	sw	v0,0(s8)
D:\MCU_WorkSpace\IntegrationTest\mcu4in_IT\function_cpus\common\src/context.c:38
  COM_SRAM_OFF += length;
80101800:	3c024400 	lui	v0,0x4400
80101804:	8c440000 	lw	a0,0(v0)
80101808:	8fc30010 	lw	v1,16(s8)
8010180c:	3c024400 	lui	v0,0x4400
80101810:	00831821 	addu	v1,a0,v1
80101814:	ac430000 	sw	v1,0(v0)
D:\MCU_WorkSpace\IntegrationTest\mcu4in_IT\function_cpus\common\src/context.c:40

  return (COM_SRAM_BASEADDR + offset);
80101818:	8fc30000 	lw	v1,0(s8)
8010181c:	3c024400 	lui	v0,0x4400
80101820:	00621021 	addu	v0,v1,v0
D:\MCU_WorkSpace\IntegrationTest\mcu4in_IT\function_cpus\common\src/context.c:41
}
80101824:	03c0e825 	move	sp,s8
80101828:	8fbe000c 	lw	s8,12(sp)
8010182c:	27bd0010 	addiu	sp,sp,16
80101830:	03e00008 	jr	ra
80101834:	00000000 	nop

80101838 <pml_loc_malloc>:
pml_loc_malloc():
D:\MCU_WorkSpace\IntegrationTest\mcu4in_IT\function_cpus\common\src/context.c:43

unsigned pml_loc_malloc(int length) {
80101838:	27bdfff0 	addiu	sp,sp,-16
8010183c:	afbe000c 	sw	s8,12(sp)
80101840:	03a0f025 	move	s8,sp
80101844:	afc40010 	sw	a0,16(s8)
D:\MCU_WorkSpace\IntegrationTest\mcu4in_IT\function_cpus\common\src/context.c:44
  if (LOC_SRAM_OFF + length > LOC_SRAM_USRE_SIZE){
80101848:	3c028012 	lui	v0,0x8012
8010184c:	3442c000 	ori	v0,v0,0xc000
80101850:	8c430000 	lw	v1,0(v0)
80101854:	8fc20010 	lw	v0,16(s8)
80101858:	00621021 	addu	v0,v1,v0
8010185c:	2c421001 	sltiu	v0,v0,4097
80101860:	14400004 	bnez	v0,80101874 <pml_loc_malloc+0x3c>
80101864:	00000000 	nop
D:\MCU_WorkSpace\IntegrationTest\mcu4in_IT\function_cpus\common\src/context.c:45
    return 0;
80101868:	00001025 	move	v0,zero
8010186c:	10000011 	b	801018b4 <pml_loc_malloc+0x7c>
80101870:	00000000 	nop
D:\MCU_WorkSpace\IntegrationTest\mcu4in_IT\function_cpus\common\src/context.c:48
  }

  unsigned offset = LOC_SRAM_OFF;
80101874:	3c028012 	lui	v0,0x8012
80101878:	3442c000 	ori	v0,v0,0xc000
8010187c:	8c420000 	lw	v0,0(v0)
80101880:	afc20000 	sw	v0,0(s8)
D:\MCU_WorkSpace\IntegrationTest\mcu4in_IT\function_cpus\common\src/context.c:49
  LOC_SRAM_OFF += length;
80101884:	3c028012 	lui	v0,0x8012
80101888:	3442c000 	ori	v0,v0,0xc000
8010188c:	8c440000 	lw	a0,0(v0)
80101890:	8fc30010 	lw	v1,16(s8)
80101894:	3c028012 	lui	v0,0x8012
80101898:	3442c000 	ori	v0,v0,0xc000
8010189c:	00831821 	addu	v1,a0,v1
801018a0:	ac430000 	sw	v1,0(v0)
D:\MCU_WorkSpace\IntegrationTest\mcu4in_IT\function_cpus\common\src/context.c:51

  return (LOC_SRAM_BASEADDR + offset);
801018a4:	8fc30000 	lw	v1,0(s8)
801018a8:	3c028012 	lui	v0,0x8012
801018ac:	3442c000 	ori	v0,v0,0xc000
801018b0:	00621021 	addu	v0,v1,v0
D:\MCU_WorkSpace\IntegrationTest\mcu4in_IT\function_cpus\common\src/context.c:52
}
801018b4:	03c0e825 	move	sp,s8
801018b8:	8fbe000c 	lw	s8,12(sp)
801018bc:	27bd0010 	addiu	sp,sp,16
801018c0:	03e00008 	jr	ra
801018c4:	00000000 	nop

801018c8 <pml_save_inc>:
pml_save_inc():
D:\MCU_WorkSpace\IntegrationTest\mcu4in_IT\function_cpus\common\src/context.c:54

void pml_save_inc(unsigned int* src, unsigned int* dest, unsigned int len){
801018c8:	27bdfff0 	addiu	sp,sp,-16
801018cc:	afbe000c 	sw	s8,12(sp)
801018d0:	03a0f025 	move	s8,sp
801018d4:	afc40010 	sw	a0,16(s8)
801018d8:	afc50014 	sw	a1,20(s8)
801018dc:	afc60018 	sw	a2,24(s8)
D:\MCU_WorkSpace\IntegrationTest\mcu4in_IT\function_cpus\common\src/context.c:55
  for (unsigned int i = 0; i < len; i++) {
801018e0:	afc00000 	sw	zero,0(s8)
801018e4:	1000000e 	b	80101920 <pml_save_inc+0x58>
801018e8:	00000000 	nop
D:\MCU_WorkSpace\IntegrationTest\mcu4in_IT\function_cpus\common\src/context.c:56 (discriminator 3)
    *dest = *src;
801018ec:	8fc20010 	lw	v0,16(s8)
801018f0:	8c430000 	lw	v1,0(v0)
801018f4:	8fc20014 	lw	v0,20(s8)
801018f8:	ac430000 	sw	v1,0(v0)
D:\MCU_WorkSpace\IntegrationTest\mcu4in_IT\function_cpus\common\src/context.c:57 (discriminator 3)
    src++;
801018fc:	8fc20010 	lw	v0,16(s8)
80101900:	24420004 	addiu	v0,v0,4
80101904:	afc20010 	sw	v0,16(s8)
D:\MCU_WorkSpace\IntegrationTest\mcu4in_IT\function_cpus\common\src/context.c:58 (discriminator 3)
    dest++;
80101908:	8fc20014 	lw	v0,20(s8)
8010190c:	24420004 	addiu	v0,v0,4
80101910:	afc20014 	sw	v0,20(s8)
D:\MCU_WorkSpace\IntegrationTest\mcu4in_IT\function_cpus\common\src/context.c:55 (discriminator 3)
  for (unsigned int i = 0; i < len; i++) {
80101914:	8fc20000 	lw	v0,0(s8)
80101918:	24420001 	addiu	v0,v0,1
8010191c:	afc20000 	sw	v0,0(s8)
D:\MCU_WorkSpace\IntegrationTest\mcu4in_IT\function_cpus\common\src/context.c:55 (discriminator 1)
80101920:	8fc30000 	lw	v1,0(s8)
80101924:	8fc20018 	lw	v0,24(s8)
80101928:	0062102b 	sltu	v0,v1,v0
8010192c:	1440ffef 	bnez	v0,801018ec <pml_save_inc+0x24>
80101930:	00000000 	nop
	...
D:\MCU_WorkSpace\IntegrationTest\mcu4in_IT\function_cpus\common\src/context.c:60
  }
}
8010193c:	03c0e825 	move	sp,s8
80101940:	8fbe000c 	lw	s8,12(sp)
80101944:	27bd0010 	addiu	sp,sp,16
80101948:	03e00008 	jr	ra
8010194c:	00000000 	nop

80101950 <pml_save_dec>:
pml_save_dec():
D:\MCU_WorkSpace\IntegrationTest\mcu4in_IT\function_cpus\common\src/context.c:62

void pml_save_dec(unsigned int* src, unsigned int* dest, unsigned int len){
80101950:	27bdfff0 	addiu	sp,sp,-16
80101954:	afbe000c 	sw	s8,12(sp)
80101958:	03a0f025 	move	s8,sp
8010195c:	afc40010 	sw	a0,16(s8)
80101960:	afc50014 	sw	a1,20(s8)
80101964:	afc60018 	sw	a2,24(s8)
D:\MCU_WorkSpace\IntegrationTest\mcu4in_IT\function_cpus\common\src/context.c:63
  for (unsigned int i = 0; i < len; i++) {
80101968:	afc00000 	sw	zero,0(s8)
8010196c:	1000000e 	b	801019a8 <pml_save_dec+0x58>
80101970:	00000000 	nop
D:\MCU_WorkSpace\IntegrationTest\mcu4in_IT\function_cpus\common\src/context.c:64 (discriminator 3)
    *dest = *src;
80101974:	8fc20010 	lw	v0,16(s8)
80101978:	8c430000 	lw	v1,0(v0)
8010197c:	8fc20014 	lw	v0,20(s8)
80101980:	ac430000 	sw	v1,0(v0)
D:\MCU_WorkSpace\IntegrationTest\mcu4in_IT\function_cpus\common\src/context.c:65 (discriminator 3)
    src--;
80101984:	8fc20010 	lw	v0,16(s8)
80101988:	2442fffc 	addiu	v0,v0,-4
8010198c:	afc20010 	sw	v0,16(s8)
D:\MCU_WorkSpace\IntegrationTest\mcu4in_IT\function_cpus\common\src/context.c:66 (discriminator 3)
    dest--;
80101990:	8fc20014 	lw	v0,20(s8)
80101994:	2442fffc 	addiu	v0,v0,-4
80101998:	afc20014 	sw	v0,20(s8)
D:\MCU_WorkSpace\IntegrationTest\mcu4in_IT\function_cpus\common\src/context.c:63 (discriminator 3)
  for (unsigned int i = 0; i < len; i++) {
8010199c:	8fc20000 	lw	v0,0(s8)
801019a0:	24420001 	addiu	v0,v0,1
801019a4:	afc20000 	sw	v0,0(s8)
D:\MCU_WorkSpace\IntegrationTest\mcu4in_IT\function_cpus\common\src/context.c:63 (discriminator 1)
801019a8:	8fc30000 	lw	v1,0(s8)
801019ac:	8fc20018 	lw	v0,24(s8)
801019b0:	0062102b 	sltu	v0,v1,v0
801019b4:	1440ffef 	bnez	v0,80101974 <pml_save_dec+0x24>
801019b8:	00000000 	nop
	...
D:\MCU_WorkSpace\IntegrationTest\mcu4in_IT\function_cpus\common\src/context.c:68
  }
}
801019c4:	03c0e825 	move	sp,s8
801019c8:	8fbe000c 	lw	s8,12(sp)
801019cc:	27bd0010 	addiu	sp,sp,16
801019d0:	03e00008 	jr	ra
801019d4:	00000000 	nop

801019d8 <pml_loc_save>:
pml_loc_save():
D:\MCU_WorkSpace\IntegrationTest\mcu4in_IT\function_cpus\common\src/context.c:70

void pml_loc_save(){
801019d8:	27bdffd8 	addiu	sp,sp,-40
801019dc:	afbf0024 	sw	ra,36(sp)
801019e0:	afbe0020 	sw	s8,32(sp)
801019e4:	03a0f025 	move	s8,sp
D:\MCU_WorkSpace\IntegrationTest\mcu4in_IT\function_cpus\common\src/context.c:71
  volatile int* src = LOC_SRAM_BASEADDR;
801019e8:	3c028012 	lui	v0,0x8012
801019ec:	3442c000 	ori	v0,v0,0xc000
801019f0:	afc20010 	sw	v0,16(s8)
D:\MCU_WorkSpace\IntegrationTest\mcu4in_IT\function_cpus\common\src/context.c:72
  volatile int* dest = LOC_SRAM_BASEADDR + LOC_SRAM_USRE_SIZE;
801019f4:	3c028012 	lui	v0,0x8012
801019f8:	3442d000 	ori	v0,v0,0xd000
801019fc:	afc20014 	sw	v0,20(s8)
D:\MCU_WorkSpace\IntegrationTest\mcu4in_IT\function_cpus\common\src/context.c:73
  unsigned int len = LOC_SRAM_USRE_SIZE >> 2;
80101a00:	24020400 	li	v0,1024
80101a04:	afc20018 	sw	v0,24(s8)
D:\MCU_WorkSpace\IntegrationTest\mcu4in_IT\function_cpus\common\src/context.c:74
  pml_save_inc(src, dest, len);
80101a08:	8fc60018 	lw	a2,24(s8)
80101a0c:	8fc50014 	lw	a1,20(s8)
80101a10:	8fc40010 	lw	a0,16(s8)
80101a14:	0c040632 	jal	801018c8 <pml_save_inc>
80101a18:	00000000 	nop
D:\MCU_WorkSpace\IntegrationTest\mcu4in_IT\function_cpus\common\src/context.c:75
}
80101a1c:	00000000 	nop
80101a20:	03c0e825 	move	sp,s8
80101a24:	8fbf0024 	lw	ra,36(sp)
80101a28:	8fbe0020 	lw	s8,32(sp)
80101a2c:	27bd0028 	addiu	sp,sp,40
80101a30:	03e00008 	jr	ra
80101a34:	00000000 	nop

80101a38 <pml_loc_restore>:
pml_loc_restore():
D:\MCU_WorkSpace\IntegrationTest\mcu4in_IT\function_cpus\common\src/context.c:77

void pml_loc_restore() {
80101a38:	27bdffd8 	addiu	sp,sp,-40
80101a3c:	afbf0024 	sw	ra,36(sp)
80101a40:	afbe0020 	sw	s8,32(sp)
80101a44:	03a0f025 	move	s8,sp
D:\MCU_WorkSpace\IntegrationTest\mcu4in_IT\function_cpus\common\src/context.c:78
  volatile int* src = LOC_SRAM_BASEADDR + LOC_SRAM_USRE_SIZE;
80101a48:	3c028012 	lui	v0,0x8012
80101a4c:	3442d000 	ori	v0,v0,0xd000
80101a50:	afc20010 	sw	v0,16(s8)
D:\MCU_WorkSpace\IntegrationTest\mcu4in_IT\function_cpus\common\src/context.c:79
  volatile int* dest = LOC_SRAM_BASEADDR;
80101a54:	3c028012 	lui	v0,0x8012
80101a58:	3442c000 	ori	v0,v0,0xc000
80101a5c:	afc20014 	sw	v0,20(s8)
D:\MCU_WorkSpace\IntegrationTest\mcu4in_IT\function_cpus\common\src/context.c:80
  unsigned int len = LOC_SRAM_USRE_SIZE >> 2;
80101a60:	24020400 	li	v0,1024
80101a64:	afc20018 	sw	v0,24(s8)
D:\MCU_WorkSpace\IntegrationTest\mcu4in_IT\function_cpus\common\src/context.c:81
  pml_save_inc(src, dest, len);
80101a68:	8fc60018 	lw	a2,24(s8)
80101a6c:	8fc50014 	lw	a1,20(s8)
80101a70:	8fc40010 	lw	a0,16(s8)
80101a74:	0c040632 	jal	801018c8 <pml_save_inc>
80101a78:	00000000 	nop
D:\MCU_WorkSpace\IntegrationTest\mcu4in_IT\function_cpus\common\src/context.c:82
}
80101a7c:	00000000 	nop
80101a80:	03c0e825 	move	sp,s8
80101a84:	8fbf0024 	lw	ra,36(sp)
80101a88:	8fbe0020 	lw	s8,32(sp)
80101a8c:	27bd0028 	addiu	sp,sp,40
80101a90:	03e00008 	jr	ra
80101a94:	00000000 	nop

80101a98 <pml_stack_save>:
pml_stack_save():
D:\MCU_WorkSpace\IntegrationTest\mcu4in_IT\function_cpus\common\src/context.c:84

void pml_stack_save() {                                                 
80101a98:	27bdffd8 	addiu	sp,sp,-40
80101a9c:	afbf0024 	sw	ra,36(sp)
80101aa0:	afbe0020 	sw	s8,32(sp)
80101aa4:	03a0f025 	move	s8,sp
D:\MCU_WorkSpace\IntegrationTest\mcu4in_IT\function_cpus\common\src/context.c:85
  volatile int* src = NULL;                         
80101aa8:	afc00010 	sw	zero,16(s8)
D:\MCU_WorkSpace\IntegrationTest\mcu4in_IT\function_cpus\common\src/context.c:87
  extern char __stack[];                            
  src = __stack;                                    
80101aac:	3c028013 	lui	v0,0x8013
80101ab0:	2442c000 	addiu	v0,v0,-16384
80101ab4:	afc20010 	sw	v0,16(s8)
D:\MCU_WorkSpace\IntegrationTest\mcu4in_IT\function_cpus\common\src/context.c:88
  src = src - 1;                                    
80101ab8:	8fc20010 	lw	v0,16(s8)
80101abc:	2442fffc 	addiu	v0,v0,-4
80101ac0:	afc20010 	sw	v0,16(s8)
D:\MCU_WorkSpace\IntegrationTest\mcu4in_IT\function_cpus\common\src/context.c:89
  volatile int* dest = STACK_SAVE_SRAM_ADDR;        
80101ac4:	3c028012 	lui	v0,0x8012
80101ac8:	3442f800 	ori	v0,v0,0xf800
80101acc:	afc20014 	sw	v0,20(s8)
D:\MCU_WorkSpace\IntegrationTest\mcu4in_IT\function_cpus\common\src/context.c:90
  dest = dest + (__STACK_SIZE >> 2) - 1;                    
80101ad0:	8fc20014 	lw	v0,20(s8)
80101ad4:	244203fc 	addiu	v0,v0,1020
80101ad8:	afc20014 	sw	v0,20(s8)
D:\MCU_WorkSpace\IntegrationTest\mcu4in_IT\function_cpus\common\src/context.c:91
  unsigned int len = (unsigned int)__stack - CHK_POINT_SP;
80101adc:	3c028013 	lui	v0,0x8013
80101ae0:	2443c000 	addiu	v1,v0,-16384
80101ae4:	3c028012 	lui	v0,0x8012
80101ae8:	3442e000 	ori	v0,v0,0xe000
80101aec:	8c420000 	lw	v0,0(v0)
80101af0:	00621023 	subu	v0,v1,v0
80101af4:	afc20018 	sw	v0,24(s8)
D:\MCU_WorkSpace\IntegrationTest\mcu4in_IT\function_cpus\common\src/context.c:92
  unsigned int off = (4 - (len % 4)) % 4;           
80101af8:	8fc20018 	lw	v0,24(s8)
80101afc:	00021023 	negu	v0,v0
80101b00:	30420003 	andi	v0,v0,0x3
80101b04:	afc2001c 	sw	v0,28(s8)
D:\MCU_WorkSpace\IntegrationTest\mcu4in_IT\function_cpus\common\src/context.c:93
  len = (len + off) >> 2;                           
80101b08:	8fc30018 	lw	v1,24(s8)
80101b0c:	8fc2001c 	lw	v0,28(s8)
80101b10:	00621021 	addu	v0,v1,v0
80101b14:	00021082 	srl	v0,v0,0x2
80101b18:	afc20018 	sw	v0,24(s8)
D:\MCU_WorkSpace\IntegrationTest\mcu4in_IT\function_cpus\common\src/context.c:94
  pml_save_dec(src, dest, len);                     
80101b1c:	8fc60018 	lw	a2,24(s8)
80101b20:	8fc50014 	lw	a1,20(s8)
80101b24:	8fc40010 	lw	a0,16(s8)
80101b28:	0c040654 	jal	80101950 <pml_save_dec>
80101b2c:	00000000 	nop
D:\MCU_WorkSpace\IntegrationTest\mcu4in_IT\function_cpus\common\src/context.c:95
}
80101b30:	00000000 	nop
80101b34:	03c0e825 	move	sp,s8
80101b38:	8fbf0024 	lw	ra,36(sp)
80101b3c:	8fbe0020 	lw	s8,32(sp)
80101b40:	27bd0028 	addiu	sp,sp,40
80101b44:	03e00008 	jr	ra
80101b48:	00000000 	nop

80101b4c <event_delay>:
event_delay():
D:\MCU_WorkSpace\IntegrationTest\mcu4in_IT\function_cpus\common\src/context.c:97

void event_delay() {
80101b4c:	27bdfff8 	addiu	sp,sp,-8
80101b50:	afbe0004 	sw	s8,4(sp)
80101b54:	03a0f025 	move	s8,sp
	...
D:\MCU_WorkSpace\IntegrationTest\mcu4in_IT\function_cpus\common\src/context.c:128
  __asm volatile("nop"); 
  __asm volatile("nop"); 
  __asm volatile("nop"); 
  __asm volatile("nop"); 
  __asm volatile("nop"); // 30
}
80101bd4:	03c0e825 	move	sp,s8
80101bd8:	8fbe0004 	lw	s8,4(sp)
80101bdc:	27bd0008 	addiu	sp,sp,8
80101be0:	03e00008 	jr	ra
80101be4:	00000000 	nop

80101be8 <TellSche>:
TellSche():
D:\MCU_WorkSpace\IntegrationTest\mcu4in_IT\function_cpus\common\src/context.c:130

void TellSche(unsigned k) {
80101be8:	27bdffe8 	addiu	sp,sp,-24
80101bec:	afbf0014 	sw	ra,20(sp)
80101bf0:	afbe0010 	sw	s8,16(sp)
80101bf4:	03a0f025 	move	s8,sp
80101bf8:	afc40018 	sw	a0,24(s8)
D:\MCU_WorkSpace\IntegrationTest\mcu4in_IT\function_cpus\common\src/context.c:131
  *(volatile unsigned *)(TEL_ADDR - 4) = k;
80101bfc:	3c028012 	lui	v0,0x8012
80101c00:	3442f3fc 	ori	v0,v0,0xf3fc
80101c04:	8fc30018 	lw	v1,24(s8)
80101c08:	ac430000 	sw	v1,0(v0)
D:\MCU_WorkSpace\IntegrationTest\mcu4in_IT\function_cpus\common\src/context.c:132
  while (*(volatile unsigned *)(TEL_ADDR - 8) == 0){
80101c0c:	10000004 	b	80101c20 <TellSche+0x38>
80101c10:	00000000 	nop
D:\MCU_WorkSpace\IntegrationTest\mcu4in_IT\function_cpus\common\src/context.c:133
    Delay(1);
80101c14:	24040001 	li	a0,1
80101c18:	0c04074a 	jal	80101d28 <Delay>
80101c1c:	00000000 	nop
D:\MCU_WorkSpace\IntegrationTest\mcu4in_IT\function_cpus\common\src/context.c:132
  while (*(volatile unsigned *)(TEL_ADDR - 8) == 0){
80101c20:	3c028012 	lui	v0,0x8012
80101c24:	3442f3f8 	ori	v0,v0,0xf3f8
80101c28:	8c420000 	lw	v0,0(v0)
80101c2c:	1040fff9 	beqz	v0,80101c14 <TellSche+0x2c>
80101c30:	00000000 	nop
D:\MCU_WorkSpace\IntegrationTest\mcu4in_IT\function_cpus\common\src/context.c:135
  }
  *(volatile unsigned *)(TEL_ADDR - 8) = 0; //0: unused
80101c34:	3c028012 	lui	v0,0x8012
80101c38:	3442f3f8 	ori	v0,v0,0xf3f8
80101c3c:	ac400000 	sw	zero,0(v0)
D:\MCU_WorkSpace\IntegrationTest\mcu4in_IT\function_cpus\common\src/context.c:136
  Delay(2); // let the other cpus idle
80101c40:	24040002 	li	a0,2
80101c44:	0c04074a 	jal	80101d28 <Delay>
80101c48:	00000000 	nop
D:\MCU_WorkSpace\IntegrationTest\mcu4in_IT\function_cpus\common\src/context.c:137
}
80101c4c:	00000000 	nop
80101c50:	03c0e825 	move	sp,s8
80101c54:	8fbf0014 	lw	ra,20(sp)
80101c58:	8fbe0010 	lw	s8,16(sp)
80101c5c:	27bd0018 	addiu	sp,sp,24
80101c60:	03e00008 	jr	ra
80101c64:	00000000 	nop

80101c68 <stack_restore_helper>:
stack_restore_helper():
D:\MCU_WorkSpace\IntegrationTest\mcu4in_IT\function_cpus\common\src/context.c:139

void stack_restore_helper(unsigned int result){
80101c68:	27bdffd8 	addiu	sp,sp,-40
80101c6c:	afbf0024 	sw	ra,36(sp)
80101c70:	afbe0020 	sw	s8,32(sp)
80101c74:	03a0f025 	move	s8,sp
80101c78:	afc40028 	sw	a0,40(s8)
D:\MCU_WorkSpace\IntegrationTest\mcu4in_IT\function_cpus\common\src/context.c:140
  *(volatile unsigned *)(TEL_ADDR - 40) = result;
80101c7c:	3c028012 	lui	v0,0x8012
80101c80:	3442f3d8 	ori	v0,v0,0xf3d8
80101c84:	8fc30028 	lw	v1,40(s8)
80101c88:	ac430000 	sw	v1,0(v0)
D:\MCU_WorkSpace\IntegrationTest\mcu4in_IT\function_cpus\common\src/context.c:142
  extern char __stack[];
  unsigned int len = (unsigned int)__stack - result;
80101c8c:	3c028013 	lui	v0,0x8013
80101c90:	2443c000 	addiu	v1,v0,-16384
80101c94:	8fc20028 	lw	v0,40(s8)
80101c98:	00621023 	subu	v0,v1,v0
80101c9c:	afc20010 	sw	v0,16(s8)
D:\MCU_WorkSpace\IntegrationTest\mcu4in_IT\function_cpus\common\src/context.c:144

  volatile int* src = STACK_SAVE_SRAM_ADDR;
80101ca0:	3c028012 	lui	v0,0x8012
80101ca4:	3442f800 	ori	v0,v0,0xf800
80101ca8:	afc20014 	sw	v0,20(s8)
D:\MCU_WorkSpace\IntegrationTest\mcu4in_IT\function_cpus\common\src/context.c:145
  src = src + (__STACK_SIZE >> 2) - 1;
80101cac:	8fc20014 	lw	v0,20(s8)
80101cb0:	244203fc 	addiu	v0,v0,1020
80101cb4:	afc20014 	sw	v0,20(s8)
D:\MCU_WorkSpace\IntegrationTest\mcu4in_IT\function_cpus\common\src/context.c:147

  volatile int* dest = NULL;
80101cb8:	afc00018 	sw	zero,24(s8)
D:\MCU_WorkSpace\IntegrationTest\mcu4in_IT\function_cpus\common\src/context.c:148
  dest = __stack;
80101cbc:	3c028013 	lui	v0,0x8013
80101cc0:	2442c000 	addiu	v0,v0,-16384
80101cc4:	afc20018 	sw	v0,24(s8)
D:\MCU_WorkSpace\IntegrationTest\mcu4in_IT\function_cpus\common\src/context.c:149
  dest = dest - 1;
80101cc8:	8fc20018 	lw	v0,24(s8)
80101ccc:	2442fffc 	addiu	v0,v0,-4
80101cd0:	afc20018 	sw	v0,24(s8)
D:\MCU_WorkSpace\IntegrationTest\mcu4in_IT\function_cpus\common\src/context.c:152

  
  unsigned int off = (4 - (len % 4)) % 4;                   
80101cd4:	8fc20010 	lw	v0,16(s8)
80101cd8:	00021023 	negu	v0,v0
80101cdc:	30420003 	andi	v0,v0,0x3
80101ce0:	afc2001c 	sw	v0,28(s8)
D:\MCU_WorkSpace\IntegrationTest\mcu4in_IT\function_cpus\common\src/context.c:153
  len = (len + off) >> 2;
80101ce4:	8fc30010 	lw	v1,16(s8)
80101ce8:	8fc2001c 	lw	v0,28(s8)
80101cec:	00621021 	addu	v0,v1,v0
80101cf0:	00021082 	srl	v0,v0,0x2
80101cf4:	afc20010 	sw	v0,16(s8)
D:\MCU_WorkSpace\IntegrationTest\mcu4in_IT\function_cpus\common\src/context.c:155

  pml_save_dec(src, dest, len);                               
80101cf8:	8fc60010 	lw	a2,16(s8)
80101cfc:	8fc50018 	lw	a1,24(s8)
80101d00:	8fc40014 	lw	a0,20(s8)
80101d04:	0c040654 	jal	80101950 <pml_save_dec>
80101d08:	00000000 	nop
D:\MCU_WorkSpace\IntegrationTest\mcu4in_IT\function_cpus\common\src/context.c:156
}
80101d0c:	00000000 	nop
80101d10:	03c0e825 	move	sp,s8
80101d14:	8fbf0024 	lw	ra,36(sp)
80101d18:	8fbe0020 	lw	s8,32(sp)
80101d1c:	27bd0028 	addiu	sp,sp,40
80101d20:	03e00008 	jr	ra
80101d24:	00000000 	nop

80101d28 <Delay>:
Delay():
D:\MCU_WorkSpace\IntegrationTest\mcu4in_IT\function_cpus\common\src/delay.c:3
#include "delay.h"
//////////////////////////////////////////////FPGA
void Delay(volatile unsigned int temp) {
80101d28:	27bdffe8 	addiu	sp,sp,-24
80101d2c:	afbe0014 	sw	s8,20(sp)
80101d30:	03a0f025 	move	s8,sp
80101d34:	afc40018 	sw	a0,24(s8)
D:\MCU_WorkSpace\IntegrationTest\mcu4in_IT\function_cpus\common\src/delay.c:6
  volatile unsigned int j;
  volatile unsigned int i;
  unsigned int ratio = 0;
80101d38:	afc00000 	sw	zero,0(s8)
D:\MCU_WorkSpace\IntegrationTest\mcu4in_IT\function_cpus\common\src/delay.c:8
  #ifdef TARGET_MIPS
    ratio = 120;
80101d3c:	24020078 	li	v0,120
80101d40:	afc20000 	sw	v0,0(s8)
D:\MCU_WorkSpace\IntegrationTest\mcu4in_IT\function_cpus\common\src/delay.c:16
#elif TARGET_RISCV
    ratio = 200;
#endif
  // for (j = 0; j < 3000000; j++) {
  //   for (i = 0; i < temp; i++) {
  for (j = 0; j < 3000; j++) {
80101d44:	afc00004 	sw	zero,4(s8)
80101d48:	10000012 	b	80101d94 <Delay+0x6c>
80101d4c:	00000000 	nop
D:\MCU_WorkSpace\IntegrationTest\mcu4in_IT\function_cpus\common\src/delay.c:17
    for (i = 0; i < ratio * temp; i++) {
80101d50:	afc00008 	sw	zero,8(s8)
80101d54:	10000005 	b	80101d6c <Delay+0x44>
80101d58:	00000000 	nop
D:\MCU_WorkSpace\IntegrationTest\mcu4in_IT\function_cpus\common\src/delay.c:18 (discriminator 3)
      __asm volatile("nop");
80101d5c:	00000000 	nop
D:\MCU_WorkSpace\IntegrationTest\mcu4in_IT\function_cpus\common\src/delay.c:17 (discriminator 3)
    for (i = 0; i < ratio * temp; i++) {
80101d60:	8fc20008 	lw	v0,8(s8)
80101d64:	24420001 	addiu	v0,v0,1
80101d68:	afc20008 	sw	v0,8(s8)
D:\MCU_WorkSpace\IntegrationTest\mcu4in_IT\function_cpus\common\src/delay.c:17 (discriminator 1)
80101d6c:	8fc30018 	lw	v1,24(s8)
80101d70:	8fc20000 	lw	v0,0(s8)
80101d74:	70621802 	mul	v1,v1,v0
80101d78:	8fc20008 	lw	v0,8(s8)
80101d7c:	0043102b 	sltu	v0,v0,v1
80101d80:	1440fff6 	bnez	v0,80101d5c <Delay+0x34>
80101d84:	00000000 	nop
D:\MCU_WorkSpace\IntegrationTest\mcu4in_IT\function_cpus\common\src/delay.c:16 (discriminator 2)
  for (j = 0; j < 3000; j++) {
80101d88:	8fc20004 	lw	v0,4(s8)
80101d8c:	24420001 	addiu	v0,v0,1
80101d90:	afc20004 	sw	v0,4(s8)
D:\MCU_WorkSpace\IntegrationTest\mcu4in_IT\function_cpus\common\src/delay.c:16 (discriminator 1)
80101d94:	8fc20004 	lw	v0,4(s8)
80101d98:	2c420bb8 	sltiu	v0,v0,3000
80101d9c:	1440ffec 	bnez	v0,80101d50 <Delay+0x28>
80101da0:	00000000 	nop
	...
D:\MCU_WorkSpace\IntegrationTest\mcu4in_IT\function_cpus\common\src/delay.c:21
    }
  }
}
80101dac:	03c0e825 	move	sp,s8
80101db0:	8fbe0014 	lw	s8,20(sp)
80101db4:	27bd0018 	addiu	sp,sp,24
80101db8:	03e00008 	jr	ra
80101dbc:	00000000 	nop

80101dc0 <Resource_Init>:
Resource_Init():
D:\MCU_WorkSpace\IntegrationTest\mcu4in_IT\function_cpus\common\src/driver_common.c:3
#include "driver_common.h"
#include "delay.h"
void Resource_Init(void) {
80101dc0:	27bdffe8 	addiu	sp,sp,-24
80101dc4:	afbf0014 	sw	ra,20(sp)
80101dc8:	afbe0010 	sw	s8,16(sp)
80101dcc:	03a0f025 	move	s8,sp
D:\MCU_WorkSpace\IntegrationTest\mcu4in_IT\function_cpus\common\src/driver_common.c:4
    if (RD_RESTORE_FROM_CHECKER == 0) {
80101dd0:	3c024100 	lui	v0,0x4100
80101dd4:	34420020 	ori	v0,v0,0x20
80101dd8:	8c420000 	lw	v0,0(v0)
80101ddc:	1440000b 	bnez	v0,80101e0c <Resource_Init+0x4c>
80101de0:	00000000 	nop
D:\MCU_WorkSpace\IntegrationTest\mcu4in_IT\function_cpus\common\src/driver_common.c:5
        BOOT_FINISH_FLAG = 1;
80101de4:	3c024100 	lui	v0,0x4100
80101de8:	34420064 	ori	v0,v0,0x64
80101dec:	24030001 	li	v1,1
80101df0:	ac430000 	sw	v1,0(v0)
D:\MCU_WorkSpace\IntegrationTest\mcu4in_IT\function_cpus\common\src/driver_common.c:6
        while(START_APP_RESPONSE == 0){;}
80101df4:	00000000 	nop
D:\MCU_WorkSpace\IntegrationTest\mcu4in_IT\function_cpus\common\src/driver_common.c:6 (discriminator 1)
80101df8:	3c024100 	lui	v0,0x4100
80101dfc:	34420068 	ori	v0,v0,0x68
80101e00:	8c420000 	lw	v0,0(v0)
80101e04:	1040fffc 	beqz	v0,80101df8 <Resource_Init+0x38>
80101e08:	00000000 	nop
D:\MCU_WorkSpace\IntegrationTest\mcu4in_IT\function_cpus\common\src/driver_common.c:10
    }
    // Delay(5);

    Driver_Init();
80101e0c:	0c040792 	jal	80101e48 <Driver_Init>
80101e10:	00000000 	nop
D:\MCU_WorkSpace\IntegrationTest\mcu4in_IT\function_cpus\common\src/driver_common.c:11
    IRQ_Init();
80101e14:	0c04083a 	jal	801020e8 <IRQ_Init>
80101e18:	00000000 	nop
D:\MCU_WorkSpace\IntegrationTest\mcu4in_IT\function_cpus\common\src/driver_common.c:12
    SRAM_Init();
80101e1c:	0c0405a3 	jal	8010168c <SRAM_Init>
80101e20:	00000000 	nop
D:\MCU_WorkSpace\IntegrationTest\mcu4in_IT\function_cpus\common\src/driver_common.c:15
    // FIXME wait hardware solve it
#ifdef TARGET_MIPS
    main();
80101e24:	0c04057e 	jal	801015f8 <main>
80101e28:	00000000 	nop
D:\MCU_WorkSpace\IntegrationTest\mcu4in_IT\function_cpus\common\src/driver_common.c:17
#endif
}
80101e2c:	00000000 	nop
80101e30:	03c0e825 	move	sp,s8
80101e34:	8fbf0014 	lw	ra,20(sp)
80101e38:	8fbe0010 	lw	s8,16(sp)
80101e3c:	27bd0018 	addiu	sp,sp,24
80101e40:	03e00008 	jr	ra
80101e44:	00000000 	nop

80101e48 <Driver_Init>:
Driver_Init():
D:\MCU_WorkSpace\IntegrationTest\mcu4in_IT\function_cpus\common\src/driver_common.c:19

void Driver_Init(void){
80101e48:	27bdffe8 	addiu	sp,sp,-24
80101e4c:	afbf0014 	sw	ra,20(sp)
80101e50:	afbe0010 	sw	s8,16(sp)
80101e54:	03a0f025 	move	s8,sp
D:\MCU_WorkSpace\IntegrationTest\mcu4in_IT\function_cpus\common\src/driver_common.c:20
	if (RD_RESTORE_FROM_CHECKER == 0) {
80101e58:	3c024100 	lui	v0,0x4100
80101e5c:	34420020 	ori	v0,v0,0x20
80101e60:	8c420000 	lw	v0,0(v0)
80101e64:	14400003 	bnez	v0,80101e74 <Driver_Init+0x2c>
80101e68:	00000000 	nop
D:\MCU_WorkSpace\IntegrationTest\mcu4in_IT\function_cpus\common\src/driver_common.c:21
		uart_stdout_init();
80101e6c:	0c0408ed 	jal	801023b4 <uart_stdout_init>
80101e70:	00000000 	nop
D:\MCU_WorkSpace\IntegrationTest\mcu4in_IT\function_cpus\common\src/driver_common.c:23
	}
80101e74:	00000000 	nop
80101e78:	03c0e825 	move	sp,s8
80101e7c:	8fbf0014 	lw	ra,20(sp)
80101e80:	8fbe0010 	lw	s8,16(sp)
80101e84:	27bd0018 	addiu	sp,sp,24
80101e88:	03e00008 	jr	ra
80101e8c:	00000000 	nop

80101e90 <save_context_handler>:
save_context_handler():
D:\MCU_WorkSpace\IntegrationTest\mcu4in_IT\function_cpus\common\src/irq.c:5
#include "plic.h"
#include "io_mcu.h"
#include "uart_stdout.h"

void save_context_handler() {
80101e90:	27bdffe8 	addiu	sp,sp,-24
80101e94:	afbf0014 	sw	ra,20(sp)
80101e98:	afbe0010 	sw	s8,16(sp)
80101e9c:	03a0f025 	move	s8,sp
D:\MCU_WorkSpace\IntegrationTest\mcu4in_IT\function_cpus\common\src/irq.c:6
  INT_CLR_EN = 0;
80101ea0:	3c024100 	lui	v0,0x4100
80101ea4:	34420010 	ori	v0,v0,0x10
80101ea8:	ac400000 	sw	zero,0(v0)
D:\MCU_WorkSpace\IntegrationTest\mcu4in_IT\function_cpus\common\src/irq.c:8
  // uart_printf("\r\nsave context......");
  pml_stack_save();
80101eac:	0c0406a6 	jal	80101a98 <pml_stack_save>
80101eb0:	00000000 	nop
D:\MCU_WorkSpace\IntegrationTest\mcu4in_IT\function_cpus\common\src/irq.c:9
  pml_loc_save();
80101eb4:	0c040676 	jal	801019d8 <pml_loc_save>
80101eb8:	00000000 	nop
D:\MCU_WorkSpace\IntegrationTest\mcu4in_IT\function_cpus\common\src/irq.c:11
  // uart_printf("end.\r\n");
  SAVE_CONTEXT_FINISH = 1;
80101ebc:	3c024100 	lui	v0,0x4100
80101ec0:	34420014 	ori	v0,v0,0x14
80101ec4:	24030001 	li	v1,1
80101ec8:	ac430000 	sw	v1,0(v0)
D:\MCU_WorkSpace\IntegrationTest\mcu4in_IT\function_cpus\common\src/irq.c:12
}
80101ecc:	00000000 	nop
80101ed0:	03c0e825 	move	sp,s8
80101ed4:	8fbf0014 	lw	ra,20(sp)
80101ed8:	8fbe0010 	lw	s8,16(sp)
80101edc:	27bd0018 	addiu	sp,sp,24
80101ee0:	03e00008 	jr	ra
80101ee4:	00000000 	nop

80101ee8 <user_handle_helper>:
user_handle_helper():
D:\MCU_WorkSpace\IntegrationTest\mcu4in_IT\function_cpus\common\src/irq.c:16

// ################### vector-mode interrupt ###################
static int k = 0;
void user_handle_helper(unsigned int id) {
80101ee8:	27bdffe0 	addiu	sp,sp,-32
80101eec:	afbf001c 	sw	ra,28(sp)
80101ef0:	afbe0018 	sw	s8,24(sp)
80101ef4:	03a0f025 	move	s8,sp
80101ef8:	afc40020 	sw	a0,32(s8)
D:\MCU_WorkSpace\IntegrationTest\mcu4in_IT\function_cpus\common\src/irq.c:17
  unsigned int addr = USER_INT_CLR_ADDR + (id - 1) * USER_INT_CLR_STEP;
80101efc:	8fc30020 	lw	v1,32(s8)
80101f00:	3c021000 	lui	v0,0x1000
80101f04:	3442003f 	ori	v0,v0,0x3f
80101f08:	00621021 	addu	v0,v1,v0
80101f0c:	00021080 	sll	v0,v0,0x2
80101f10:	afc20010 	sw	v0,16(s8)
D:\MCU_WorkSpace\IntegrationTest\mcu4in_IT\function_cpus\common\src/irq.c:18
  *(unsigned int *)(addr) = 0x00;
80101f14:	8fc20010 	lw	v0,16(s8)
80101f18:	ac400000 	sw	zero,0(v0)
D:\MCU_WorkSpace\IntegrationTest\mcu4in_IT\function_cpus\common\src/irq.c:20
  
  uart_printf("[user%u_handle]\n", id);
80101f1c:	8fc50020 	lw	a1,32(s8)
80101f20:	3c028010 	lui	v0,0x8010
80101f24:	24443d20 	addiu	a0,v0,15648
80101f28:	0c04094b 	jal	8010252c <uart_printf>
80101f2c:	00000000 	nop
D:\MCU_WorkSpace\IntegrationTest\mcu4in_IT\function_cpus\common\src/irq.c:21
  k++;
80101f30:	3c028012 	lui	v0,0x8012
80101f34:	8c4207d8 	lw	v0,2008(v0)
80101f38:	24430001 	addiu	v1,v0,1
80101f3c:	3c028012 	lui	v0,0x8012
80101f40:	ac4307d8 	sw	v1,2008(v0)
D:\MCU_WorkSpace\IntegrationTest\mcu4in_IT\function_cpus\common\src/irq.c:22
}
80101f44:	00000000 	nop
80101f48:	03c0e825 	move	sp,s8
80101f4c:	8fbf001c 	lw	ra,28(sp)
80101f50:	8fbe0018 	lw	s8,24(sp)
80101f54:	27bd0020 	addiu	sp,sp,32
80101f58:	03e00008 	jr	ra
80101f5c:	00000000 	nop

80101f60 <user0_handler>:
user0_handler():
D:\MCU_WorkSpace\IntegrationTest\mcu4in_IT\function_cpus\common\src/irq.c:24

void user0_handler(void) { user_handle_helper(1); }
80101f60:	27bdffe8 	addiu	sp,sp,-24
80101f64:	afbf0014 	sw	ra,20(sp)
80101f68:	afbe0010 	sw	s8,16(sp)
80101f6c:	03a0f025 	move	s8,sp
80101f70:	24040001 	li	a0,1
80101f74:	0c0407ba 	jal	80101ee8 <user_handle_helper>
80101f78:	00000000 	nop
80101f7c:	00000000 	nop
80101f80:	03c0e825 	move	sp,s8
80101f84:	8fbf0014 	lw	ra,20(sp)
80101f88:	8fbe0010 	lw	s8,16(sp)
80101f8c:	27bd0018 	addiu	sp,sp,24
80101f90:	03e00008 	jr	ra
80101f94:	00000000 	nop

80101f98 <user1_handler>:
user1_handler():
D:\MCU_WorkSpace\IntegrationTest\mcu4in_IT\function_cpus\common\src/irq.c:25
void user1_handler(void) { user_handle_helper(2); }
80101f98:	27bdffe8 	addiu	sp,sp,-24
80101f9c:	afbf0014 	sw	ra,20(sp)
80101fa0:	afbe0010 	sw	s8,16(sp)
80101fa4:	03a0f025 	move	s8,sp
80101fa8:	24040002 	li	a0,2
80101fac:	0c0407ba 	jal	80101ee8 <user_handle_helper>
80101fb0:	00000000 	nop
80101fb4:	00000000 	nop
80101fb8:	03c0e825 	move	sp,s8
80101fbc:	8fbf0014 	lw	ra,20(sp)
80101fc0:	8fbe0010 	lw	s8,16(sp)
80101fc4:	27bd0018 	addiu	sp,sp,24
80101fc8:	03e00008 	jr	ra
80101fcc:	00000000 	nop

80101fd0 <user2_handler>:
user2_handler():
D:\MCU_WorkSpace\IntegrationTest\mcu4in_IT\function_cpus\common\src/irq.c:26
void user2_handler(void) { user_handle_helper(3); }
80101fd0:	27bdffe8 	addiu	sp,sp,-24
80101fd4:	afbf0014 	sw	ra,20(sp)
80101fd8:	afbe0010 	sw	s8,16(sp)
80101fdc:	03a0f025 	move	s8,sp
80101fe0:	24040003 	li	a0,3
80101fe4:	0c0407ba 	jal	80101ee8 <user_handle_helper>
80101fe8:	00000000 	nop
80101fec:	00000000 	nop
80101ff0:	03c0e825 	move	sp,s8
80101ff4:	8fbf0014 	lw	ra,20(sp)
80101ff8:	8fbe0010 	lw	s8,16(sp)
80101ffc:	27bd0018 	addiu	sp,sp,24
80102000:	03e00008 	jr	ra
80102004:	00000000 	nop

80102008 <user3_handler>:
user3_handler():
D:\MCU_WorkSpace\IntegrationTest\mcu4in_IT\function_cpus\common\src/irq.c:27
void user3_handler(void) { user_handle_helper(4); }
80102008:	27bdffe8 	addiu	sp,sp,-24
8010200c:	afbf0014 	sw	ra,20(sp)
80102010:	afbe0010 	sw	s8,16(sp)
80102014:	03a0f025 	move	s8,sp
80102018:	24040004 	li	a0,4
8010201c:	0c0407ba 	jal	80101ee8 <user_handle_helper>
80102020:	00000000 	nop
80102024:	00000000 	nop
80102028:	03c0e825 	move	sp,s8
8010202c:	8fbf0014 	lw	ra,20(sp)
80102030:	8fbe0010 	lw	s8,16(sp)
80102034:	27bd0018 	addiu	sp,sp,24
80102038:	03e00008 	jr	ra
8010203c:	00000000 	nop

80102040 <user4_handler>:
user4_handler():
D:\MCU_WorkSpace\IntegrationTest\mcu4in_IT\function_cpus\common\src/irq.c:28
void user4_handler(void) { user_handle_helper(5); }
80102040:	27bdffe8 	addiu	sp,sp,-24
80102044:	afbf0014 	sw	ra,20(sp)
80102048:	afbe0010 	sw	s8,16(sp)
8010204c:	03a0f025 	move	s8,sp
80102050:	24040005 	li	a0,5
80102054:	0c0407ba 	jal	80101ee8 <user_handle_helper>
80102058:	00000000 	nop
8010205c:	00000000 	nop
80102060:	03c0e825 	move	sp,s8
80102064:	8fbf0014 	lw	ra,20(sp)
80102068:	8fbe0010 	lw	s8,16(sp)
8010206c:	27bd0018 	addiu	sp,sp,24
80102070:	03e00008 	jr	ra
80102074:	00000000 	nop
user5_handler():
D:\MCU_WorkSpace\IntegrationTest\mcu4in_IT\function_cpus\common\src/irq.c:29
__attribute__((weak)) void user5_handler(void) { user_handle_helper(6); }
80102078:	27bdffe8 	addiu	sp,sp,-24
8010207c:	afbf0014 	sw	ra,20(sp)
80102080:	afbe0010 	sw	s8,16(sp)
80102084:	03a0f025 	move	s8,sp
80102088:	24040006 	li	a0,6
8010208c:	0c0407ba 	jal	80101ee8 <user_handle_helper>
80102090:	00000000 	nop
80102094:	00000000 	nop
80102098:	03c0e825 	move	sp,s8
8010209c:	8fbf0014 	lw	ra,20(sp)
801020a0:	8fbe0010 	lw	s8,16(sp)
801020a4:	27bd0018 	addiu	sp,sp,24
801020a8:	03e00008 	jr	ra
801020ac:	00000000 	nop

801020b0 <user6_handler>:
user6_handler():
D:\MCU_WorkSpace\IntegrationTest\mcu4in_IT\function_cpus\common\src/irq.c:30
__attribute__((weak)) void user6_handler(void) { user_handle_helper(7); }
801020b0:	27bdffe8 	addiu	sp,sp,-24
801020b4:	afbf0014 	sw	ra,20(sp)
801020b8:	afbe0010 	sw	s8,16(sp)
801020bc:	03a0f025 	move	s8,sp
801020c0:	24040007 	li	a0,7
801020c4:	0c0407ba 	jal	80101ee8 <user_handle_helper>
801020c8:	00000000 	nop
801020cc:	00000000 	nop
801020d0:	03c0e825 	move	sp,s8
801020d4:	8fbf0014 	lw	ra,20(sp)
801020d8:	8fbe0010 	lw	s8,16(sp)
801020dc:	27bd0018 	addiu	sp,sp,24
801020e0:	03e00008 	jr	ra
801020e4:	00000000 	nop

801020e8 <IRQ_Init>:
IRQ_Init():
D:\MCU_WorkSpace\IntegrationTest\mcu4in_IT\function_cpus\common\src/irq.c:32

void IRQ_Init(void) {
801020e8:	27bdffe8 	addiu	sp,sp,-24
801020ec:	afbf0014 	sw	ra,20(sp)
801020f0:	afbe0010 	sw	s8,16(sp)
801020f4:	03a0f025 	move	s8,sp
D:\MCU_WorkSpace\IntegrationTest\mcu4in_IT\function_cpus\common\src/irq.c:34
#ifdef TARGET_MIPS
  mips32_bicsr(SR_BEV);
801020f8:	40026000 	mfc0	v0,c0_status
801020fc:	0040f825 	move	ra,v0
80102100:	03e01025 	move	v0,ra
80102104:	0040f825 	move	ra,v0
80102108:	03e01025 	move	v0,ra
8010210c:	7c02b584 	ins	v0,zero,0x16,0x1
80102110:	40826000 	mtc0	v0,c0_status
80102114:	000000c0 	ehb
D:\MCU_WorkSpace\IntegrationTest\mcu4in_IT\function_cpus\common\src/irq.c:35
  mips32_bissr(SR_IE | SR_HINT0 | SR_HINT1);
80102118:	40026000 	mfc0	v0,c0_status
8010211c:	0040f825 	move	ra,v0
80102120:	03e01025 	move	v0,ra
80102124:	0040f825 	move	ra,v0
80102128:	37e20c01 	ori	v0,ra,0xc01
8010212c:	40826000 	mtc0	v0,c0_status
80102130:	000000c0 	ehb
D:\MCU_WorkSpace\IntegrationTest\mcu4in_IT\function_cpus\common\src/irq.c:36
  mips32_setebase(USER_CODERAM_START);
80102134:	3c028010 	lui	v0,0x8010
80102138:	40827801 	mtc0	v0,c0_ebase
8010213c:	000000c0 	ehb
D:\MCU_WorkSpace\IntegrationTest\mcu4in_IT\function_cpus\common\src/irq.c:53
  for (int i = 0; i < __CORE_INT_NUM; i++) {
    enable_irq(i);
  }
#endif

  PLIC_Init(__PLIC_INTNUM);
80102140:	24040040 	li	a0,64
80102144:	0c040b93 	jal	80102e4c <PLIC_Init>
80102148:	00000000 	nop
D:\MCU_WorkSpace\IntegrationTest\mcu4in_IT\function_cpus\common\src/irq.c:54
  PLIC_Register_IRQ(PLIC_USER0_IRQn, 1, user0_handler);
8010214c:	3c028010 	lui	v0,0x8010
80102150:	24461f60 	addiu	a2,v0,8032
80102154:	24050001 	li	a1,1
80102158:	24040001 	li	a0,1
8010215c:	0c040b16 	jal	80102c58 <PLIC_Register_IRQ>
80102160:	00000000 	nop
D:\MCU_WorkSpace\IntegrationTest\mcu4in_IT\function_cpus\common\src/irq.c:55
  PLIC_Register_IRQ(PLIC_USER1_IRQn, 1, user1_handler);
80102164:	3c028010 	lui	v0,0x8010
80102168:	24461f98 	addiu	a2,v0,8088
8010216c:	24050001 	li	a1,1
80102170:	24040002 	li	a0,2
80102174:	0c040b16 	jal	80102c58 <PLIC_Register_IRQ>
80102178:	00000000 	nop
D:\MCU_WorkSpace\IntegrationTest\mcu4in_IT\function_cpus\common\src/irq.c:56
  PLIC_Register_IRQ(PLIC_USER2_IRQn, 1, user2_handler);
8010217c:	3c028010 	lui	v0,0x8010
80102180:	24461fd0 	addiu	a2,v0,8144
80102184:	24050001 	li	a1,1
80102188:	24040003 	li	a0,3
8010218c:	0c040b16 	jal	80102c58 <PLIC_Register_IRQ>
80102190:	00000000 	nop
D:\MCU_WorkSpace\IntegrationTest\mcu4in_IT\function_cpus\common\src/irq.c:57
  PLIC_Register_IRQ(PLIC_USER3_IRQn, 1, user3_handler);
80102194:	3c028010 	lui	v0,0x8010
80102198:	24462008 	addiu	a2,v0,8200
8010219c:	24050001 	li	a1,1
801021a0:	24040004 	li	a0,4
801021a4:	0c040b16 	jal	80102c58 <PLIC_Register_IRQ>
801021a8:	00000000 	nop
D:\MCU_WorkSpace\IntegrationTest\mcu4in_IT\function_cpus\common\src/irq.c:58
  PLIC_Register_IRQ(PLIC_USER4_IRQn, 1, user4_handler);
801021ac:	3c028010 	lui	v0,0x8010
801021b0:	24462040 	addiu	a2,v0,8256
801021b4:	24050001 	li	a1,1
801021b8:	24040005 	li	a0,5
801021bc:	0c040b16 	jal	80102c58 <PLIC_Register_IRQ>
801021c0:	00000000 	nop
D:\MCU_WorkSpace\IntegrationTest\mcu4in_IT\function_cpus\common\src/irq.c:59
  PLIC_Register_IRQ(PLIC_USER5_IRQn, 2, user5_handler);
801021c4:	3c028010 	lui	v0,0x8010
801021c8:	244612dc 	addiu	a2,v0,4828
801021cc:	24050002 	li	a1,2
801021d0:	24040006 	li	a0,6
801021d4:	0c040b16 	jal	80102c58 <PLIC_Register_IRQ>
801021d8:	00000000 	nop
D:\MCU_WorkSpace\IntegrationTest\mcu4in_IT\function_cpus\common\src/irq.c:60
  PLIC_Register_IRQ(PLIC_USER6_IRQn, 3, user6_handler); // A larger number indicates a higher priority
801021dc:	3c028010 	lui	v0,0x8010
801021e0:	244620b0 	addiu	a2,v0,8368
801021e4:	24050003 	li	a1,3
801021e8:	24040007 	li	a0,7
801021ec:	0c040b16 	jal	80102c58 <PLIC_Register_IRQ>
801021f0:	00000000 	nop
D:\MCU_WorkSpace\IntegrationTest\mcu4in_IT\function_cpus\common\src/irq.c:61
}
801021f4:	00000000 	nop
801021f8:	03c0e825 	move	sp,s8
801021fc:	8fbf0014 	lw	ra,20(sp)
80102200:	8fbe0010 	lw	s8,16(sp)
80102204:	27bd0018 	addiu	sp,sp,24
80102208:	03e00008 	jr	ra
8010220c:	00000000 	nop

80102210 <_mips_general_exception>:
_mips_general_exception():
D:\MCU_WorkSpace\IntegrationTest\mcu4in_IT\function_cpus\common\src/irq.c:64

#ifdef TARGET_MIPS
void __attribute__((interrupt, keep_interrupts_masked))_mips_general_exception() {
80102210:	401b7000 	mfc0	k1,c0_epc
80102214:	27bdff88 	addiu	sp,sp,-120
80102218:	afbb0074 	sw	k1,116(sp)
8010221c:	401b6000 	mfc0	k1,c0_status
80102220:	afbb0070 	sw	k1,112(sp)
80102224:	7c1b2004 	ins	k1,zero,0x0,0x5
80102228:	0000d012 	mflo	k0
8010222c:	afba006c 	sw	k0,108(sp)
80102230:	0000d010 	mfhi	k0
80102234:	afba0068 	sw	k0,104(sp)
80102238:	409b6000 	mtc0	k1,c0_status
8010223c:	afbf0064 	sw	ra,100(sp)
80102240:	afbe0060 	sw	s8,96(sp)
80102244:	afb9005c 	sw	t9,92(sp)
80102248:	afb80058 	sw	t8,88(sp)
8010224c:	afaf0054 	sw	t7,84(sp)
80102250:	afae0050 	sw	t6,80(sp)
80102254:	afad004c 	sw	t5,76(sp)
80102258:	afac0048 	sw	t4,72(sp)
8010225c:	afab0044 	sw	t3,68(sp)
80102260:	afaa0040 	sw	t2,64(sp)
80102264:	afa9003c 	sw	t1,60(sp)
80102268:	afa80038 	sw	t0,56(sp)
8010226c:	afa70034 	sw	a3,52(sp)
80102270:	afa60030 	sw	a2,48(sp)
80102274:	afa5002c 	sw	a1,44(sp)
80102278:	afa40028 	sw	a0,40(sp)
8010227c:	afa30024 	sw	v1,36(sp)
80102280:	afa20020 	sw	v0,32(sp)
80102284:	afa1001c 	sw	at,28(sp)
80102288:	03a0f025 	move	s8,sp
D:\MCU_WorkSpace\IntegrationTest\mcu4in_IT\function_cpus\common\src/irq.c:65
  unsigned cause = mips32_getcr();  // Coprocessor 0 Cause register
8010228c:	40026800 	mfc0	v0,c0_cause
80102290:	0040f825 	move	ra,v0
80102294:	03e01025 	move	v0,ra
80102298:	afc20010 	sw	v0,16(s8)
D:\MCU_WorkSpace\IntegrationTest\mcu4in_IT\function_cpus\common\src/irq.c:66
  if ((cause & 0x7c) != 0) {
8010229c:	8fc20010 	lw	v0,16(s8)
801022a0:	3042007c 	andi	v0,v0,0x7c
801022a4:	1040000b 	beqz	v0,801022d4 <_mips_general_exception+0xc4>
801022a8:	00000000 	nop
D:\MCU_WorkSpace\IntegrationTest\mcu4in_IT\function_cpus\common\src/irq.c:67
    PERROR("MIPS exception happended, cause = %x, deadloop now!", cause);
801022ac:	8fc70010 	lw	a3,16(s8)
801022b0:	24060043 	li	a2,67
801022b4:	3c028010 	lui	v0,0x8010
801022b8:	24453d34 	addiu	a1,v0,15668
801022bc:	3c028010 	lui	v0,0x8010
801022c0:	24443d80 	addiu	a0,v0,15744
801022c4:	0c04094b 	jal	8010252c <uart_printf>
801022c8:	00000000 	nop
D:\MCU_WorkSpace\IntegrationTest\mcu4in_IT\function_cpus\common\src/irq.c:68 (discriminator 1)
    while (1) {
801022cc:	1000ffff 	b	801022cc <_mips_general_exception+0xbc>
801022d0:	00000000 	nop
D:\MCU_WorkSpace\IntegrationTest\mcu4in_IT\function_cpus\common\src/irq.c:72
      ;  // Loop forever non-interrupt exception detected
    }
  }
  if (cause & CR_HINT0) {
801022d4:	8fc20010 	lw	v0,16(s8)
801022d8:	30420400 	andi	v0,v0,0x400
801022dc:	10400005 	beqz	v0,801022f4 <_mips_general_exception+0xe4>
801022e0:	00000000 	nop
D:\MCU_WorkSpace\IntegrationTest\mcu4in_IT\function_cpus\common\src/irq.c:73
    save_context_handler();
801022e4:	0c0407a4 	jal	80101e90 <save_context_handler>
801022e8:	00000000 	nop
D:\MCU_WorkSpace\IntegrationTest\mcu4in_IT\function_cpus\common\src/irq.c:83
    while (1)
    {
      ;
    }
  }
  return;
801022ec:	10000013 	b	8010233c <_mips_general_exception+0x12c>
801022f0:	00000000 	nop
D:\MCU_WorkSpace\IntegrationTest\mcu4in_IT\function_cpus\common\src/irq.c:74
  } else if (cause & CR_HINT1) {
801022f4:	8fc20010 	lw	v0,16(s8)
801022f8:	30420800 	andi	v0,v0,0x800
801022fc:	10400005 	beqz	v0,80102314 <_mips_general_exception+0x104>
80102300:	00000000 	nop
D:\MCU_WorkSpace\IntegrationTest\mcu4in_IT\function_cpus\common\src/irq.c:75
    plic_handler();
80102304:	0c040a85 	jal	80102a14 <plic_handler>
80102308:	00000000 	nop
D:\MCU_WorkSpace\IntegrationTest\mcu4in_IT\function_cpus\common\src/irq.c:83
  return;
8010230c:	1000000b 	b	8010233c <_mips_general_exception+0x12c>
80102310:	00000000 	nop
D:\MCU_WorkSpace\IntegrationTest\mcu4in_IT\function_cpus\common\src/irq.c:77
    PERROR("MIPS interrupt id illegal, cause = %x, Dead loop...\n", cause);
80102314:	8fc70010 	lw	a3,16(s8)
80102318:	2406004d 	li	a2,77
8010231c:	3c028010 	lui	v0,0x8010
80102320:	24453d34 	addiu	a1,v0,15668
80102324:	3c028010 	lui	v0,0x8010
80102328:	24443dc8 	addiu	a0,v0,15816
8010232c:	0c04094b 	jal	8010252c <uart_printf>
80102330:	00000000 	nop
D:\MCU_WorkSpace\IntegrationTest\mcu4in_IT\function_cpus\common\src/irq.c:78 (discriminator 2)
    while (1)
80102334:	1000ffff 	b	80102334 <_mips_general_exception+0x124>
80102338:	00000000 	nop
D:\MCU_WorkSpace\IntegrationTest\mcu4in_IT\function_cpus\common\src/irq.c:84
}
8010233c:	03c0e825 	move	sp,s8
80102340:	8fba006c 	lw	k0,108(sp)
80102344:	03400013 	mtlo	k0
80102348:	8fba0068 	lw	k0,104(sp)
8010234c:	03400011 	mthi	k0
80102350:	8fbf0064 	lw	ra,100(sp)
80102354:	8fbe0060 	lw	s8,96(sp)
80102358:	8fb9005c 	lw	t9,92(sp)
8010235c:	8fb80058 	lw	t8,88(sp)
80102360:	8faf0054 	lw	t7,84(sp)
80102364:	8fae0050 	lw	t6,80(sp)
80102368:	8fad004c 	lw	t5,76(sp)
8010236c:	8fac0048 	lw	t4,72(sp)
80102370:	8fab0044 	lw	t3,68(sp)
80102374:	8faa0040 	lw	t2,64(sp)
80102378:	8fa9003c 	lw	t1,60(sp)
8010237c:	8fa80038 	lw	t0,56(sp)
80102380:	8fa70034 	lw	a3,52(sp)
80102384:	8fa60030 	lw	a2,48(sp)
80102388:	8fa5002c 	lw	a1,44(sp)
8010238c:	8fa40028 	lw	a0,40(sp)
80102390:	8fa30024 	lw	v1,36(sp)
80102394:	8fa20020 	lw	v0,32(sp)
80102398:	8fa1001c 	lw	at,28(sp)
8010239c:	8fbb0074 	lw	k1,116(sp)
801023a0:	409b7000 	mtc0	k1,c0_epc
801023a4:	8fbb0070 	lw	k1,112(sp)
801023a8:	27bd0078 	addiu	sp,sp,120
801023ac:	409b6000 	mtc0	k1,c0_status
801023b0:	42000018 	eret

801023b4 <uart_stdout_init>:
uart_stdout_init():
D:\MCU_WorkSpace\IntegrationTest\mcu4in_IT\function_cpus\common\src/uart_stdout.c:10
#define UART0_TX_PIN				(0)
#define UART0_RX_PORT				(0)
#define UART0_RX_PIN				(1)

void uart_stdout_init(void)
{    
801023b4:	27bdffd8 	addiu	sp,sp,-40
801023b8:	afbf0024 	sw	ra,36(sp)
801023bc:	afbe0020 	sw	s8,32(sp)
801023c0:	03a0f025 	move	s8,sp
D:\MCU_WorkSpace\IntegrationTest\mcu4in_IT\function_cpus\common\src/uart_stdout.c:11
	UART_InitTypeDef uart_init_cfg = {
801023c4:	3c020001 	lui	v0,0x1
801023c8:	3442c200 	ori	v0,v0,0xc200
801023cc:	afc20010 	sw	v0,16(s8)
801023d0:	24020001 	li	v0,1
801023d4:	a3c20014 	sb	v0,20(s8)
801023d8:	a3c00015 	sb	zero,21(s8)
801023dc:	24020004 	li	v0,4
801023e0:	a3c20016 	sb	v0,22(s8)
801023e4:	24020001 	li	v0,1
801023e8:	a3c20017 	sb	v0,23(s8)
801023ec:	24020001 	li	v0,1
801023f0:	a3c20018 	sb	v0,24(s8)
801023f4:	24020001 	li	v0,1
801023f8:	a3c20019 	sb	v0,25(s8)
801023fc:	a3c0001a 	sb	zero,26(s8)
80102400:	a3c0001b 	sb	zero,27(s8)
80102404:	a3c0001c 	sb	zero,28(s8)
80102408:	a3c0001d 	sb	zero,29(s8)
D:\MCU_WorkSpace\IntegrationTest\mcu4in_IT\function_cpus\common\src/uart_stdout.c:27
			.ClockPrescalar8 = UART_CLOCK_PRESCALAR_DIS
	};

	//CLKPWR_ConfigPPWR(CLKPWR_PCONP_PCUART0,ENABLE);

	UART_Init(HM_UART0, &uart_init_cfg);
8010240c:	27c20010 	addiu	v0,s8,16
80102410:	00402825 	move	a1,v0
80102414:	3c024000 	lui	v0,0x4000
80102418:	3444c000 	ori	a0,v0,0xc000
8010241c:	0c040ba9 	jal	80102ea4 <UART_Init>
80102420:	00000000 	nop
D:\MCU_WorkSpace\IntegrationTest\mcu4in_IT\function_cpus\common\src/uart_stdout.c:28
}
80102424:	00000000 	nop
80102428:	03c0e825 	move	sp,s8
8010242c:	8fbf0024 	lw	ra,36(sp)
80102430:	8fbe0020 	lw	s8,32(sp)
80102434:	27bd0028 	addiu	sp,sp,40
80102438:	03e00008 	jr	ra
8010243c:	00000000 	nop

80102440 <uart_putc>:
uart_putc():
D:\MCU_WorkSpace\IntegrationTest\mcu4in_IT\function_cpus\common\src/uart_stdout.c:38
	HM_UART0->TFIFO = ch;
	return ch;
}
#else
// #define uart_putc(data) { HM_UART0->TFIFO = (data);} // TODO just for debug, but is slow
void uart_putc(unsigned char data) {
80102440:	27bdffe8 	addiu	sp,sp,-24
80102444:	afbf0014 	sw	ra,20(sp)
80102448:	afbe0010 	sw	s8,16(sp)
8010244c:	03a0f025 	move	s8,sp
80102450:	00801025 	move	v0,a0
80102454:	a3c20018 	sb	v0,24(s8)
D:\MCU_WorkSpace\IntegrationTest\mcu4in_IT\function_cpus\common\src/uart_stdout.c:39
	UART_WriteByte(HM_UART0, data);
80102458:	93c20018 	lbu	v0,24(s8)
8010245c:	00402825 	move	a1,v0
80102460:	3c024000 	lui	v0,0x4000
80102464:	3444c000 	ori	a0,v0,0xc000
80102468:	0c040d33 	jal	801034cc <UART_WriteByte>
8010246c:	00000000 	nop
D:\MCU_WorkSpace\IntegrationTest\mcu4in_IT\function_cpus\common\src/uart_stdout.c:40
}
80102470:	00000000 	nop
80102474:	03c0e825 	move	sp,s8
80102478:	8fbf0014 	lw	ra,20(sp)
8010247c:	8fbe0010 	lw	s8,16(sp)
80102480:	27bd0018 	addiu	sp,sp,24
80102484:	03e00008 	jr	ra
80102488:	00000000 	nop

8010248c <printn>:
printn():
D:\MCU_WorkSpace\IntegrationTest\mcu4in_IT\function_cpus\common\src/uart_stdout.c:45

static const char cmap[16] = "0123456789abcdef";

static void printn(unsigned n, unsigned bas)
{
8010248c:	27bdffe0 	addiu	sp,sp,-32
80102490:	afbf001c 	sw	ra,28(sp)
80102494:	afbe0018 	sw	s8,24(sp)
80102498:	03a0f025 	move	s8,sp
8010249c:	afc40020 	sw	a0,32(s8)
801024a0:	afc50024 	sw	a1,36(s8)
D:\MCU_WorkSpace\IntegrationTest\mcu4in_IT\function_cpus\common\src/uart_stdout.c:48
	unsigned r;

	if ((r = n / bas) != 0)
801024a4:	8fc30020 	lw	v1,32(s8)
801024a8:	8fc20024 	lw	v0,36(s8)
801024ac:	004001f4 	teq	v0,zero,0x7
801024b0:	0062001b 	divu	zero,v1,v0
801024b4:	00001010 	mfhi	v0
801024b8:	00001012 	mflo	v0
801024bc:	afc20010 	sw	v0,16(s8)
801024c0:	8fc20010 	lw	v0,16(s8)
801024c4:	10400005 	beqz	v0,801024dc <printn+0x50>
801024c8:	00000000 	nop
D:\MCU_WorkSpace\IntegrationTest\mcu4in_IT\function_cpus\common\src/uart_stdout.c:49
		printn(r, bas);
801024cc:	8fc50024 	lw	a1,36(s8)
801024d0:	8fc40010 	lw	a0,16(s8)
801024d4:	0c040923 	jal	8010248c <printn>
801024d8:	00000000 	nop
D:\MCU_WorkSpace\IntegrationTest\mcu4in_IT\function_cpus\common\src/uart_stdout.c:50
	uart_putc(cmap[n % bas]);
801024dc:	8fc30020 	lw	v1,32(s8)
801024e0:	8fc20024 	lw	v0,36(s8)
801024e4:	004001f4 	teq	v0,zero,0x7
801024e8:	0062001b 	divu	zero,v1,v0
801024ec:	00001010 	mfhi	v0
801024f0:	00401825 	move	v1,v0
801024f4:	3c028010 	lui	v0,0x8010
801024f8:	24423e10 	addiu	v0,v0,15888
801024fc:	00621021 	addu	v0,v1,v0
80102500:	90420000 	lbu	v0,0(v0)
80102504:	00402025 	move	a0,v0
80102508:	0c040910 	jal	80102440 <uart_putc>
8010250c:	00000000 	nop
D:\MCU_WorkSpace\IntegrationTest\mcu4in_IT\function_cpus\common\src/uart_stdout.c:51
}
80102510:	00000000 	nop
80102514:	03c0e825 	move	sp,s8
80102518:	8fbf001c 	lw	ra,28(sp)
8010251c:	8fbe0018 	lw	s8,24(sp)
80102520:	27bd0020 	addiu	sp,sp,32
80102524:	03e00008 	jr	ra
80102528:	00000000 	nop

8010252c <uart_printf>:
uart_printf():
D:\MCU_WorkSpace\IntegrationTest\mcu4in_IT\function_cpus\common\src/uart_stdout.c:54

void uart_printf(const char *fmt, ...)
{
8010252c:	27bdffd0 	addiu	sp,sp,-48
80102530:	afbf002c 	sw	ra,44(sp)
80102534:	afbe0028 	sw	s8,40(sp)
80102538:	03a0f025 	move	s8,sp
8010253c:	afc40030 	sw	a0,48(s8)
80102540:	afc50034 	sw	a1,52(s8)
80102544:	afc60038 	sw	a2,56(s8)
80102548:	afc7003c 	sw	a3,60(s8)
D:\MCU_WorkSpace\IntegrationTest\mcu4in_IT\function_cpus\common\src/uart_stdout.c:55
	char c=0, *s=NULL;
8010254c:	a3c00014 	sb	zero,20(s8)
80102550:	afc00010 	sw	zero,16(s8)
D:\MCU_WorkSpace\IntegrationTest\mcu4in_IT\function_cpus\common\src/uart_stdout.c:56
	unsigned n=0;
80102554:	afc00018 	sw	zero,24(s8)
D:\MCU_WorkSpace\IntegrationTest\mcu4in_IT\function_cpus\common\src/uart_stdout.c:59

	va_list args;
	int t=0;
80102558:	afc0001c 	sw	zero,28(s8)
D:\MCU_WorkSpace\IntegrationTest\mcu4in_IT\function_cpus\common\src/uart_stdout.c:61

	va_start(args, fmt);
8010255c:	27c20034 	addiu	v0,s8,52
80102560:	afc20020 	sw	v0,32(s8)
D:\MCU_WorkSpace\IntegrationTest\mcu4in_IT\function_cpus\common\src/uart_stdout.c:63

	while ((c = *fmt++) != '\0') 
80102564:	100000c4 	b	80102878 <uart_printf+0x34c>
80102568:	00000000 	nop
D:\MCU_WorkSpace\IntegrationTest\mcu4in_IT\function_cpus\common\src/uart_stdout.c:65
	{
		if (c != '%') 
8010256c:	93c30014 	lbu	v1,20(s8)
80102570:	24020025 	li	v0,37
80102574:	10620007 	beq	v1,v0,80102594 <uart_printf+0x68>
80102578:	00000000 	nop
D:\MCU_WorkSpace\IntegrationTest\mcu4in_IT\function_cpus\common\src/uart_stdout.c:67
		{
			uart_putc(c);
8010257c:	93c20014 	lbu	v0,20(s8)
80102580:	00402025 	move	a0,v0
80102584:	0c040910 	jal	80102440 <uart_putc>
80102588:	00000000 	nop
D:\MCU_WorkSpace\IntegrationTest\mcu4in_IT\function_cpus\common\src/uart_stdout.c:68
			continue;
8010258c:	100000ba 	b	80102878 <uart_printf+0x34c>
80102590:	00000000 	nop
D:\MCU_WorkSpace\IntegrationTest\mcu4in_IT\function_cpus\common\src/uart_stdout.c:71
		}

		switch (c = *fmt++) 
80102594:	8fc20030 	lw	v0,48(s8)
80102598:	24430001 	addiu	v1,v0,1
8010259c:	afc30030 	sw	v1,48(s8)
801025a0:	90420000 	lbu	v0,0(v0)
801025a4:	a3c20014 	sb	v0,20(s8)
801025a8:	93c20014 	lbu	v0,20(s8)
801025ac:	2442ffa8 	addiu	v0,v0,-88
801025b0:	2c430021 	sltiu	v1,v0,33
801025b4:	106000a6 	beqz	v1,80102850 <uart_printf+0x324>
801025b8:	00000000 	nop
801025bc:	00021880 	sll	v1,v0,0x2
801025c0:	3c028010 	lui	v0,0x8010
801025c4:	24423e20 	addiu	v0,v0,15904
801025c8:	00621021 	addu	v0,v1,v0
801025cc:	8c420000 	lw	v0,0(v0)
801025d0:	00400008 	jr	v0
801025d4:	00000000 	nop
D:\MCU_WorkSpace\IntegrationTest\mcu4in_IT\function_cpus\common\src/uart_stdout.c:74
		{
			case 'o':
				t = va_arg(args, int);
801025d8:	8fc20020 	lw	v0,32(s8)
801025dc:	24430004 	addiu	v1,v0,4
801025e0:	afc30020 	sw	v1,32(s8)
801025e4:	8c420000 	lw	v0,0(v0)
801025e8:	afc2001c 	sw	v0,28(s8)
D:\MCU_WorkSpace\IntegrationTest\mcu4in_IT\function_cpus\common\src/uart_stdout.c:75
				printn(t, 8);
801025ec:	8fc2001c 	lw	v0,28(s8)
801025f0:	24050008 	li	a1,8
801025f4:	00402025 	move	a0,v0
801025f8:	0c040923 	jal	8010248c <printn>
801025fc:	00000000 	nop
D:\MCU_WorkSpace\IntegrationTest\mcu4in_IT\function_cpus\common\src/uart_stdout.c:76
				break;
80102600:	1000009d 	b	80102878 <uart_printf+0x34c>
80102604:	00000000 	nop
D:\MCU_WorkSpace\IntegrationTest\mcu4in_IT\function_cpus\common\src/uart_stdout.c:83
			case 'p':
			case 'u':
			case 'd':
			case 'i':
			case 'l':
				t = va_arg(args, int);
80102608:	8fc20020 	lw	v0,32(s8)
8010260c:	24430004 	addiu	v1,v0,4
80102610:	afc30020 	sw	v1,32(s8)
80102614:	8c420000 	lw	v0,0(v0)
80102618:	afc2001c 	sw	v0,28(s8)
D:\MCU_WorkSpace\IntegrationTest\mcu4in_IT\function_cpus\common\src/uart_stdout.c:84
				printn(t, 10);
8010261c:	8fc2001c 	lw	v0,28(s8)
80102620:	2405000a 	li	a1,10
80102624:	00402025 	move	a0,v0
80102628:	0c040923 	jal	8010248c <printn>
8010262c:	00000000 	nop
D:\MCU_WorkSpace\IntegrationTest\mcu4in_IT\function_cpus\common\src/uart_stdout.c:85
				break;
80102630:	10000091 	b	80102878 <uart_printf+0x34c>
80102634:	00000000 	nop
D:\MCU_WorkSpace\IntegrationTest\mcu4in_IT\function_cpus\common\src/uart_stdout.c:89
			//        case 'h':
			case 'x':
			case 'X':
				n = va_arg(args, unsigned int);
80102638:	8fc20020 	lw	v0,32(s8)
8010263c:	24430004 	addiu	v1,v0,4
80102640:	afc30020 	sw	v1,32(s8)
80102644:	8c420000 	lw	v0,0(v0)
80102648:	afc20018 	sw	v0,24(s8)
D:\MCU_WorkSpace\IntegrationTest\mcu4in_IT\function_cpus\common\src/uart_stdout.c:90
													if(n>>28)
8010264c:	8fc20018 	lw	v0,24(s8)
80102650:	00021702 	srl	v0,v0,0x1c
80102654:	1040000a 	beqz	v0,80102680 <uart_printf+0x154>
80102658:	00000000 	nop
D:\MCU_WorkSpace\IntegrationTest\mcu4in_IT\function_cpus\common\src/uart_stdout.c:91
								 uart_putc(cmap[(n >> 28) & 0x0f]);
8010265c:	8fc20018 	lw	v0,24(s8)
80102660:	00021f02 	srl	v1,v0,0x1c
80102664:	3c028010 	lui	v0,0x8010
80102668:	24423e10 	addiu	v0,v0,15888
8010266c:	00621021 	addu	v0,v1,v0
80102670:	90420000 	lbu	v0,0(v0)
80102674:	00402025 	move	a0,v0
80102678:	0c040910 	jal	80102440 <uart_putc>
8010267c:	00000000 	nop
D:\MCU_WorkSpace\IntegrationTest\mcu4in_IT\function_cpus\common\src/uart_stdout.c:92
													if(n>>24)
80102680:	8fc20018 	lw	v0,24(s8)
80102684:	00021602 	srl	v0,v0,0x18
80102688:	1040000b 	beqz	v0,801026b8 <uart_printf+0x18c>
8010268c:	00000000 	nop
D:\MCU_WorkSpace\IntegrationTest\mcu4in_IT\function_cpus\common\src/uart_stdout.c:93
								uart_putc(cmap[(n >> 24) & 0x0f]);
80102690:	8fc20018 	lw	v0,24(s8)
80102694:	00021602 	srl	v0,v0,0x18
80102698:	3043000f 	andi	v1,v0,0xf
8010269c:	3c028010 	lui	v0,0x8010
801026a0:	24423e10 	addiu	v0,v0,15888
801026a4:	00621021 	addu	v0,v1,v0
801026a8:	90420000 	lbu	v0,0(v0)
801026ac:	00402025 	move	a0,v0
801026b0:	0c040910 	jal	80102440 <uart_putc>
801026b4:	00000000 	nop
D:\MCU_WorkSpace\IntegrationTest\mcu4in_IT\function_cpus\common\src/uart_stdout.c:94
													if(n>>20)
801026b8:	8fc20018 	lw	v0,24(s8)
801026bc:	00021502 	srl	v0,v0,0x14
801026c0:	1040000b 	beqz	v0,801026f0 <uart_printf+0x1c4>
801026c4:	00000000 	nop
D:\MCU_WorkSpace\IntegrationTest\mcu4in_IT\function_cpus\common\src/uart_stdout.c:95
								uart_putc(cmap[(n >> 20) & 0x0f]);
801026c8:	8fc20018 	lw	v0,24(s8)
801026cc:	00021502 	srl	v0,v0,0x14
801026d0:	3043000f 	andi	v1,v0,0xf
801026d4:	3c028010 	lui	v0,0x8010
801026d8:	24423e10 	addiu	v0,v0,15888
801026dc:	00621021 	addu	v0,v1,v0
801026e0:	90420000 	lbu	v0,0(v0)
801026e4:	00402025 	move	a0,v0
801026e8:	0c040910 	jal	80102440 <uart_putc>
801026ec:	00000000 	nop
D:\MCU_WorkSpace\IntegrationTest\mcu4in_IT\function_cpus\common\src/uart_stdout.c:96
													if(n>>16)
801026f0:	8fc20018 	lw	v0,24(s8)
801026f4:	00021402 	srl	v0,v0,0x10
801026f8:	1040000b 	beqz	v0,80102728 <uart_printf+0x1fc>
801026fc:	00000000 	nop
D:\MCU_WorkSpace\IntegrationTest\mcu4in_IT\function_cpus\common\src/uart_stdout.c:97
								uart_putc(cmap[(n >> 16) & 0x0f]);
80102700:	8fc20018 	lw	v0,24(s8)
80102704:	00021402 	srl	v0,v0,0x10
80102708:	3043000f 	andi	v1,v0,0xf
8010270c:	3c028010 	lui	v0,0x8010
80102710:	24423e10 	addiu	v0,v0,15888
80102714:	00621021 	addu	v0,v1,v0
80102718:	90420000 	lbu	v0,0(v0)
8010271c:	00402025 	move	a0,v0
80102720:	0c040910 	jal	80102440 <uart_putc>
80102724:	00000000 	nop
D:\MCU_WorkSpace\IntegrationTest\mcu4in_IT\function_cpus\common\src/uart_stdout.c:98
													if(n>>12)
80102728:	8fc20018 	lw	v0,24(s8)
8010272c:	00021302 	srl	v0,v0,0xc
80102730:	1040000b 	beqz	v0,80102760 <uart_printf+0x234>
80102734:	00000000 	nop
D:\MCU_WorkSpace\IntegrationTest\mcu4in_IT\function_cpus\common\src/uart_stdout.c:99
								uart_putc(cmap[(n >> 12) & 0x0f]);
80102738:	8fc20018 	lw	v0,24(s8)
8010273c:	00021302 	srl	v0,v0,0xc
80102740:	3043000f 	andi	v1,v0,0xf
80102744:	3c028010 	lui	v0,0x8010
80102748:	24423e10 	addiu	v0,v0,15888
8010274c:	00621021 	addu	v0,v1,v0
80102750:	90420000 	lbu	v0,0(v0)
80102754:	00402025 	move	a0,v0
80102758:	0c040910 	jal	80102440 <uart_putc>
8010275c:	00000000 	nop
D:\MCU_WorkSpace\IntegrationTest\mcu4in_IT\function_cpus\common\src/uart_stdout.c:100
													if(n>>8)
80102760:	8fc20018 	lw	v0,24(s8)
80102764:	00021202 	srl	v0,v0,0x8
80102768:	1040000b 	beqz	v0,80102798 <uart_printf+0x26c>
8010276c:	00000000 	nop
D:\MCU_WorkSpace\IntegrationTest\mcu4in_IT\function_cpus\common\src/uart_stdout.c:101
								uart_putc(cmap[(n >> 8) & 0x0f]);
80102770:	8fc20018 	lw	v0,24(s8)
80102774:	00021202 	srl	v0,v0,0x8
80102778:	3043000f 	andi	v1,v0,0xf
8010277c:	3c028010 	lui	v0,0x8010
80102780:	24423e10 	addiu	v0,v0,15888
80102784:	00621021 	addu	v0,v1,v0
80102788:	90420000 	lbu	v0,0(v0)
8010278c:	00402025 	move	a0,v0
80102790:	0c040910 	jal	80102440 <uart_putc>
80102794:	00000000 	nop
D:\MCU_WorkSpace\IntegrationTest\mcu4in_IT\function_cpus\common\src/uart_stdout.c:102
													if(n>>4)
80102798:	8fc20018 	lw	v0,24(s8)
8010279c:	00021102 	srl	v0,v0,0x4
801027a0:	1040000b 	beqz	v0,801027d0 <uart_printf+0x2a4>
801027a4:	00000000 	nop
D:\MCU_WorkSpace\IntegrationTest\mcu4in_IT\function_cpus\common\src/uart_stdout.c:103
								uart_putc(cmap[(n >> 4) & 0x0f]);
801027a8:	8fc20018 	lw	v0,24(s8)
801027ac:	00021102 	srl	v0,v0,0x4
801027b0:	3043000f 	andi	v1,v0,0xf
801027b4:	3c028010 	lui	v0,0x8010
801027b8:	24423e10 	addiu	v0,v0,15888
801027bc:	00621021 	addu	v0,v1,v0
801027c0:	90420000 	lbu	v0,0(v0)
801027c4:	00402025 	move	a0,v0
801027c8:	0c040910 	jal	80102440 <uart_putc>
801027cc:	00000000 	nop
D:\MCU_WorkSpace\IntegrationTest\mcu4in_IT\function_cpus\common\src/uart_stdout.c:104
				uart_putc(cmap[n & 0x0f]);
801027d0:	8fc20018 	lw	v0,24(s8)
801027d4:	3043000f 	andi	v1,v0,0xf
801027d8:	3c028010 	lui	v0,0x8010
801027dc:	24423e10 	addiu	v0,v0,15888
801027e0:	00621021 	addu	v0,v1,v0
801027e4:	90420000 	lbu	v0,0(v0)
801027e8:	00402025 	move	a0,v0
801027ec:	0c040910 	jal	80102440 <uart_putc>
801027f0:	00000000 	nop
D:\MCU_WorkSpace\IntegrationTest\mcu4in_IT\function_cpus\common\src/uart_stdout.c:105
				break;
801027f4:	10000020 	b	80102878 <uart_printf+0x34c>
801027f8:	00000000 	nop
D:\MCU_WorkSpace\IntegrationTest\mcu4in_IT\function_cpus\common\src/uart_stdout.c:108

			case 's':
				s = va_arg(args, char *);
801027fc:	8fc20020 	lw	v0,32(s8)
80102800:	24430004 	addiu	v1,v0,4
80102804:	afc30020 	sw	v1,32(s8)
80102808:	8c420000 	lw	v0,0(v0)
8010280c:	afc20010 	sw	v0,16(s8)
D:\MCU_WorkSpace\IntegrationTest\mcu4in_IT\function_cpus\common\src/uart_stdout.c:109
				for (; *s != '\0'; ++s)
80102810:	10000009 	b	80102838 <uart_printf+0x30c>
80102814:	00000000 	nop
D:\MCU_WorkSpace\IntegrationTest\mcu4in_IT\function_cpus\common\src/uart_stdout.c:111 (discriminator 2)
				{	
					uart_putc(*s);
80102818:	8fc20010 	lw	v0,16(s8)
8010281c:	90420000 	lbu	v0,0(v0)
80102820:	00402025 	move	a0,v0
80102824:	0c040910 	jal	80102440 <uart_putc>
80102828:	00000000 	nop
D:\MCU_WorkSpace\IntegrationTest\mcu4in_IT\function_cpus\common\src/uart_stdout.c:109 (discriminator 2)
				for (; *s != '\0'; ++s)
8010282c:	8fc20010 	lw	v0,16(s8)
80102830:	24420001 	addiu	v0,v0,1
80102834:	afc20010 	sw	v0,16(s8)
D:\MCU_WorkSpace\IntegrationTest\mcu4in_IT\function_cpus\common\src/uart_stdout.c:109 (discriminator 1)
80102838:	8fc20010 	lw	v0,16(s8)
8010283c:	90420000 	lbu	v0,0(v0)
80102840:	1440fff5 	bnez	v0,80102818 <uart_printf+0x2ec>
80102844:	00000000 	nop
D:\MCU_WorkSpace\IntegrationTest\mcu4in_IT\function_cpus\common\src/uart_stdout.c:113
				}
				break;
80102848:	1000000b 	b	80102878 <uart_printf+0x34c>
8010284c:	00000000 	nop
D:\MCU_WorkSpace\IntegrationTest\mcu4in_IT\function_cpus\common\src/uart_stdout.c:116

			default:
				c = va_arg(args, int);
80102850:	8fc20020 	lw	v0,32(s8)
80102854:	24430004 	addiu	v1,v0,4
80102858:	afc30020 	sw	v1,32(s8)
8010285c:	8c420000 	lw	v0,0(v0)
80102860:	a3c20014 	sb	v0,20(s8)
D:\MCU_WorkSpace\IntegrationTest\mcu4in_IT\function_cpus\common\src/uart_stdout.c:117
				uart_putc(c);
80102864:	93c20014 	lbu	v0,20(s8)
80102868:	00402025 	move	a0,v0
8010286c:	0c040910 	jal	80102440 <uart_putc>
80102870:	00000000 	nop
D:\MCU_WorkSpace\IntegrationTest\mcu4in_IT\function_cpus\common\src/uart_stdout.c:118
				continue;
80102874:	00000000 	nop
D:\MCU_WorkSpace\IntegrationTest\mcu4in_IT\function_cpus\common\src/uart_stdout.c:63
	while ((c = *fmt++) != '\0') 
80102878:	8fc20030 	lw	v0,48(s8)
8010287c:	24430001 	addiu	v1,v0,1
80102880:	afc30030 	sw	v1,48(s8)
80102884:	90420000 	lbu	v0,0(v0)
80102888:	a3c20014 	sb	v0,20(s8)
8010288c:	93c20014 	lbu	v0,20(s8)
80102890:	1440ff36 	bnez	v0,8010256c <uart_printf+0x40>
80102894:	00000000 	nop
	...
D:\MCU_WorkSpace\IntegrationTest\mcu4in_IT\function_cpus\common\src/uart_stdout.c:122
		}
	}
	va_end(args);
}
801028a0:	03c0e825 	move	sp,s8
801028a4:	8fbf002c 	lw	ra,44(sp)
801028a8:	8fbe0028 	lw	s8,40(sp)
801028ac:	27bd0030 	addiu	sp,sp,48
801028b0:	03e00008 	jr	ra
801028b4:	00000000 	nop

801028b8 <system_default_interrupt_handler>:
system_default_interrupt_handler():
D:\MCU_WorkSpace\IntegrationTest\mcu4in_IT\function_cpus\common\src\plic/plic.c:38
 * \brief      System Default Interrupt Handler
 * \details
 * This function provided a default interrupt handling code for all interrupt ids.
 */
static void system_default_interrupt_handler(void)
{
801028b8:	27bdffe8 	addiu	sp,sp,-24
801028bc:	afbf0014 	sw	ra,20(sp)
801028c0:	afbe0010 	sw	s8,16(sp)
801028c4:	03a0f025 	move	s8,sp
D:\MCU_WorkSpace\IntegrationTest\mcu4in_IT\function_cpus\common\src\plic/plic.c:40
    /* TODO: Uncomment this if you have implement printf function */
    uart_printf("Trap in Default Interrupt\r\n");
801028c8:	3c028010 	lui	v0,0x8010
801028cc:	24443ea4 	addiu	a0,v0,16036
801028d0:	0c04094b 	jal	8010252c <uart_printf>
801028d4:	00000000 	nop
D:\MCU_WorkSpace\IntegrationTest\mcu4in_IT\function_cpus\common\src\plic/plic.c:41
}
801028d8:	00000000 	nop
801028dc:	03c0e825 	move	sp,s8
801028e0:	8fbf0014 	lw	ra,20(sp)
801028e4:	8fbe0010 	lw	s8,16(sp)
801028e8:	27bd0018 	addiu	sp,sp,24
801028ec:	03e00008 	jr	ra
801028f0:	00000000 	nop

801028f4 <Interrupt_Init>:
Interrupt_Init():
D:\MCU_WorkSpace\IntegrationTest\mcu4in_IT\function_cpus\common\src\plic/plic.c:51
 * The interrupt handler for each exception id will be initialized to \ref system_default_interrupt_handler.
 * \note
 * Called in \ref _init function, used to initialize default interrupt handlers for all interrupt IDs
 */
static void Interrupt_Init(void)
{
801028f4:	27bdfff0 	addiu	sp,sp,-16
801028f8:	afbe000c 	sw	s8,12(sp)
801028fc:	03a0f025 	move	s8,sp
D:\MCU_WorkSpace\IntegrationTest\mcu4in_IT\function_cpus\common\src\plic/plic.c:53
    int i;
    for (i = 0; i < __PLIC_INTNUM; i++) {
80102900:	afc00000 	sw	zero,0(s8)
80102904:	1000000c 	b	80102938 <Interrupt_Init+0x44>
80102908:	00000000 	nop
D:\MCU_WorkSpace\IntegrationTest\mcu4in_IT\function_cpus\common\src\plic/plic.c:54 (discriminator 3)
        SystemExtInterruptHandlers[i] = (unsigned long)system_default_interrupt_handler;
8010290c:	3c028010 	lui	v0,0x8010
80102910:	244328b8 	addiu	v1,v0,10424
80102914:	3c028012 	lui	v0,0x8012
80102918:	8fc40000 	lw	a0,0(s8)
8010291c:	00042080 	sll	a0,a0,0x2
80102920:	244207dc 	addiu	v0,v0,2012
80102924:	00821021 	addu	v0,a0,v0
80102928:	ac430000 	sw	v1,0(v0)
D:\MCU_WorkSpace\IntegrationTest\mcu4in_IT\function_cpus\common\src\plic/plic.c:53 (discriminator 3)
    for (i = 0; i < __PLIC_INTNUM; i++) {
8010292c:	8fc20000 	lw	v0,0(s8)
80102930:	24420001 	addiu	v0,v0,1
80102934:	afc20000 	sw	v0,0(s8)
D:\MCU_WorkSpace\IntegrationTest\mcu4in_IT\function_cpus\common\src\plic/plic.c:53 (discriminator 1)
80102938:	8fc20000 	lw	v0,0(s8)
8010293c:	28420040 	slti	v0,v0,64
80102940:	1440fff2 	bnez	v0,8010290c <Interrupt_Init+0x18>
80102944:	00000000 	nop
	...
D:\MCU_WorkSpace\IntegrationTest\mcu4in_IT\function_cpus\common\src\plic/plic.c:56
    }
}
80102950:	03c0e825 	move	sp,s8
80102954:	8fbe000c 	lw	s8,12(sp)
80102958:	27bd0010 	addiu	sp,sp,16
8010295c:	03e00008 	jr	ra
80102960:	00000000 	nop

80102964 <Interrupt_Register_ExtIRQ>:
Interrupt_Register_ExtIRQ():
D:\MCU_WorkSpace\IntegrationTest\mcu4in_IT\function_cpus\common\src\plic/plic.c:66
 * * For irqn <= \ref __PLIC_INTNUM, it will be registered into SystemExtInterruptHandlers[irqn-1].
 * \param   irqn    See \ref IRQn
 * \param   int_handler     The external interrupt handler for this interrupt code irqn
 */
void Interrupt_Register_ExtIRQ(uint32_t irqn, unsigned long int_handler)
{
80102964:	27bdfff8 	addiu	sp,sp,-8
80102968:	afbe0004 	sw	s8,4(sp)
8010296c:	03a0f025 	move	s8,sp
80102970:	afc40008 	sw	a0,8(s8)
80102974:	afc5000c 	sw	a1,12(s8)
D:\MCU_WorkSpace\IntegrationTest\mcu4in_IT\function_cpus\common\src\plic/plic.c:67
    if (irqn <= __PLIC_INTNUM) {
80102978:	8fc20008 	lw	v0,8(s8)
8010297c:	2c420041 	sltiu	v0,v0,65
80102980:	10400008 	beqz	v0,801029a4 <Interrupt_Register_ExtIRQ+0x40>
80102984:	00000000 	nop
D:\MCU_WorkSpace\IntegrationTest\mcu4in_IT\function_cpus\common\src\plic/plic.c:68
        SystemExtInterruptHandlers[irqn] = int_handler;
80102988:	3c028012 	lui	v0,0x8012
8010298c:	8fc30008 	lw	v1,8(s8)
80102990:	00031880 	sll	v1,v1,0x2
80102994:	244207dc 	addiu	v0,v0,2012
80102998:	00621021 	addu	v0,v1,v0
8010299c:	8fc3000c 	lw	v1,12(s8)
801029a0:	ac430000 	sw	v1,0(v0)
D:\MCU_WorkSpace\IntegrationTest\mcu4in_IT\function_cpus\common\src\plic/plic.c:71
        // uart_printf("SystemExtInterruptHandlers %x[%d] = %x,%x!\r\n", SystemExtInterruptHandlers, irqn, int_handler, SystemExtInterruptHandlers[irqn]);
    }
}
801029a4:	00000000 	nop
801029a8:	03c0e825 	move	sp,s8
801029ac:	8fbe0004 	lw	s8,4(sp)
801029b0:	27bd0008 	addiu	sp,sp,8
801029b4:	03e00008 	jr	ra
801029b8:	00000000 	nop

801029bc <Interrupt_Get_ExtIRQ>:
Interrupt_Get_ExtIRQ():
D:\MCU_WorkSpace\IntegrationTest\mcu4in_IT\function_cpus\common\src\plic/plic.c:80
 * \param   irqn    See \ref IRQn
 * \return
 * The external interrupt handler for this interrupt code irqn
 */
unsigned long Interrupt_Get_ExtIRQ(uint32_t irqn)
{
801029bc:	27bdfff8 	addiu	sp,sp,-8
801029c0:	afbe0004 	sw	s8,4(sp)
801029c4:	03a0f025 	move	s8,sp
801029c8:	afc40008 	sw	a0,8(s8)
D:\MCU_WorkSpace\IntegrationTest\mcu4in_IT\function_cpus\common\src\plic/plic.c:81
    if (irqn <= __PLIC_INTNUM) {
801029cc:	8fc20008 	lw	v0,8(s8)
801029d0:	2c420041 	sltiu	v0,v0,65
801029d4:	10400009 	beqz	v0,801029fc <Interrupt_Get_ExtIRQ+0x40>
801029d8:	00000000 	nop
D:\MCU_WorkSpace\IntegrationTest\mcu4in_IT\function_cpus\common\src\plic/plic.c:82
        return SystemExtInterruptHandlers[irqn];
801029dc:	3c028012 	lui	v0,0x8012
801029e0:	8fc30008 	lw	v1,8(s8)
801029e4:	00031880 	sll	v1,v1,0x2
801029e8:	244207dc 	addiu	v0,v0,2012
801029ec:	00621021 	addu	v0,v1,v0
801029f0:	8c420000 	lw	v0,0(v0)
801029f4:	10000002 	b	80102a00 <Interrupt_Get_ExtIRQ+0x44>
801029f8:	00000000 	nop
D:\MCU_WorkSpace\IntegrationTest\mcu4in_IT\function_cpus\common\src\plic/plic.c:84
    }
    return 0;
801029fc:	00001025 	move	v0,zero
D:\MCU_WorkSpace\IntegrationTest\mcu4in_IT\function_cpus\common\src\plic/plic.c:85
}
80102a00:	03c0e825 	move	sp,s8
80102a04:	8fbe0004 	lw	s8,4(sp)
80102a08:	27bd0008 	addiu	sp,sp,8
80102a0c:	03e00008 	jr	ra
80102a10:	00000000 	nop

80102a14 <plic_handler>:
plic_handler():
D:\MCU_WorkSpace\IntegrationTest\mcu4in_IT\function_cpus\common\src\plic/plic.c:99
 *   This is proposed code template for exception entry function, Silicon Vendor could modify the implementation.
 * - If you want to register core exception handler, please use \ref Exception_Register_EXC
 * - If you want to register core interrupt handler, please use \ref Interrupt_Register_CoreIRQ
 * - If you want to register external interrupt handler, please use \ref Interrupt_Register_ExtIRQ
 */
uint32_t plic_handler() {
80102a14:	27bdffc8 	addiu	sp,sp,-56
80102a18:	afbf0034 	sw	ra,52(sp)
80102a1c:	afbe0030 	sw	s8,48(sp)
80102a20:	03a0f025 	move	s8,sp
PLIC_ClaimInterrupt():
d:\mcu_workspace\integrationtest\mcu4in_it\function_cpus\common\include\plic/plic_core.h:232
 * \sa
 * - \ref PLIC_CompleteInterrupt
 */
__STATIC_FORCEINLINE uint32_t PLIC_ClaimInterrupt(void)
{
    uint32_t hartid = 0; // __RV_CSR_READ(CSR_MHARTID);
80102a24:	afc00018 	sw	zero,24(s8)
d:\mcu_workspace\integrationtest\mcu4in_it\function_cpus\common\include\plic/plic_core.h:234
    volatile uint32_t *claim_reg = (volatile uint32_t *)((PLIC_BASE) + PLIC_CLAIM_OFFSET + \
                    + (hartid << PLIC_CLAIM_SHIFT_PER_TARGET));
80102a28:	8fc20018 	lw	v0,24(s8)
80102a2c:	00021b00 	sll	v1,v0,0xc
d:\mcu_workspace\integrationtest\mcu4in_it\function_cpus\common\include\plic/plic_core.h:233
    volatile uint32_t *claim_reg = (volatile uint32_t *)((PLIC_BASE) + PLIC_CLAIM_OFFSET + \
80102a30:	3c024110 	lui	v0,0x4110
80102a34:	34420604 	ori	v0,v0,0x604
80102a38:	00621021 	addu	v0,v1,v0
80102a3c:	afc2001c 	sw	v0,28(s8)
d:\mcu_workspace\integrationtest\mcu4in_it\function_cpus\common\include\plic/plic_core.h:236

    return (*claim_reg);
80102a40:	8fc2001c 	lw	v0,28(s8)
80102a44:	8c420000 	lw	v0,0(v0)
plic_handler():
D:\MCU_WorkSpace\IntegrationTest\mcu4in_IT\function_cpus\common\src\plic/plic.c:100
  uint32_t irqn = PLIC_ClaimInterrupt();
80102a48:	afc20010 	sw	v0,16(s8)
D:\MCU_WorkSpace\IntegrationTest\mcu4in_IT\function_cpus\common\src\plic/plic.c:101
  INT_HANDLER int_handler = NULL;
80102a4c:	afc00014 	sw	zero,20(s8)
D:\MCU_WorkSpace\IntegrationTest\mcu4in_IT\function_cpus\common\src\plic/plic.c:102
  if (irqn < __PLIC_INTNUM) {
80102a50:	8fc20010 	lw	v0,16(s8)
80102a54:	2c420040 	sltiu	v0,v0,64
80102a58:	1040001e 	beqz	v0,80102ad4 <plic_handler+0xc0>
80102a5c:	00000000 	nop
D:\MCU_WorkSpace\IntegrationTest\mcu4in_IT\function_cpus\common\src\plic/plic.c:103
    int_handler = (INT_HANDLER)(SystemExtInterruptHandlers[irqn]);
80102a60:	3c028012 	lui	v0,0x8012
80102a64:	8fc30010 	lw	v1,16(s8)
80102a68:	00031880 	sll	v1,v1,0x2
80102a6c:	244207dc 	addiu	v0,v0,2012
80102a70:	00621021 	addu	v0,v1,v0
80102a74:	8c420000 	lw	v0,0(v0)
80102a78:	afc20014 	sw	v0,20(s8)
D:\MCU_WorkSpace\IntegrationTest\mcu4in_IT\function_cpus\common\src\plic/plic.c:104
    if (int_handler != NULL) {
80102a7c:	8fc20014 	lw	v0,20(s8)
80102a80:	10400004 	beqz	v0,80102a94 <plic_handler+0x80>
80102a84:	00000000 	nop
D:\MCU_WorkSpace\IntegrationTest\mcu4in_IT\function_cpus\common\src\plic/plic.c:105
      int_handler();
80102a88:	8fc20014 	lw	v0,20(s8)
80102a8c:	0040f809 	jalr	v0
80102a90:	00000000 	nop
80102a94:	8fc20010 	lw	v0,16(s8)
80102a98:	afc20020 	sw	v0,32(s8)
PLIC_CompleteInterrupt():
d:\mcu_workspace\integrationtest\mcu4in_it\function_cpus\common\include\plic/plic_core.h:257
 * \sa
 * - \ref PLIC_ClaimInterrupt
 */
__STATIC_FORCEINLINE void PLIC_CompleteInterrupt(uint32_t source)
{
    uint32_t hartid = 0; // __RV_CSR_READ(CSR_MHARTID);
80102a9c:	afc00024 	sw	zero,36(s8)
d:\mcu_workspace\integrationtest\mcu4in_it\function_cpus\common\include\plic/plic_core.h:259
    volatile uint32_t *complete_reg = (uint32_t *)((PLIC_BASE) + PLIC_CLAIM_OFFSET + \
                    + (hartid << PLIC_CLAIM_SHIFT_PER_TARGET));
80102aa0:	8fc20024 	lw	v0,36(s8)
80102aa4:	00021b00 	sll	v1,v0,0xc
d:\mcu_workspace\integrationtest\mcu4in_it\function_cpus\common\include\plic/plic_core.h:258
    volatile uint32_t *complete_reg = (uint32_t *)((PLIC_BASE) + PLIC_CLAIM_OFFSET + \
80102aa8:	3c024110 	lui	v0,0x4110
80102aac:	34420604 	ori	v0,v0,0x604
80102ab0:	00621021 	addu	v0,v1,v0
80102ab4:	afc20028 	sw	v0,40(s8)
d:\mcu_workspace\integrationtest\mcu4in_it\function_cpus\common\include\plic/plic_core.h:261

    *complete_reg = source;
80102ab8:	8fc20028 	lw	v0,40(s8)
80102abc:	8fc30020 	lw	v1,32(s8)
80102ac0:	ac430000 	sw	v1,0(v0)
d:\mcu_workspace\integrationtest\mcu4in_it\function_cpus\common\include\plic/plic_core.h:262
}
80102ac4:	00000000 	nop
plic_handler():
D:\MCU_WorkSpace\IntegrationTest\mcu4in_IT\function_cpus\common\src\plic/plic.c:108
    }
    PLIC_CompleteInterrupt(irqn);
    return 1;
80102ac8:	24020001 	li	v0,1
80102acc:	10000004 	b	80102ae0 <plic_handler+0xcc>
80102ad0:	00000000 	nop
D:\MCU_WorkSpace\IntegrationTest\mcu4in_IT\function_cpus\common\src\plic/plic.c:110
  } else {
    system_default_interrupt_handler();
80102ad4:	0c040a2e 	jal	801028b8 <system_default_interrupt_handler>
80102ad8:	00000000 	nop
D:\MCU_WorkSpace\IntegrationTest\mcu4in_IT\function_cpus\common\src\plic/plic.c:111
    return 0;
80102adc:	00001025 	move	v0,zero
D:\MCU_WorkSpace\IntegrationTest\mcu4in_IT\function_cpus\common\src\plic/plic.c:113
  }
}
80102ae0:	03c0e825 	move	sp,s8
80102ae4:	8fbf0034 	lw	ra,52(sp)
80102ae8:	8fbe0030 	lw	s8,48(sp)
80102aec:	27bd0038 	addiu	sp,sp,56
80102af0:	03e00008 	jr	ra
80102af4:	00000000 	nop

80102af8 <PLIC_Register_IRQ_Hard>:
PLIC_Register_IRQ_Hard():
D:\MCU_WorkSpace\IntegrationTest\mcu4in_IT\function_cpus\common\src\plic/plic.c:128
 * \return       -1 means invalid input parameter. 0 means successful.
 * \remarks
 * - This function use to configure specific plic interrupt and register its interrupt handler and enable its interrupt.
 */
int32_t PLIC_Register_IRQ_Hard(uint32_t source, uint8_t priority)
{
80102af8:	27bdffd8 	addiu	sp,sp,-40
80102afc:	afbe0024 	sw	s8,36(sp)
80102b00:	03a0f025 	move	s8,sp
80102b04:	afc40028 	sw	a0,40(s8)
80102b08:	00a01025 	move	v0,a1
80102b0c:	a3c2002c 	sb	v0,44(s8)
D:\MCU_WorkSpace\IntegrationTest\mcu4in_IT\function_cpus\common\src\plic/plic.c:129
    if ((source >= __PLIC_INTNUM)) {
80102b10:	8fc20028 	lw	v0,40(s8)
80102b14:	2c420040 	sltiu	v0,v0,64
80102b18:	14400004 	bnez	v0,80102b2c <PLIC_Register_IRQ_Hard+0x34>
80102b1c:	00000000 	nop
D:\MCU_WorkSpace\IntegrationTest\mcu4in_IT\function_cpus\common\src\plic/plic.c:130
        return -1;
80102b20:	2402ffff 	li	v0,-1
80102b24:	1000002b 	b	80102bd4 <PLIC_Register_IRQ_Hard+0xdc>
80102b28:	00000000 	nop
D:\MCU_WorkSpace\IntegrationTest\mcu4in_IT\function_cpus\common\src\plic/plic.c:133
    }

    PLIC_SetPriority(source, priority);
80102b2c:	93c2002c 	lbu	v0,44(s8)
80102b30:	8fc30028 	lw	v1,40(s8)
80102b34:	afc30010 	sw	v1,16(s8)
80102b38:	afc20014 	sw	v0,20(s8)
PLIC_SetPriority():
d:\mcu_workspace\integrationtest\mcu4in_it\function_cpus\common\include\plic/plic_core.h:194
                    + (source << PLIC_PRIORITY_SHIFT_PER_SOURCE));
80102b3c:	8fc20010 	lw	v0,16(s8)
80102b40:	00021880 	sll	v1,v0,0x2
d:\mcu_workspace\integrationtest\mcu4in_it\function_cpus\common\include\plic/plic_core.h:193
    volatile uint32_t *priority_reg = (uint32_t *)((PLIC_BASE) + PLIC_PRIORITY_OFFSET + \
80102b44:	3c024110 	lui	v0,0x4110
80102b48:	00621021 	addu	v0,v1,v0
80102b4c:	afc20018 	sw	v0,24(s8)
d:\mcu_workspace\integrationtest\mcu4in_it\function_cpus\common\include\plic/plic_core.h:196
    *priority_reg = priority;
80102b50:	8fc20018 	lw	v0,24(s8)
80102b54:	8fc30014 	lw	v1,20(s8)
80102b58:	ac430000 	sw	v1,0(v0)
d:\mcu_workspace\integrationtest\mcu4in_it\function_cpus\common\include\plic/plic_core.h:197
}
80102b5c:	00000000 	nop
80102b60:	8fc20028 	lw	v0,40(s8)
80102b64:	afc20000 	sw	v0,0(s8)
PLIC_EnableInterrupt():
d:\mcu_workspace\integrationtest\mcu4in_it\function_cpus\common\include\plic/plic_core.h:130
    uint32_t hartid = 0; // __RV_CSR_READ(CSR_MHARTID);
80102b68:	afc00004 	sw	zero,4(s8)
d:\mcu_workspace\integrationtest\mcu4in_it\function_cpus\common\include\plic/plic_core.h:132
                    (hartid << PLIC_ENABLE_SHIFT_PER_TARGET) + (source >> 5) * 4);
80102b6c:	8fc20004 	lw	v0,4(s8)
80102b70:	000219c0 	sll	v1,v0,0x7
80102b74:	8fc20000 	lw	v0,0(s8)
80102b78:	00021142 	srl	v0,v0,0x5
80102b7c:	00021080 	sll	v0,v0,0x2
80102b80:	00621821 	addu	v1,v1,v0
80102b84:	3c024110 	lui	v0,0x4110
80102b88:	34420400 	ori	v0,v0,0x400
80102b8c:	00621021 	addu	v0,v1,v0
d:\mcu_workspace\integrationtest\mcu4in_it\function_cpus\common\include\plic/plic_core.h:131
    volatile uint32_t *enable_reg = (uint32_t *)((PLIC_BASE) + PLIC_ENABLE_OFFSET + \
80102b90:	afc20008 	sw	v0,8(s8)
d:\mcu_workspace\integrationtest\mcu4in_it\function_cpus\common\include\plic/plic_core.h:134
    uint32_t current = *enable_reg;
80102b94:	8fc20008 	lw	v0,8(s8)
80102b98:	8c420000 	lw	v0,0(v0)
80102b9c:	afc2000c 	sw	v0,12(s8)
d:\mcu_workspace\integrationtest\mcu4in_it\function_cpus\common\include\plic/plic_core.h:135
    current = current | (1<<(source&0x1F));
80102ba0:	8fc20000 	lw	v0,0(s8)
80102ba4:	3042001f 	andi	v0,v0,0x1f
80102ba8:	24030001 	li	v1,1
80102bac:	00431004 	sllv	v0,v1,v0
80102bb0:	00401825 	move	v1,v0
80102bb4:	8fc2000c 	lw	v0,12(s8)
80102bb8:	00431025 	or	v0,v0,v1
80102bbc:	afc2000c 	sw	v0,12(s8)
d:\mcu_workspace\integrationtest\mcu4in_it\function_cpus\common\include\plic/plic_core.h:136
    *enable_reg = current;
80102bc0:	8fc20008 	lw	v0,8(s8)
80102bc4:	8fc3000c 	lw	v1,12(s8)
80102bc8:	ac430000 	sw	v1,0(v0)
d:\mcu_workspace\integrationtest\mcu4in_it\function_cpus\common\include\plic/plic_core.h:137
}
80102bcc:	00000000 	nop
PLIC_Register_IRQ_Hard():
D:\MCU_WorkSpace\IntegrationTest\mcu4in_IT\function_cpus\common\src\plic/plic.c:136

    PLIC_EnableInterrupt(source);
    return 0;
80102bd0:	00001025 	move	v0,zero
D:\MCU_WorkSpace\IntegrationTest\mcu4in_IT\function_cpus\common\src\plic/plic.c:137
}
80102bd4:	03c0e825 	move	sp,s8
80102bd8:	8fbe0024 	lw	s8,36(sp)
80102bdc:	27bd0028 	addiu	sp,sp,40
80102be0:	03e00008 	jr	ra
80102be4:	00000000 	nop

80102be8 <PLIC_Register_IRQ_Soft>:
PLIC_Register_IRQ_Soft():
D:\MCU_WorkSpace\IntegrationTest\mcu4in_IT\function_cpus\common\src\plic/plic.c:140

int32_t PLIC_Register_IRQ_Soft(uint32_t source, void *handler)
{
80102be8:	27bdffe8 	addiu	sp,sp,-24
80102bec:	afbf0014 	sw	ra,20(sp)
80102bf0:	afbe0010 	sw	s8,16(sp)
80102bf4:	03a0f025 	move	s8,sp
80102bf8:	afc40018 	sw	a0,24(s8)
80102bfc:	afc5001c 	sw	a1,28(s8)
D:\MCU_WorkSpace\IntegrationTest\mcu4in_IT\function_cpus\common\src\plic/plic.c:141
    if ((source >= __PLIC_INTNUM)) {
80102c00:	8fc20018 	lw	v0,24(s8)
80102c04:	2c420040 	sltiu	v0,v0,64
80102c08:	14400004 	bnez	v0,80102c1c <PLIC_Register_IRQ_Soft+0x34>
80102c0c:	00000000 	nop
D:\MCU_WorkSpace\IntegrationTest\mcu4in_IT\function_cpus\common\src\plic/plic.c:142
        return -1;
80102c10:	2402ffff 	li	v0,-1
80102c14:	1000000a 	b	80102c40 <PLIC_Register_IRQ_Soft+0x58>
80102c18:	00000000 	nop
D:\MCU_WorkSpace\IntegrationTest\mcu4in_IT\function_cpus\common\src\plic/plic.c:145
    }

    if (handler != NULL) {
80102c1c:	8fc2001c 	lw	v0,28(s8)
80102c20:	10400006 	beqz	v0,80102c3c <PLIC_Register_IRQ_Soft+0x54>
80102c24:	00000000 	nop
D:\MCU_WorkSpace\IntegrationTest\mcu4in_IT\function_cpus\common\src\plic/plic.c:147
        /* register interrupt handler entry to external handlers */
        Interrupt_Register_ExtIRQ(source, (unsigned long)handler);
80102c28:	8fc2001c 	lw	v0,28(s8)
80102c2c:	00402825 	move	a1,v0
80102c30:	8fc40018 	lw	a0,24(s8)
80102c34:	0c040a59 	jal	80102964 <Interrupt_Register_ExtIRQ>
80102c38:	00000000 	nop
D:\MCU_WorkSpace\IntegrationTest\mcu4in_IT\function_cpus\common\src\plic/plic.c:153
    }

#ifdef TARGET_RISCV
    rv_enable_ext_irq(); // TODO: Vary in different cpu
#endif
    return 0;
80102c3c:	00001025 	move	v0,zero
D:\MCU_WorkSpace\IntegrationTest\mcu4in_IT\function_cpus\common\src\plic/plic.c:154
}
80102c40:	03c0e825 	move	sp,s8
80102c44:	8fbf0014 	lw	ra,20(sp)
80102c48:	8fbe0010 	lw	s8,16(sp)
80102c4c:	27bd0018 	addiu	sp,sp,24
80102c50:	03e00008 	jr	ra
80102c54:	00000000 	nop

80102c58 <PLIC_Register_IRQ>:
PLIC_Register_IRQ():
D:\MCU_WorkSpace\IntegrationTest\mcu4in_IT\function_cpus\common\src\plic/plic.c:157

int32_t PLIC_Register_IRQ(uint32_t source, uint8_t priority, void *handler)
{
80102c58:	27bdffe0 	addiu	sp,sp,-32
80102c5c:	afbf001c 	sw	ra,28(sp)
80102c60:	afbe0018 	sw	s8,24(sp)
80102c64:	03a0f025 	move	s8,sp
80102c68:	afc40020 	sw	a0,32(s8)
80102c6c:	00a01025 	move	v0,a1
80102c70:	afc60028 	sw	a2,40(s8)
80102c74:	a3c20024 	sb	v0,36(s8)
D:\MCU_WorkSpace\IntegrationTest\mcu4in_IT\function_cpus\common\src\plic/plic.c:158
    int32_t ret = PLIC_Register_IRQ_Soft(source, handler);
80102c78:	8fc50028 	lw	a1,40(s8)
80102c7c:	8fc40020 	lw	a0,32(s8)
80102c80:	0c040afa 	jal	80102be8 <PLIC_Register_IRQ_Soft>
80102c84:	00000000 	nop
80102c88:	afc20010 	sw	v0,16(s8)
D:\MCU_WorkSpace\IntegrationTest\mcu4in_IT\function_cpus\common\src\plic/plic.c:159
    if (ret == -1){
80102c8c:	8fc30010 	lw	v1,16(s8)
80102c90:	2402ffff 	li	v0,-1
80102c94:	14620004 	bne	v1,v0,80102ca8 <PLIC_Register_IRQ+0x50>
80102c98:	00000000 	nop
D:\MCU_WorkSpace\IntegrationTest\mcu4in_IT\function_cpus\common\src\plic/plic.c:160
        return ret;
80102c9c:	8fc20010 	lw	v0,16(s8)
80102ca0:	1000000d 	b	80102cd8 <PLIC_Register_IRQ+0x80>
80102ca4:	00000000 	nop
D:\MCU_WorkSpace\IntegrationTest\mcu4in_IT\function_cpus\common\src\plic/plic.c:163
    }

    if (RD_RESTORE_FROM_CHECKER == 0) {
80102ca8:	3c024100 	lui	v0,0x4100
80102cac:	34420020 	ori	v0,v0,0x20
80102cb0:	8c420000 	lw	v0,0(v0)
80102cb4:	14400007 	bnez	v0,80102cd4 <PLIC_Register_IRQ+0x7c>
80102cb8:	00000000 	nop
D:\MCU_WorkSpace\IntegrationTest\mcu4in_IT\function_cpus\common\src\plic/plic.c:164
     ret = PLIC_Register_IRQ_Hard(source, priority);
80102cbc:	93c20024 	lbu	v0,36(s8)
80102cc0:	00402825 	move	a1,v0
80102cc4:	8fc40020 	lw	a0,32(s8)
80102cc8:	0c040abe 	jal	80102af8 <PLIC_Register_IRQ_Hard>
80102ccc:	00000000 	nop
80102cd0:	afc20010 	sw	v0,16(s8)
D:\MCU_WorkSpace\IntegrationTest\mcu4in_IT\function_cpus\common\src\plic/plic.c:167
    }
    
    return ret;
80102cd4:	8fc20010 	lw	v0,16(s8)
D:\MCU_WorkSpace\IntegrationTest\mcu4in_IT\function_cpus\common\src\plic/plic.c:168
}
80102cd8:	03c0e825 	move	sp,s8
80102cdc:	8fbf001c 	lw	ra,28(sp)
80102ce0:	8fbe0018 	lw	s8,24(sp)
80102ce4:	27bd0020 	addiu	sp,sp,32
80102ce8:	03e00008 	jr	ra
80102cec:	00000000 	nop

80102cf0 <PLIC_Init_Hard>:
PLIC_Init_Hard():
D:\MCU_WorkSpace\IntegrationTest\mcu4in_IT\function_cpus\common\src\plic/plic.c:182
 * * Enable all interrupts
 * * Set all priorities to zero
 * * Set priority threshold to zero
 */
void PLIC_Init_Hard(uint32_t num_sources)
{
80102cf0:	27bdffc8 	addiu	sp,sp,-56
80102cf4:	afbe0034 	sw	s8,52(sp)
80102cf8:	03a0f025 	move	s8,sp
80102cfc:	afc40038 	sw	a0,56(s8)
D:\MCU_WorkSpace\IntegrationTest\mcu4in_IT\function_cpus\common\src\plic/plic.c:184
    uint32_t i;
    for (i = 0; i < num_sources; i ++) {
80102d00:	afc00000 	sw	zero,0(s8)
80102d04:	1000002d 	b	80102dbc <PLIC_Init_Hard+0xcc>
80102d08:	00000000 	nop
80102d0c:	8fc20000 	lw	v0,0(s8)
80102d10:	afc20010 	sw	v0,16(s8)
PLIC_DisableInterrupt():
d:\mcu_workspace\integrationtest\mcu4in_it\function_cpus\common\include\plic/plic_core.h:150 (discriminator 3)
    uint32_t hartid = 0; // __RV_CSR_READ(CSR_MHARTID);
80102d14:	afc00014 	sw	zero,20(s8)
d:\mcu_workspace\integrationtest\mcu4in_it\function_cpus\common\include\plic/plic_core.h:152 (discriminator 3)
                    (hartid << PLIC_ENABLE_SHIFT_PER_TARGET) + (source >> 5) * 4);
80102d18:	8fc20014 	lw	v0,20(s8)
80102d1c:	000219c0 	sll	v1,v0,0x7
80102d20:	8fc20010 	lw	v0,16(s8)
80102d24:	00021142 	srl	v0,v0,0x5
80102d28:	00021080 	sll	v0,v0,0x2
80102d2c:	00621821 	addu	v1,v1,v0
80102d30:	3c024110 	lui	v0,0x4110
80102d34:	34420400 	ori	v0,v0,0x400
80102d38:	00621021 	addu	v0,v1,v0
d:\mcu_workspace\integrationtest\mcu4in_it\function_cpus\common\include\plic/plic_core.h:151 (discriminator 3)
    volatile uint32_t *enable_reg = (uint32_t *)((PLIC_BASE) + PLIC_ENABLE_OFFSET + \
80102d3c:	afc20018 	sw	v0,24(s8)
d:\mcu_workspace\integrationtest\mcu4in_it\function_cpus\common\include\plic/plic_core.h:154 (discriminator 3)
    uint32_t current = *enable_reg;
80102d40:	8fc20018 	lw	v0,24(s8)
80102d44:	8c420000 	lw	v0,0(v0)
80102d48:	afc2001c 	sw	v0,28(s8)
d:\mcu_workspace\integrationtest\mcu4in_it\function_cpus\common\include\plic/plic_core.h:155 (discriminator 3)
    current = current & (~(1<<(source&0x1F)));
80102d4c:	8fc20010 	lw	v0,16(s8)
80102d50:	3042001f 	andi	v0,v0,0x1f
80102d54:	24030001 	li	v1,1
80102d58:	00431004 	sllv	v0,v1,v0
80102d5c:	00021027 	nor	v0,zero,v0
80102d60:	00401825 	move	v1,v0
80102d64:	8fc2001c 	lw	v0,28(s8)
80102d68:	00431024 	and	v0,v0,v1
80102d6c:	afc2001c 	sw	v0,28(s8)
d:\mcu_workspace\integrationtest\mcu4in_it\function_cpus\common\include\plic/plic_core.h:156 (discriminator 3)
    *enable_reg = current;
80102d70:	8fc20018 	lw	v0,24(s8)
80102d74:	8fc3001c 	lw	v1,28(s8)
80102d78:	ac430000 	sw	v1,0(v0)
d:\mcu_workspace\integrationtest\mcu4in_it\function_cpus\common\include\plic/plic_core.h:157 (discriminator 3)
}
80102d7c:	00000000 	nop
80102d80:	8fc20000 	lw	v0,0(s8)
80102d84:	afc20004 	sw	v0,4(s8)
80102d88:	afc00008 	sw	zero,8(s8)
PLIC_SetPriority():
d:\mcu_workspace\integrationtest\mcu4in_it\function_cpus\common\include\plic/plic_core.h:194 (discriminator 3)
                    + (source << PLIC_PRIORITY_SHIFT_PER_SOURCE));
80102d8c:	8fc20004 	lw	v0,4(s8)
80102d90:	00021880 	sll	v1,v0,0x2
d:\mcu_workspace\integrationtest\mcu4in_it\function_cpus\common\include\plic/plic_core.h:193 (discriminator 3)
    volatile uint32_t *priority_reg = (uint32_t *)((PLIC_BASE) + PLIC_PRIORITY_OFFSET + \
80102d94:	3c024110 	lui	v0,0x4110
80102d98:	00621021 	addu	v0,v1,v0
80102d9c:	afc2000c 	sw	v0,12(s8)
d:\mcu_workspace\integrationtest\mcu4in_it\function_cpus\common\include\plic/plic_core.h:196 (discriminator 3)
    *priority_reg = priority;
80102da0:	8fc2000c 	lw	v0,12(s8)
80102da4:	8fc30008 	lw	v1,8(s8)
80102da8:	ac430000 	sw	v1,0(v0)
d:\mcu_workspace\integrationtest\mcu4in_it\function_cpus\common\include\plic/plic_core.h:197 (discriminator 3)
}
80102dac:	00000000 	nop
PLIC_Init_Hard():
D:\MCU_WorkSpace\IntegrationTest\mcu4in_IT\function_cpus\common\src\plic/plic.c:184 (discriminator 3)
80102db0:	8fc20000 	lw	v0,0(s8)
80102db4:	24420001 	addiu	v0,v0,1
80102db8:	afc20000 	sw	v0,0(s8)
D:\MCU_WorkSpace\IntegrationTest\mcu4in_IT\function_cpus\common\src\plic/plic.c:184 (discriminator 1)
80102dbc:	8fc30000 	lw	v1,0(s8)
80102dc0:	8fc20038 	lw	v0,56(s8)
80102dc4:	0062102b 	sltu	v0,v1,v0
80102dc8:	1440ffd0 	bnez	v0,80102d0c <PLIC_Init_Hard+0x1c>
80102dcc:	00000000 	nop
80102dd0:	afc00020 	sw	zero,32(s8)
PLIC_SetThreshold():
d:\mcu_workspace\integrationtest\mcu4in_it\function_cpus\common\include\plic/plic_core.h:94
    uint32_t hartid = 0; // __RV_CSR_READ(CSR_MHARTID);
80102dd4:	afc00024 	sw	zero,36(s8)
d:\mcu_workspace\integrationtest\mcu4in_it\function_cpus\common\include\plic/plic_core.h:96
                    PLIC_THRESHOLD_OFFSET + (hartid << PLIC_THRESHOLD_SHIFT_PER_TARGET));
80102dd8:	8fc20024 	lw	v0,36(s8)
80102ddc:	00021b00 	sll	v1,v0,0xc
80102de0:	3c024110 	lui	v0,0x4110
80102de4:	34420600 	ori	v0,v0,0x600
80102de8:	00621021 	addu	v0,v1,v0
d:\mcu_workspace\integrationtest\mcu4in_it\function_cpus\common\include\plic/plic_core.h:95
    volatile uint32_t *thresh_reg = (uint32_t *)((PLIC_BASE) + \
80102dec:	afc20028 	sw	v0,40(s8)
d:\mcu_workspace\integrationtest\mcu4in_it\function_cpus\common\include\plic/plic_core.h:98
    *thresh_reg = thresh;
80102df0:	8fc20028 	lw	v0,40(s8)
80102df4:	8fc30020 	lw	v1,32(s8)
80102df8:	ac430000 	sw	v1,0(v0)
	...
PLIC_Init_Hard():
D:\MCU_WorkSpace\IntegrationTest\mcu4in_IT\function_cpus\common\src\plic/plic.c:190
    	// PLIC_EnableInterrupt(i);
        PLIC_DisableInterrupt(i);
        PLIC_SetPriority(i, 0);
    }
    PLIC_SetThreshold(0);
}
80102e04:	03c0e825 	move	sp,s8
80102e08:	8fbe0034 	lw	s8,52(sp)
80102e0c:	27bd0038 	addiu	sp,sp,56
80102e10:	03e00008 	jr	ra
80102e14:	00000000 	nop

80102e18 <PLIC_Init_Soft>:
PLIC_Init_Soft():
D:\MCU_WorkSpace\IntegrationTest\mcu4in_IT\function_cpus\common\src\plic/plic.c:193

void PLIC_Init_Soft()
{
80102e18:	27bdffe8 	addiu	sp,sp,-24
80102e1c:	afbf0014 	sw	ra,20(sp)
80102e20:	afbe0010 	sw	s8,16(sp)
80102e24:	03a0f025 	move	s8,sp
D:\MCU_WorkSpace\IntegrationTest\mcu4in_IT\function_cpus\common\src\plic/plic.c:194
    Interrupt_Init();  // set default handler
80102e28:	0c040a3d 	jal	801028f4 <Interrupt_Init>
80102e2c:	00000000 	nop
D:\MCU_WorkSpace\IntegrationTest\mcu4in_IT\function_cpus\common\src\plic/plic.c:195
}
80102e30:	00000000 	nop
80102e34:	03c0e825 	move	sp,s8
80102e38:	8fbf0014 	lw	ra,20(sp)
80102e3c:	8fbe0010 	lw	s8,16(sp)
80102e40:	27bd0018 	addiu	sp,sp,24
80102e44:	03e00008 	jr	ra
80102e48:	00000000 	nop

80102e4c <PLIC_Init>:
PLIC_Init():
D:\MCU_WorkSpace\IntegrationTest\mcu4in_IT\function_cpus\common\src\plic/plic.c:198

void PLIC_Init(uint32_t num_sources)
{
80102e4c:	27bdffe8 	addiu	sp,sp,-24
80102e50:	afbf0014 	sw	ra,20(sp)
80102e54:	afbe0010 	sw	s8,16(sp)
80102e58:	03a0f025 	move	s8,sp
80102e5c:	afc40018 	sw	a0,24(s8)
D:\MCU_WorkSpace\IntegrationTest\mcu4in_IT\function_cpus\common\src\plic/plic.c:199
    PLIC_Init_Soft();
80102e60:	0c040b86 	jal	80102e18 <PLIC_Init_Soft>
80102e64:	00000000 	nop
D:\MCU_WorkSpace\IntegrationTest\mcu4in_IT\function_cpus\common\src\plic/plic.c:200
    if (RD_RESTORE_FROM_CHECKER == 0) {
80102e68:	3c024100 	lui	v0,0x4100
80102e6c:	34420020 	ori	v0,v0,0x20
80102e70:	8c420000 	lw	v0,0(v0)
80102e74:	14400004 	bnez	v0,80102e88 <PLIC_Init+0x3c>
80102e78:	00000000 	nop
D:\MCU_WorkSpace\IntegrationTest\mcu4in_IT\function_cpus\common\src\plic/plic.c:201
      PLIC_Init_Hard(num_sources);
80102e7c:	8fc40018 	lw	a0,24(s8)
80102e80:	0c040b3c 	jal	80102cf0 <PLIC_Init_Hard>
80102e84:	00000000 	nop
D:\MCU_WorkSpace\IntegrationTest\mcu4in_IT\function_cpus\common\src\plic/plic.c:203
    }
}
80102e88:	00000000 	nop
80102e8c:	03c0e825 	move	sp,s8
80102e90:	8fbf0014 	lw	ra,20(sp)
80102e94:	8fbe0010 	lw	s8,16(sp)
80102e98:	27bd0018 	addiu	sp,sp,24
80102e9c:	03e00008 	jr	ra
80102ea0:	00000000 	nop

80102ea4 <UART_Init>:
UART_Init():
D:\MCU_WorkSpace\IntegrationTest\mcu4in_IT\function_cpus\Drivers\source/hm_uart_hjj.c:99
 *					HM_UART4	
 * @param[in]	uart_cfg:		UART_InitTypeDef  define uart				
 * @return 		None
 **********************************************************************/
void UART_Init(HM_UART_TypeDef *uartx ,UART_InitTypeDef *uart_cfg)
{
80102ea4:	27bdffe8 	addiu	sp,sp,-24
80102ea8:	afbe0014 	sw	s8,20(sp)
80102eac:	03a0f025 	move	s8,sp
80102eb0:	afc40018 	sw	a0,24(s8)
80102eb4:	afc5001c 	sw	a1,28(s8)
D:\MCU_WorkSpace\IntegrationTest\mcu4in_IT\function_cpus\Drivers\source/hm_uart_hjj.c:100
	unsigned char i=0x00;
80102eb8:	a3c00000 	sb	zero,0(s8)
D:\MCU_WorkSpace\IntegrationTest\mcu4in_IT\function_cpus\Drivers\source/hm_uart_hjj.c:101
	int bdivr=0x00,cd=0x00;
80102ebc:	afc00004 	sw	zero,4(s8)
80102ec0:	afc00008 	sw	zero,8(s8)
D:\MCU_WorkSpace\IntegrationTest\mcu4in_IT\function_cpus\Drivers\source/hm_uart_hjj.c:102
	int temp=0x00;
80102ec4:	afc0000c 	sw	zero,12(s8)
D:\MCU_WorkSpace\IntegrationTest\mcu4in_IT\function_cpus\Drivers\source/hm_uart_hjj.c:104
	/*configuer mode*/
	temp = uartx->MODE;
80102ec8:	8fc20018 	lw	v0,24(s8)
80102ecc:	8c420004 	lw	v0,4(v0)
80102ed0:	afc2000c 	sw	v0,12(s8)
D:\MCU_WorkSpace\IntegrationTest\mcu4in_IT\function_cpus\Drivers\source/hm_uart_hjj.c:106
	
	temp &=~UART_MODE_MASK;
80102ed4:	8fc2000c 	lw	v0,12(s8)
80102ed8:	7c026804 	ins	v0,zero,0x0,0xe
80102edc:	afc2000c 	sw	v0,12(s8)
D:\MCU_WorkSpace\IntegrationTest\mcu4in_IT\function_cpus\Drivers\source/hm_uart_hjj.c:107
	temp |= (uart_cfg->Word<<1);
80102ee0:	8fc2001c 	lw	v0,28(s8)
80102ee4:	90420004 	lbu	v0,4(v0)
80102ee8:	00021040 	sll	v0,v0,0x1
80102eec:	8fc3000c 	lw	v1,12(s8)
80102ef0:	00621025 	or	v0,v1,v0
80102ef4:	afc2000c 	sw	v0,12(s8)
D:\MCU_WorkSpace\IntegrationTest\mcu4in_IT\function_cpus\Drivers\source/hm_uart_hjj.c:108
	temp |= (uart_cfg->Stop<<6);
80102ef8:	8fc2001c 	lw	v0,28(s8)
80102efc:	90420005 	lbu	v0,5(v0)
80102f00:	00021180 	sll	v0,v0,0x6
80102f04:	8fc3000c 	lw	v1,12(s8)
80102f08:	00621025 	or	v0,v1,v0
80102f0c:	afc2000c 	sw	v0,12(s8)
D:\MCU_WorkSpace\IntegrationTest\mcu4in_IT\function_cpus\Drivers\source/hm_uart_hjj.c:109
	temp |= (uart_cfg->FifoAccess<<12);
80102f10:	8fc2001c 	lw	v0,28(s8)
80102f14:	90420009 	lbu	v0,9(v0)
80102f18:	00021300 	sll	v0,v0,0xc
80102f1c:	8fc3000c 	lw	v1,12(s8)
80102f20:	00621025 	or	v0,v1,v0
80102f24:	afc2000c 	sw	v0,12(s8)
D:\MCU_WorkSpace\IntegrationTest\mcu4in_IT\function_cpus\Drivers\source/hm_uart_hjj.c:110
	temp |= (uart_cfg->ChannelMode<<8);
80102f28:	8fc2001c 	lw	v0,28(s8)
80102f2c:	9042000b 	lbu	v0,11(v0)
80102f30:	00021200 	sll	v0,v0,0x8
80102f34:	8fc3000c 	lw	v1,12(s8)
80102f38:	00621025 	or	v0,v1,v0
80102f3c:	afc2000c 	sw	v0,12(s8)
D:\MCU_WorkSpace\IntegrationTest\mcu4in_IT\function_cpus\Drivers\source/hm_uart_hjj.c:111
	temp |= (uart_cfg->IrdaMode<<11);
80102f40:	8fc2001c 	lw	v0,28(s8)
80102f44:	9042000a 	lbu	v0,10(v0)
80102f48:	000212c0 	sll	v0,v0,0xb
80102f4c:	8fc3000c 	lw	v1,12(s8)
80102f50:	00621025 	or	v0,v1,v0
80102f54:	afc2000c 	sw	v0,12(s8)
D:\MCU_WorkSpace\IntegrationTest\mcu4in_IT\function_cpus\Drivers\source/hm_uart_hjj.c:112
	temp |= (uart_cfg->ClockSelect<<10);
80102f58:	8fc2001c 	lw	v0,28(s8)
80102f5c:	9042000c 	lbu	v0,12(v0)
80102f60:	00021280 	sll	v0,v0,0xa
80102f64:	8fc3000c 	lw	v1,12(s8)
80102f68:	00621025 	or	v0,v1,v0
80102f6c:	afc2000c 	sw	v0,12(s8)
D:\MCU_WorkSpace\IntegrationTest\mcu4in_IT\function_cpus\Drivers\source/hm_uart_hjj.c:113
	temp |= (uart_cfg->ClockPrescalar8<<0);
80102f70:	8fc2001c 	lw	v0,28(s8)
80102f74:	9042000d 	lbu	v0,13(v0)
80102f78:	00401825 	move	v1,v0
80102f7c:	8fc2000c 	lw	v0,12(s8)
80102f80:	00431025 	or	v0,v0,v1
80102f84:	afc2000c 	sw	v0,12(s8)
D:\MCU_WorkSpace\IntegrationTest\mcu4in_IT\function_cpus\Drivers\source/hm_uart_hjj.c:114
	temp |= (uart_cfg->Parity<<3);
80102f88:	8fc2001c 	lw	v0,28(s8)
80102f8c:	90420006 	lbu	v0,6(v0)
80102f90:	000210c0 	sll	v0,v0,0x3
80102f94:	8fc3000c 	lw	v1,12(s8)
80102f98:	00621025 	or	v0,v1,v0
80102f9c:	afc2000c 	sw	v0,12(s8)
D:\MCU_WorkSpace\IntegrationTest\mcu4in_IT\function_cpus\Drivers\source/hm_uart_hjj.c:116

 	uartx->MODE = temp;
80102fa0:	8fc3000c 	lw	v1,12(s8)
80102fa4:	8fc20018 	lw	v0,24(s8)
80102fa8:	ac430004 	sw	v1,4(v0)
D:\MCU_WorkSpace\IntegrationTest\mcu4in_IT\function_cpus\Drivers\source/hm_uart_hjj.c:127
// 			break;
// 		}
// 	}
// #else
    // TODO change gcc uart
	for (i = 0; i < 13; i++) {
80102fac:	a3c00000 	sb	zero,0(s8)
80102fb0:	10000027 	b	80103050 <UART_Init+0x1ac>
80102fb4:	00000000 	nop
D:\MCU_WorkSpace\IntegrationTest\mcu4in_IT\function_cpus\Drivers\source/hm_uart_hjj.c:128
		if (uart_cfg_8M[i][0] == uart_cfg->Baudrate) {
80102fb8:	93c30000 	lbu	v1,0(s8)
80102fbc:	3c048010 	lui	a0,0x8010
80102fc0:	00601025 	move	v0,v1
80102fc4:	00021040 	sll	v0,v0,0x1
80102fc8:	00431021 	addu	v0,v0,v1
80102fcc:	00021080 	sll	v0,v0,0x2
80102fd0:	24833ec0 	addiu	v1,a0,16064
80102fd4:	00431021 	addu	v0,v0,v1
80102fd8:	8c430000 	lw	v1,0(v0)
80102fdc:	8fc2001c 	lw	v0,28(s8)
80102fe0:	8c420000 	lw	v0,0(v0)
80102fe4:	14620017 	bne	v1,v0,80103044 <UART_Init+0x1a0>
80102fe8:	00000000 	nop
D:\MCU_WorkSpace\IntegrationTest\mcu4in_IT\function_cpus\Drivers\source/hm_uart_hjj.c:129
			bdivr = uart_cfg_8M[i][1];
80102fec:	93c30000 	lbu	v1,0(s8)
80102ff0:	3c048010 	lui	a0,0x8010
80102ff4:	00601025 	move	v0,v1
80102ff8:	00021040 	sll	v0,v0,0x1
80102ffc:	00431021 	addu	v0,v0,v1
80103000:	00021080 	sll	v0,v0,0x2
80103004:	24833ec0 	addiu	v1,a0,16064
80103008:	00431021 	addu	v0,v0,v1
8010300c:	8c420004 	lw	v0,4(v0)
80103010:	afc20004 	sw	v0,4(s8)
D:\MCU_WorkSpace\IntegrationTest\mcu4in_IT\function_cpus\Drivers\source/hm_uart_hjj.c:130
			cd = uart_cfg_8M[i][2];
80103014:	93c30000 	lbu	v1,0(s8)
80103018:	3c048010 	lui	a0,0x8010
8010301c:	00601025 	move	v0,v1
80103020:	00021040 	sll	v0,v0,0x1
80103024:	00431021 	addu	v0,v0,v1
80103028:	00021080 	sll	v0,v0,0x2
8010302c:	24833ec0 	addiu	v1,a0,16064
80103030:	00431021 	addu	v0,v0,v1
80103034:	8c420008 	lw	v0,8(v0)
80103038:	afc20008 	sw	v0,8(s8)
D:\MCU_WorkSpace\IntegrationTest\mcu4in_IT\function_cpus\Drivers\source/hm_uart_hjj.c:131
			break;
8010303c:	10000008 	b	80103060 <UART_Init+0x1bc>
80103040:	00000000 	nop
D:\MCU_WorkSpace\IntegrationTest\mcu4in_IT\function_cpus\Drivers\source/hm_uart_hjj.c:127 (discriminator 2)
	for (i = 0; i < 13; i++) {
80103044:	93c20000 	lbu	v0,0(s8)
80103048:	24420001 	addiu	v0,v0,1
8010304c:	a3c20000 	sb	v0,0(s8)
D:\MCU_WorkSpace\IntegrationTest\mcu4in_IT\function_cpus\Drivers\source/hm_uart_hjj.c:127 (discriminator 1)
80103050:	93c20000 	lbu	v0,0(s8)
80103054:	2c42000d 	sltiu	v0,v0,13
80103058:	1440ffd7 	bnez	v0,80102fb8 <UART_Init+0x114>
8010305c:	00000000 	nop
D:\MCU_WorkSpace\IntegrationTest\mcu4in_IT\function_cpus\Drivers\source/hm_uart_hjj.c:135
		}
	}	
// #endif
	if(i==12)
80103060:	93c30000 	lbu	v1,0(s8)
80103064:	2402000c 	li	v0,12
80103068:	1462001b 	bne	v1,v0,801030d8 <UART_Init+0x234>
8010306c:	00000000 	nop
D:\MCU_WorkSpace\IntegrationTest\mcu4in_IT\function_cpus\Drivers\source/hm_uart_hjj.c:137
	{										/*9600,207, 18*/
		temp = uartx->BDIVR;
80103070:	8fc20018 	lw	v0,24(s8)
80103074:	8c420034 	lw	v0,52(v0)
80103078:	afc2000c 	sw	v0,12(s8)
D:\MCU_WorkSpace\IntegrationTest\mcu4in_IT\function_cpus\Drivers\source/hm_uart_hjj.c:138
		temp &=~UART_BDIVR_MASK;
8010307c:	8fc2000c 	lw	v0,12(s8)
80103080:	7c023804 	ins	v0,zero,0x0,0x8
80103084:	afc2000c 	sw	v0,12(s8)
D:\MCU_WorkSpace\IntegrationTest\mcu4in_IT\function_cpus\Drivers\source/hm_uart_hjj.c:139
		temp |= 129;
80103088:	8fc2000c 	lw	v0,12(s8)
8010308c:	34420081 	ori	v0,v0,0x81
80103090:	afc2000c 	sw	v0,12(s8)
D:\MCU_WorkSpace\IntegrationTest\mcu4in_IT\function_cpus\Drivers\source/hm_uart_hjj.c:140
		uartx->BDIVR = temp;
80103094:	8fc3000c 	lw	v1,12(s8)
80103098:	8fc20018 	lw	v0,24(s8)
8010309c:	ac430034 	sw	v1,52(v0)
D:\MCU_WorkSpace\IntegrationTest\mcu4in_IT\function_cpus\Drivers\source/hm_uart_hjj.c:142
		
		temp = uartx->BRGR;
801030a0:	8fc20018 	lw	v0,24(s8)
801030a4:	8c420018 	lw	v0,24(v0)
801030a8:	afc2000c 	sw	v0,12(s8)
D:\MCU_WorkSpace\IntegrationTest\mcu4in_IT\function_cpus\Drivers\source/hm_uart_hjj.c:143
		temp &=~UART_BRGR_MASK;
801030ac:	8fc2000c 	lw	v0,12(s8)
801030b0:	7c027804 	ins	v0,zero,0x0,0x10
801030b4:	afc2000c 	sw	v0,12(s8)
D:\MCU_WorkSpace\IntegrationTest\mcu4in_IT\function_cpus\Drivers\source/hm_uart_hjj.c:144
		temp |= 4;
801030b8:	8fc2000c 	lw	v0,12(s8)
801030bc:	34420004 	ori	v0,v0,0x4
801030c0:	afc2000c 	sw	v0,12(s8)
D:\MCU_WorkSpace\IntegrationTest\mcu4in_IT\function_cpus\Drivers\source/hm_uart_hjj.c:145
		uartx->BRGR = temp;		
801030c4:	8fc3000c 	lw	v1,12(s8)
801030c8:	8fc20018 	lw	v0,24(s8)
801030cc:	ac430018 	sw	v1,24(v0)
801030d0:	1000001b 	b	80103140 <UART_Init+0x29c>
801030d4:	00000000 	nop
D:\MCU_WorkSpace\IntegrationTest\mcu4in_IT\function_cpus\Drivers\source/hm_uart_hjj.c:147
	}else{
		temp = uartx->BDIVR;
801030d8:	8fc20018 	lw	v0,24(s8)
801030dc:	8c420034 	lw	v0,52(v0)
801030e0:	afc2000c 	sw	v0,12(s8)
D:\MCU_WorkSpace\IntegrationTest\mcu4in_IT\function_cpus\Drivers\source/hm_uart_hjj.c:148
		temp &=~UART_BDIVR_MASK;
801030e4:	8fc2000c 	lw	v0,12(s8)
801030e8:	7c023804 	ins	v0,zero,0x0,0x8
801030ec:	afc2000c 	sw	v0,12(s8)
D:\MCU_WorkSpace\IntegrationTest\mcu4in_IT\function_cpus\Drivers\source/hm_uart_hjj.c:149
		temp |= bdivr;
801030f0:	8fc3000c 	lw	v1,12(s8)
801030f4:	8fc20004 	lw	v0,4(s8)
801030f8:	00621025 	or	v0,v1,v0
801030fc:	afc2000c 	sw	v0,12(s8)
D:\MCU_WorkSpace\IntegrationTest\mcu4in_IT\function_cpus\Drivers\source/hm_uart_hjj.c:150
		uartx->BDIVR = temp;
80103100:	8fc3000c 	lw	v1,12(s8)
80103104:	8fc20018 	lw	v0,24(s8)
80103108:	ac430034 	sw	v1,52(v0)
D:\MCU_WorkSpace\IntegrationTest\mcu4in_IT\function_cpus\Drivers\source/hm_uart_hjj.c:152
		
		temp = uartx->BRGR;
8010310c:	8fc20018 	lw	v0,24(s8)
80103110:	8c420018 	lw	v0,24(v0)
80103114:	afc2000c 	sw	v0,12(s8)
D:\MCU_WorkSpace\IntegrationTest\mcu4in_IT\function_cpus\Drivers\source/hm_uart_hjj.c:153
		temp &=~UART_BRGR_MASK;
80103118:	8fc2000c 	lw	v0,12(s8)
8010311c:	7c027804 	ins	v0,zero,0x0,0x10
80103120:	afc2000c 	sw	v0,12(s8)
D:\MCU_WorkSpace\IntegrationTest\mcu4in_IT\function_cpus\Drivers\source/hm_uart_hjj.c:154
		temp |= cd;
80103124:	8fc3000c 	lw	v1,12(s8)
80103128:	8fc20008 	lw	v0,8(s8)
8010312c:	00621025 	or	v0,v1,v0
80103130:	afc2000c 	sw	v0,12(s8)
D:\MCU_WorkSpace\IntegrationTest\mcu4in_IT\function_cpus\Drivers\source/hm_uart_hjj.c:155
		uartx->BRGR = temp;	
80103134:	8fc3000c 	lw	v1,12(s8)
80103138:	8fc20018 	lw	v0,24(s8)
8010313c:	ac430018 	sw	v1,24(v0)
D:\MCU_WorkSpace\IntegrationTest\mcu4in_IT\function_cpus\Drivers\source/hm_uart_hjj.c:158
	}

	temp = uartx->CTRL;
80103140:	8fc20018 	lw	v0,24(s8)
80103144:	8c420000 	lw	v0,0(v0)
80103148:	afc2000c 	sw	v0,12(s8)
D:\MCU_WorkSpace\IntegrationTest\mcu4in_IT\function_cpus\Drivers\source/hm_uart_hjj.c:159
	temp &= ~(1<<8);
8010314c:	8fc2000c 	lw	v0,12(s8)
80103150:	7c024204 	ins	v0,zero,0x8,0x1
80103154:	afc2000c 	sw	v0,12(s8)
D:\MCU_WorkSpace\IntegrationTest\mcu4in_IT\function_cpus\Drivers\source/hm_uart_hjj.c:160
	temp &= ~(1<<7);
80103158:	8fc2000c 	lw	v0,12(s8)
8010315c:	7c0239c4 	ins	v0,zero,0x7,0x1
80103160:	afc2000c 	sw	v0,12(s8)
D:\MCU_WorkSpace\IntegrationTest\mcu4in_IT\function_cpus\Drivers\source/hm_uart_hjj.c:161
	if(uart_cfg->TransmitEnable == UART_TRANSMIT_ENABLE){
80103164:	8fc2001c 	lw	v0,28(s8)
80103168:	90430007 	lbu	v1,7(v0)
8010316c:	24020001 	li	v0,1
80103170:	14620009 	bne	v1,v0,80103198 <UART_Init+0x2f4>
80103174:	00000000 	nop
D:\MCU_WorkSpace\IntegrationTest\mcu4in_IT\function_cpus\Drivers\source/hm_uart_hjj.c:162
		temp |= (1<<4);
80103178:	8fc2000c 	lw	v0,12(s8)
8010317c:	34420010 	ori	v0,v0,0x10
80103180:	afc2000c 	sw	v0,12(s8)
D:\MCU_WorkSpace\IntegrationTest\mcu4in_IT\function_cpus\Drivers\source/hm_uart_hjj.c:163
		temp &= ~(1<<5);
80103184:	8fc2000c 	lw	v0,12(s8)
80103188:	7c022944 	ins	v0,zero,0x5,0x1
8010318c:	afc2000c 	sw	v0,12(s8)
80103190:	10000004 	b	801031a4 <UART_Init+0x300>
80103194:	00000000 	nop
D:\MCU_WorkSpace\IntegrationTest\mcu4in_IT\function_cpus\Drivers\source/hm_uart_hjj.c:165
	}else{
		temp |= (1<<5);
80103198:	8fc2000c 	lw	v0,12(s8)
8010319c:	34420020 	ori	v0,v0,0x20
801031a0:	afc2000c 	sw	v0,12(s8)
D:\MCU_WorkSpace\IntegrationTest\mcu4in_IT\function_cpus\Drivers\source/hm_uart_hjj.c:168
	}

	if(uart_cfg->ReceiveEnable == UART_RECEIVE_ENABLE){
801031a4:	8fc2001c 	lw	v0,28(s8)
801031a8:	90430008 	lbu	v1,8(v0)
801031ac:	24020001 	li	v0,1
801031b0:	14620009 	bne	v1,v0,801031d8 <UART_Init+0x334>
801031b4:	00000000 	nop
D:\MCU_WorkSpace\IntegrationTest\mcu4in_IT\function_cpus\Drivers\source/hm_uart_hjj.c:169
		temp |= (1<<2);
801031b8:	8fc2000c 	lw	v0,12(s8)
801031bc:	34420004 	ori	v0,v0,0x4
801031c0:	afc2000c 	sw	v0,12(s8)
D:\MCU_WorkSpace\IntegrationTest\mcu4in_IT\function_cpus\Drivers\source/hm_uart_hjj.c:170
		temp &= ~(1<<3);
801031c4:	8fc2000c 	lw	v0,12(s8)
801031c8:	7c0218c4 	ins	v0,zero,0x3,0x1
801031cc:	afc2000c 	sw	v0,12(s8)
801031d0:	10000004 	b	801031e4 <UART_Init+0x340>
801031d4:	00000000 	nop
D:\MCU_WorkSpace\IntegrationTest\mcu4in_IT\function_cpus\Drivers\source/hm_uart_hjj.c:172
	}else{
		temp |= (1<<3);
801031d8:	8fc2000c 	lw	v0,12(s8)
801031dc:	34420008 	ori	v0,v0,0x8
801031e0:	afc2000c 	sw	v0,12(s8)
D:\MCU_WorkSpace\IntegrationTest\mcu4in_IT\function_cpus\Drivers\source/hm_uart_hjj.c:174
	}
	temp |= (1<<1);
801031e4:	8fc2000c 	lw	v0,12(s8)
801031e8:	34420002 	ori	v0,v0,0x2
801031ec:	afc2000c 	sw	v0,12(s8)
D:\MCU_WorkSpace\IntegrationTest\mcu4in_IT\function_cpus\Drivers\source/hm_uart_hjj.c:175
	temp |= (1<<0);
801031f0:	8fc2000c 	lw	v0,12(s8)
801031f4:	34420001 	ori	v0,v0,0x1
801031f8:	afc2000c 	sw	v0,12(s8)
D:\MCU_WorkSpace\IntegrationTest\mcu4in_IT\function_cpus\Drivers\source/hm_uart_hjj.c:176
	uartx->CTRL = temp;
801031fc:	8fc3000c 	lw	v1,12(s8)
80103200:	8fc20018 	lw	v0,24(s8)
80103204:	ac430000 	sw	v1,0(v0)
D:\MCU_WorkSpace\IntegrationTest\mcu4in_IT\function_cpus\Drivers\source/hm_uart_hjj.c:178

}
80103208:	00000000 	nop
8010320c:	03c0e825 	move	sp,s8
80103210:	8fbe0014 	lw	s8,20(sp)
80103214:	27bd0018 	addiu	sp,sp,24
80103218:	03e00008 	jr	ra
8010321c:	00000000 	nop

80103220 <UART_ConfigBaud>:
UART_ConfigBaud():
D:\MCU_WorkSpace\IntegrationTest\mcu4in_IT\function_cpus\Drivers\source/hm_uart_hjj.c:192
 *					HM_UART4	
 * @param[in]	bdiv		,		cd				
 * @return 		None
 **********************************************************************/
void UART_ConfigBaud(HM_UART_TypeDef *uartx,uint8_t bdiv,	uint8_t	cd)
{
80103220:	27bdfff0 	addiu	sp,sp,-16
80103224:	afbe000c 	sw	s8,12(sp)
80103228:	03a0f025 	move	s8,sp
8010322c:	afc40010 	sw	a0,16(s8)
80103230:	00a01025 	move	v0,a1
80103234:	00c01825 	move	v1,a2
80103238:	a3c20014 	sb	v0,20(s8)
8010323c:	00601025 	move	v0,v1
80103240:	a3c20018 	sb	v0,24(s8)
D:\MCU_WorkSpace\IntegrationTest\mcu4in_IT\function_cpus\Drivers\source/hm_uart_hjj.c:193
	uint32_t temp=0x00;
80103244:	afc00000 	sw	zero,0(s8)
D:\MCU_WorkSpace\IntegrationTest\mcu4in_IT\function_cpus\Drivers\source/hm_uart_hjj.c:194
	temp = uartx->BDIVR;
80103248:	8fc20010 	lw	v0,16(s8)
8010324c:	8c420034 	lw	v0,52(v0)
80103250:	afc20000 	sw	v0,0(s8)
D:\MCU_WorkSpace\IntegrationTest\mcu4in_IT\function_cpus\Drivers\source/hm_uart_hjj.c:195
	temp &=~UART_BDIVR_MASK;
80103254:	8fc20000 	lw	v0,0(s8)
80103258:	7c023804 	ins	v0,zero,0x0,0x8
8010325c:	afc20000 	sw	v0,0(s8)
D:\MCU_WorkSpace\IntegrationTest\mcu4in_IT\function_cpus\Drivers\source/hm_uart_hjj.c:196
	temp |= bdiv;
80103260:	93c20014 	lbu	v0,20(s8)
80103264:	8fc30000 	lw	v1,0(s8)
80103268:	00621025 	or	v0,v1,v0
8010326c:	afc20000 	sw	v0,0(s8)
D:\MCU_WorkSpace\IntegrationTest\mcu4in_IT\function_cpus\Drivers\source/hm_uart_hjj.c:197
	uartx->BDIVR = temp;
80103270:	8fc20010 	lw	v0,16(s8)
80103274:	8fc30000 	lw	v1,0(s8)
80103278:	ac430034 	sw	v1,52(v0)
D:\MCU_WorkSpace\IntegrationTest\mcu4in_IT\function_cpus\Drivers\source/hm_uart_hjj.c:199

	temp = uartx->BRGR;
8010327c:	8fc20010 	lw	v0,16(s8)
80103280:	8c420018 	lw	v0,24(v0)
80103284:	afc20000 	sw	v0,0(s8)
D:\MCU_WorkSpace\IntegrationTest\mcu4in_IT\function_cpus\Drivers\source/hm_uart_hjj.c:200
	temp &=~UART_BRGR_MASK;
80103288:	8fc20000 	lw	v0,0(s8)
8010328c:	7c027804 	ins	v0,zero,0x0,0x10
80103290:	afc20000 	sw	v0,0(s8)
D:\MCU_WorkSpace\IntegrationTest\mcu4in_IT\function_cpus\Drivers\source/hm_uart_hjj.c:201
	temp |= cd;
80103294:	93c20018 	lbu	v0,24(s8)
80103298:	8fc30000 	lw	v1,0(s8)
8010329c:	00621025 	or	v0,v1,v0
801032a0:	afc20000 	sw	v0,0(s8)
D:\MCU_WorkSpace\IntegrationTest\mcu4in_IT\function_cpus\Drivers\source/hm_uart_hjj.c:202
	uartx->BRGR = temp;	
801032a4:	8fc20010 	lw	v0,16(s8)
801032a8:	8fc30000 	lw	v1,0(s8)
801032ac:	ac430018 	sw	v1,24(v0)
D:\MCU_WorkSpace\IntegrationTest\mcu4in_IT\function_cpus\Drivers\source/hm_uart_hjj.c:203
}
801032b0:	00000000 	nop
801032b4:	03c0e825 	move	sp,s8
801032b8:	8fbe000c 	lw	s8,12(sp)
801032bc:	27bd0010 	addiu	sp,sp,16
801032c0:	03e00008 	jr	ra
801032c4:	00000000 	nop

801032c8 <UART_PollPutChar>:
UART_PollPutChar():
D:\MCU_WorkSpace\IntegrationTest\mcu4in_IT\function_cpus\Drivers\source/hm_uart_hjj.c:217
 *					HM_UART4	
 * @param[in]	c:		char				
 * @return 		None
 **********************************************************************/
void UART_PollPutChar(HM_UART_TypeDef *uartx,int c)
{
801032c8:	27bdfff8 	addiu	sp,sp,-8
801032cc:	afbe0004 	sw	s8,4(sp)
801032d0:	03a0f025 	move	s8,sp
801032d4:	afc40008 	sw	a0,8(s8)
801032d8:	afc5000c 	sw	a1,12(s8)
D:\MCU_WorkSpace\IntegrationTest\mcu4in_IT\function_cpus\Drivers\source/hm_uart_hjj.c:219
	//while(!(uartx->CSR & UART_CSR_TEMPTY_MASK));
	uartx->TFIFO = c;
801032dc:	8fc3000c 	lw	v1,12(s8)
801032e0:	8fc20008 	lw	v0,8(s8)
801032e4:	ac430030 	sw	v1,48(v0)
D:\MCU_WorkSpace\IntegrationTest\mcu4in_IT\function_cpus\Drivers\source/hm_uart_hjj.c:220
}
801032e8:	00000000 	nop
801032ec:	03c0e825 	move	sp,s8
801032f0:	8fbe0004 	lw	s8,4(sp)
801032f4:	27bd0008 	addiu	sp,sp,8
801032f8:	03e00008 	jr	ra
801032fc:	00000000 	nop

80103300 <UART_BlockPutChar>:
UART_BlockPutChar():
D:\MCU_WorkSpace\IntegrationTest\mcu4in_IT\function_cpus\Drivers\source/hm_uart_hjj.c:234
 *					HM_UART4	
 * @param[in]	c:		char				
 * @return 		None
 **********************************************************************/
void UART_BlockPutChar(HM_UART_TypeDef *uartx,int c)
{
80103300:	27bdfff8 	addiu	sp,sp,-8
80103304:	afbe0004 	sw	s8,4(sp)
80103308:	03a0f025 	move	s8,sp
8010330c:	afc40008 	sw	a0,8(s8)
80103310:	afc5000c 	sw	a1,12(s8)
D:\MCU_WorkSpace\IntegrationTest\mcu4in_IT\function_cpus\Drivers\source/hm_uart_hjj.c:235
	while(!(uartx->CSR & UART_CSR_TEMPTY_MASK));
80103314:	00000000 	nop
D:\MCU_WorkSpace\IntegrationTest\mcu4in_IT\function_cpus\Drivers\source/hm_uart_hjj.c:235 (discriminator 1)
80103318:	8fc20008 	lw	v0,8(s8)
8010331c:	8c42002c 	lw	v0,44(v0)
80103320:	30420008 	andi	v0,v0,0x8
80103324:	1040fffc 	beqz	v0,80103318 <UART_BlockPutChar+0x18>
80103328:	00000000 	nop
D:\MCU_WorkSpace\IntegrationTest\mcu4in_IT\function_cpus\Drivers\source/hm_uart_hjj.c:236
	uartx->TFIFO = c;
8010332c:	8fc3000c 	lw	v1,12(s8)
80103330:	8fc20008 	lw	v0,8(s8)
80103334:	ac430030 	sw	v1,48(v0)
D:\MCU_WorkSpace\IntegrationTest\mcu4in_IT\function_cpus\Drivers\source/hm_uart_hjj.c:237
}
80103338:	00000000 	nop
8010333c:	03c0e825 	move	sp,s8
80103340:	8fbe0004 	lw	s8,4(sp)
80103344:	27bd0008 	addiu	sp,sp,8
80103348:	03e00008 	jr	ra
8010334c:	00000000 	nop

80103350 <UART_BlockPutChars>:
UART_BlockPutChars():
D:\MCU_WorkSpace\IntegrationTest\mcu4in_IT\function_cpus\Drivers\source/hm_uart_hjj.c:239
void UART_BlockPutChars(HM_UART_TypeDef *uartx,unsigned char *data,unsigned int size)
{
80103350:	27bdffe0 	addiu	sp,sp,-32
80103354:	afbf001c 	sw	ra,28(sp)
80103358:	afbe0018 	sw	s8,24(sp)
8010335c:	03a0f025 	move	s8,sp
80103360:	afc40020 	sw	a0,32(s8)
80103364:	afc50024 	sw	a1,36(s8)
80103368:	afc60028 	sw	a2,40(s8)
D:\MCU_WorkSpace\IntegrationTest\mcu4in_IT\function_cpus\Drivers\source/hm_uart_hjj.c:240
	unsigned int i=0;
8010336c:	afc00010 	sw	zero,16(s8)
D:\MCU_WorkSpace\IntegrationTest\mcu4in_IT\function_cpus\Drivers\source/hm_uart_hjj.c:241
	for(i=0;i<size;i++){
80103370:	afc00010 	sw	zero,16(s8)
80103374:	1000000c 	b	801033a8 <UART_BlockPutChars+0x58>
80103378:	00000000 	nop
D:\MCU_WorkSpace\IntegrationTest\mcu4in_IT\function_cpus\Drivers\source/hm_uart_hjj.c:242 (discriminator 3)
		UART_BlockPutChar(uartx,data[i]);
8010337c:	8fc30024 	lw	v1,36(s8)
80103380:	8fc20010 	lw	v0,16(s8)
80103384:	00621021 	addu	v0,v1,v0
80103388:	90420000 	lbu	v0,0(v0)
8010338c:	00402825 	move	a1,v0
80103390:	8fc40020 	lw	a0,32(s8)
80103394:	0c040cc0 	jal	80103300 <UART_BlockPutChar>
80103398:	00000000 	nop
D:\MCU_WorkSpace\IntegrationTest\mcu4in_IT\function_cpus\Drivers\source/hm_uart_hjj.c:241 (discriminator 3)
	for(i=0;i<size;i++){
8010339c:	8fc20010 	lw	v0,16(s8)
801033a0:	24420001 	addiu	v0,v0,1
801033a4:	afc20010 	sw	v0,16(s8)
D:\MCU_WorkSpace\IntegrationTest\mcu4in_IT\function_cpus\Drivers\source/hm_uart_hjj.c:241 (discriminator 1)
801033a8:	8fc30010 	lw	v1,16(s8)
801033ac:	8fc20028 	lw	v0,40(s8)
801033b0:	0062102b 	sltu	v0,v1,v0
801033b4:	1440fff1 	bnez	v0,8010337c <UART_BlockPutChars+0x2c>
801033b8:	00000000 	nop
	...
D:\MCU_WorkSpace\IntegrationTest\mcu4in_IT\function_cpus\Drivers\source/hm_uart_hjj.c:244
	}
}
801033c4:	03c0e825 	move	sp,s8
801033c8:	8fbf001c 	lw	ra,28(sp)
801033cc:	8fbe0018 	lw	s8,24(sp)
801033d0:	27bd0020 	addiu	sp,sp,32
801033d4:	03e00008 	jr	ra
801033d8:	00000000 	nop

801033dc <UART_PollFifoPutChar>:
UART_PollFifoPutChar():
D:\MCU_WorkSpace\IntegrationTest\mcu4in_IT\function_cpus\Drivers\source/hm_uart_hjj.c:247

void UART_PollFifoPutChar(HM_UART_TypeDef *uartx,int c)
{
801033dc:	27bdfff8 	addiu	sp,sp,-8
801033e0:	afbe0004 	sw	s8,4(sp)
801033e4:	03a0f025 	move	s8,sp
801033e8:	afc40008 	sw	a0,8(s8)
801033ec:	afc5000c 	sw	a1,12(s8)
D:\MCU_WorkSpace\IntegrationTest\mcu4in_IT\function_cpus\Drivers\source/hm_uart_hjj.c:249
	//while((uartx->CSR & UART_CSR_TFUL_MASK));
	uartx->TFIFO = c;
801033f0:	8fc3000c 	lw	v1,12(s8)
801033f4:	8fc20008 	lw	v0,8(s8)
801033f8:	ac430030 	sw	v1,48(v0)
D:\MCU_WorkSpace\IntegrationTest\mcu4in_IT\function_cpus\Drivers\source/hm_uart_hjj.c:250
}
801033fc:	00000000 	nop
80103400:	03c0e825 	move	sp,s8
80103404:	8fbe0004 	lw	s8,4(sp)
80103408:	27bd0008 	addiu	sp,sp,8
8010340c:	03e00008 	jr	ra
80103410:	00000000 	nop

80103414 <UART_PollGetChar>:
UART_PollGetChar():
D:\MCU_WorkSpace\IntegrationTest\mcu4in_IT\function_cpus\Drivers\source/hm_uart_hjj.c:263
 *					HM_UART3
 *					HM_UART4				
 * @return 			the	char of received
 **********************************************************************/
int UART_PollGetChar(HM_UART_TypeDef *uartx)
{
80103414:	27bdfff0 	addiu	sp,sp,-16
80103418:	afbe000c 	sw	s8,12(sp)
8010341c:	03a0f025 	move	s8,sp
80103420:	afc40010 	sw	a0,16(s8)
D:\MCU_WorkSpace\IntegrationTest\mcu4in_IT\function_cpus\Drivers\source/hm_uart_hjj.c:264
	int ret=-1;
80103424:	2402ffff 	li	v0,-1
80103428:	afc20000 	sw	v0,0(s8)
D:\MCU_WorkSpace\IntegrationTest\mcu4in_IT\function_cpus\Drivers\source/hm_uart_hjj.c:265
	if(!(uartx->CSR & UART_CSR_REMPTY_MASK)){
8010342c:	8fc20010 	lw	v0,16(s8)
80103430:	8c42002c 	lw	v0,44(v0)
80103434:	30420002 	andi	v0,v0,0x2
80103438:	14400004 	bnez	v0,8010344c <UART_PollGetChar+0x38>
8010343c:	00000000 	nop
D:\MCU_WorkSpace\IntegrationTest\mcu4in_IT\function_cpus\Drivers\source/hm_uart_hjj.c:266
		ret = uartx->RFIFO;
80103440:	8fc20010 	lw	v0,16(s8)
80103444:	8c420030 	lw	v0,48(v0)
80103448:	afc20000 	sw	v0,0(s8)
D:\MCU_WorkSpace\IntegrationTest\mcu4in_IT\function_cpus\Drivers\source/hm_uart_hjj.c:268
	}
	return ret;
8010344c:	8fc20000 	lw	v0,0(s8)
D:\MCU_WorkSpace\IntegrationTest\mcu4in_IT\function_cpus\Drivers\source/hm_uart_hjj.c:269
}
80103450:	03c0e825 	move	sp,s8
80103454:	8fbe000c 	lw	s8,12(sp)
80103458:	27bd0010 	addiu	sp,sp,16
8010345c:	03e00008 	jr	ra
80103460:	00000000 	nop

80103464 <UART_BlockGetChar>:
UART_BlockGetChar():
D:\MCU_WorkSpace\IntegrationTest\mcu4in_IT\function_cpus\Drivers\source/hm_uart_hjj.c:282
 *					HM_UART3
 *					HM_UART4				
 * @return 			the	char of received
 **********************************************************************/
int UART_BlockGetChar(HM_UART_TypeDef *uartx)
{
80103464:	27bdfff0 	addiu	sp,sp,-16
80103468:	afbe000c 	sw	s8,12(sp)
8010346c:	03a0f025 	move	s8,sp
80103470:	afc40010 	sw	a0,16(s8)
D:\MCU_WorkSpace\IntegrationTest\mcu4in_IT\function_cpus\Drivers\source/hm_uart_hjj.c:283
	int ret=-1;
80103474:	2402ffff 	li	v0,-1
80103478:	afc20000 	sw	v0,0(s8)
D:\MCU_WorkSpace\IntegrationTest\mcu4in_IT\function_cpus\Drivers\source/hm_uart_hjj.c:284
	int overtime=20000;
8010347c:	24024e20 	li	v0,20000
80103480:	afc20004 	sw	v0,4(s8)
D:\MCU_WorkSpace\IntegrationTest\mcu4in_IT\function_cpus\Drivers\source/hm_uart_hjj.c:286
	//while((uartx->CSR & UART_CSR_REMPTY_MASK) && overtime--);
	while(uartx->CSR & UART_CSR_REMPTY_MASK);
80103484:	00000000 	nop
D:\MCU_WorkSpace\IntegrationTest\mcu4in_IT\function_cpus\Drivers\source/hm_uart_hjj.c:286 (discriminator 1)
80103488:	8fc20010 	lw	v0,16(s8)
8010348c:	8c42002c 	lw	v0,44(v0)
80103490:	30420002 	andi	v0,v0,0x2
80103494:	1440fffc 	bnez	v0,80103488 <UART_BlockGetChar+0x24>
80103498:	00000000 	nop
D:\MCU_WorkSpace\IntegrationTest\mcu4in_IT\function_cpus\Drivers\source/hm_uart_hjj.c:287
	if(overtime >= 0)
8010349c:	8fc20004 	lw	v0,4(s8)
801034a0:	04400004 	bltz	v0,801034b4 <UART_BlockGetChar+0x50>
801034a4:	00000000 	nop
D:\MCU_WorkSpace\IntegrationTest\mcu4in_IT\function_cpus\Drivers\source/hm_uart_hjj.c:288
		ret = uartx->RFIFO;
801034a8:	8fc20010 	lw	v0,16(s8)
801034ac:	8c420030 	lw	v0,48(v0)
801034b0:	afc20000 	sw	v0,0(s8)
D:\MCU_WorkSpace\IntegrationTest\mcu4in_IT\function_cpus\Drivers\source/hm_uart_hjj.c:290
	
	return ret;
801034b4:	8fc20000 	lw	v0,0(s8)
D:\MCU_WorkSpace\IntegrationTest\mcu4in_IT\function_cpus\Drivers\source/hm_uart_hjj.c:291
}
801034b8:	03c0e825 	move	sp,s8
801034bc:	8fbe000c 	lw	s8,12(sp)
801034c0:	27bd0010 	addiu	sp,sp,16
801034c4:	03e00008 	jr	ra
801034c8:	00000000 	nop

801034cc <UART_WriteByte>:
UART_WriteByte():
D:\MCU_WorkSpace\IntegrationTest\mcu4in_IT\function_cpus\Drivers\source/hm_uart_hjj.c:304
 *					HM_UART3
 *					HM_UART4	
 * @param[in]	data:		char				
 * @return 		None
 **********************************************************************/
void UART_WriteByte(HM_UART_TypeDef *uartx,unsigned char data){
801034cc:	27bdfff8 	addiu	sp,sp,-8
801034d0:	afbe0004 	sw	s8,4(sp)
801034d4:	03a0f025 	move	s8,sp
801034d8:	afc40008 	sw	a0,8(s8)
801034dc:	00a01025 	move	v0,a1
801034e0:	a3c2000c 	sb	v0,12(s8)
D:\MCU_WorkSpace\IntegrationTest\mcu4in_IT\function_cpus\Drivers\source/hm_uart_hjj.c:305
	while((uartx->CSR & UART_CSR_TFUL_MASK));
801034e4:	00000000 	nop
D:\MCU_WorkSpace\IntegrationTest\mcu4in_IT\function_cpus\Drivers\source/hm_uart_hjj.c:305 (discriminator 1)
801034e8:	8fc20008 	lw	v0,8(s8)
801034ec:	8c42002c 	lw	v0,44(v0)
801034f0:	30420010 	andi	v0,v0,0x10
801034f4:	1440fffc 	bnez	v0,801034e8 <UART_WriteByte+0x1c>
801034f8:	00000000 	nop
D:\MCU_WorkSpace\IntegrationTest\mcu4in_IT\function_cpus\Drivers\source/hm_uart_hjj.c:306
	uartx->TFIFO = data;
801034fc:	93c3000c 	lbu	v1,12(s8)
80103500:	8fc20008 	lw	v0,8(s8)
80103504:	ac430030 	sw	v1,48(v0)
D:\MCU_WorkSpace\IntegrationTest\mcu4in_IT\function_cpus\Drivers\source/hm_uart_hjj.c:307
}
80103508:	00000000 	nop
8010350c:	03c0e825 	move	sp,s8
80103510:	8fbe0004 	lw	s8,4(sp)
80103514:	27bd0008 	addiu	sp,sp,8
80103518:	03e00008 	jr	ra
8010351c:	00000000 	nop

80103520 <UART_WriteBytes>:
UART_WriteBytes():
D:\MCU_WorkSpace\IntegrationTest\mcu4in_IT\function_cpus\Drivers\source/hm_uart_hjj.c:320
 *					HM_UART3
 *					HM_UART4	
 * @param[in]	c:		char				
 * @return 		None
 **********************************************************************/
void UART_WriteBytes(HM_UART_TypeDef *uartx,unsigned char *data,unsigned int size){
80103520:	27bdffe0 	addiu	sp,sp,-32
80103524:	afbf001c 	sw	ra,28(sp)
80103528:	afbe0018 	sw	s8,24(sp)
8010352c:	03a0f025 	move	s8,sp
80103530:	afc40020 	sw	a0,32(s8)
80103534:	afc50024 	sw	a1,36(s8)
80103538:	afc60028 	sw	a2,40(s8)
D:\MCU_WorkSpace\IntegrationTest\mcu4in_IT\function_cpus\Drivers\source/hm_uart_hjj.c:321
	unsigned int i=0;
8010353c:	afc00010 	sw	zero,16(s8)
D:\MCU_WorkSpace\IntegrationTest\mcu4in_IT\function_cpus\Drivers\source/hm_uart_hjj.c:322
	for(i=0;i<size;i++){
80103540:	afc00010 	sw	zero,16(s8)
80103544:	1000000c 	b	80103578 <UART_WriteBytes+0x58>
80103548:	00000000 	nop
D:\MCU_WorkSpace\IntegrationTest\mcu4in_IT\function_cpus\Drivers\source/hm_uart_hjj.c:323 (discriminator 3)
		UART_WriteByte(uartx,data[i]);
8010354c:	8fc30024 	lw	v1,36(s8)
80103550:	8fc20010 	lw	v0,16(s8)
80103554:	00621021 	addu	v0,v1,v0
80103558:	90420000 	lbu	v0,0(v0)
8010355c:	00402825 	move	a1,v0
80103560:	8fc40020 	lw	a0,32(s8)
80103564:	0c040d33 	jal	801034cc <UART_WriteByte>
80103568:	00000000 	nop
D:\MCU_WorkSpace\IntegrationTest\mcu4in_IT\function_cpus\Drivers\source/hm_uart_hjj.c:322 (discriminator 3)
	for(i=0;i<size;i++){
8010356c:	8fc20010 	lw	v0,16(s8)
80103570:	24420001 	addiu	v0,v0,1
80103574:	afc20010 	sw	v0,16(s8)
D:\MCU_WorkSpace\IntegrationTest\mcu4in_IT\function_cpus\Drivers\source/hm_uart_hjj.c:322 (discriminator 1)
80103578:	8fc30010 	lw	v1,16(s8)
8010357c:	8fc20028 	lw	v0,40(s8)
80103580:	0062102b 	sltu	v0,v1,v0
80103584:	1440fff1 	bnez	v0,8010354c <UART_WriteBytes+0x2c>
80103588:	00000000 	nop
	...
D:\MCU_WorkSpace\IntegrationTest\mcu4in_IT\function_cpus\Drivers\source/hm_uart_hjj.c:325
	}
}
80103594:	03c0e825 	move	sp,s8
80103598:	8fbf001c 	lw	ra,28(sp)
8010359c:	8fbe0018 	lw	s8,24(sp)
801035a0:	27bd0020 	addiu	sp,sp,32
801035a4:	03e00008 	jr	ra
801035a8:	00000000 	nop

801035ac <UART_EnableInt>:
UART_EnableInt():
D:\MCU_WorkSpace\IntegrationTest\mcu4in_IT\function_cpus\Drivers\source/hm_uart_hjj.c:327

void UART_EnableInt(HM_UART_TypeDef *uartx, unsigned int pics){
801035ac:	27bdfff8 	addiu	sp,sp,-8
801035b0:	afbe0004 	sw	s8,4(sp)
801035b4:	03a0f025 	move	s8,sp
801035b8:	afc40008 	sw	a0,8(s8)
801035bc:	afc5000c 	sw	a1,12(s8)
D:\MCU_WorkSpace\IntegrationTest\mcu4in_IT\function_cpus\Drivers\source/hm_uart_hjj.c:328
	uartx->IER = pics;
801035c0:	8fc20008 	lw	v0,8(s8)
801035c4:	8fc3000c 	lw	v1,12(s8)
801035c8:	ac430008 	sw	v1,8(v0)
D:\MCU_WorkSpace\IntegrationTest\mcu4in_IT\function_cpus\Drivers\source/hm_uart_hjj.c:329
}
801035cc:	00000000 	nop
801035d0:	03c0e825 	move	sp,s8
801035d4:	8fbe0004 	lw	s8,4(sp)
801035d8:	27bd0008 	addiu	sp,sp,8
801035dc:	03e00008 	jr	ra
801035e0:	00000000 	nop

801035e4 <UART_DisableInt>:
UART_DisableInt():
D:\MCU_WorkSpace\IntegrationTest\mcu4in_IT\function_cpus\Drivers\source/hm_uart_hjj.c:330
void UART_DisableInt(HM_UART_TypeDef *uartx, unsigned int pics){
801035e4:	27bdfff8 	addiu	sp,sp,-8
801035e8:	afbe0004 	sw	s8,4(sp)
801035ec:	03a0f025 	move	s8,sp
801035f0:	afc40008 	sw	a0,8(s8)
801035f4:	afc5000c 	sw	a1,12(s8)
D:\MCU_WorkSpace\IntegrationTest\mcu4in_IT\function_cpus\Drivers\source/hm_uart_hjj.c:331
	uartx->IDR = pics;
801035f8:	8fc20008 	lw	v0,8(s8)
801035fc:	8fc3000c 	lw	v1,12(s8)
80103600:	ac43000c 	sw	v1,12(v0)
D:\MCU_WorkSpace\IntegrationTest\mcu4in_IT\function_cpus\Drivers\source/hm_uart_hjj.c:332
}
80103604:	00000000 	nop
80103608:	03c0e825 	move	sp,s8
8010360c:	8fbe0004 	lw	s8,4(sp)
80103610:	27bd0008 	addiu	sp,sp,8
80103614:	03e00008 	jr	ra
80103618:	00000000 	nop

8010361c <UART_GetIntState>:
UART_GetIntState():
D:\MCU_WorkSpace\IntegrationTest\mcu4in_IT\function_cpus\Drivers\source/hm_uart_hjj.c:333
unsigned char UART_GetIntState(HM_UART_TypeDef *uartx, unsigned int pic){
8010361c:	27bdfff8 	addiu	sp,sp,-8
80103620:	afbe0004 	sw	s8,4(sp)
80103624:	03a0f025 	move	s8,sp
80103628:	afc40008 	sw	a0,8(s8)
8010362c:	afc5000c 	sw	a1,12(s8)
D:\MCU_WorkSpace\IntegrationTest\mcu4in_IT\function_cpus\Drivers\source/hm_uart_hjj.c:334
	if(uartx->CISR & pic)
80103630:	8fc20008 	lw	v0,8(s8)
80103634:	8c430014 	lw	v1,20(v0)
80103638:	8fc2000c 	lw	v0,12(s8)
8010363c:	00621024 	and	v0,v1,v0
80103640:	10400004 	beqz	v0,80103654 <UART_GetIntState+0x38>
80103644:	00000000 	nop
D:\MCU_WorkSpace\IntegrationTest\mcu4in_IT\function_cpus\Drivers\source/hm_uart_hjj.c:335
		return 1;
80103648:	24020001 	li	v0,1
8010364c:	10000002 	b	80103658 <UART_GetIntState+0x3c>
80103650:	00000000 	nop
D:\MCU_WorkSpace\IntegrationTest\mcu4in_IT\function_cpus\Drivers\source/hm_uart_hjj.c:336
	return 0;
80103654:	00001025 	move	v0,zero
D:\MCU_WorkSpace\IntegrationTest\mcu4in_IT\function_cpus\Drivers\source/hm_uart_hjj.c:337
}
80103658:	03c0e825 	move	sp,s8
8010365c:	8fbe0004 	lw	s8,4(sp)
80103660:	27bd0008 	addiu	sp,sp,8
80103664:	03e00008 	jr	ra
80103668:	00000000 	nop

8010366c <UART_GetIntMask>:
UART_GetIntMask():
D:\MCU_WorkSpace\IntegrationTest\mcu4in_IT\function_cpus\Drivers\source/hm_uart_hjj.c:338
unsigned char UART_GetIntMask(HM_UART_TypeDef *uartx, unsigned int pic){
8010366c:	27bdfff8 	addiu	sp,sp,-8
80103670:	afbe0004 	sw	s8,4(sp)
80103674:	03a0f025 	move	s8,sp
80103678:	afc40008 	sw	a0,8(s8)
8010367c:	afc5000c 	sw	a1,12(s8)
D:\MCU_WorkSpace\IntegrationTest\mcu4in_IT\function_cpus\Drivers\source/hm_uart_hjj.c:339
	if(uartx->IMR & pic)
80103680:	8fc20008 	lw	v0,8(s8)
80103684:	8c430010 	lw	v1,16(v0)
80103688:	8fc2000c 	lw	v0,12(s8)
8010368c:	00621024 	and	v0,v1,v0
80103690:	10400004 	beqz	v0,801036a4 <UART_GetIntMask+0x38>
80103694:	00000000 	nop
D:\MCU_WorkSpace\IntegrationTest\mcu4in_IT\function_cpus\Drivers\source/hm_uart_hjj.c:340
		return 1;
80103698:	24020001 	li	v0,1
8010369c:	10000002 	b	801036a8 <UART_GetIntMask+0x3c>
801036a0:	00000000 	nop
D:\MCU_WorkSpace\IntegrationTest\mcu4in_IT\function_cpus\Drivers\source/hm_uart_hjj.c:341
	return 0;
801036a4:	00001025 	move	v0,zero
D:\MCU_WorkSpace\IntegrationTest\mcu4in_IT\function_cpus\Drivers\source/hm_uart_hjj.c:342
}
801036a8:	03c0e825 	move	sp,s8
801036ac:	8fbe0004 	lw	s8,4(sp)
801036b0:	27bd0008 	addiu	sp,sp,8
801036b4:	03e00008 	jr	ra
801036b8:	00000000 	nop

801036bc <UART_RfifoTrigger>:
UART_RfifoTrigger():
D:\MCU_WorkSpace\IntegrationTest\mcu4in_IT\function_cpus\Drivers\source/hm_uart_hjj.c:344

void UART_RfifoTrigger(HM_UART_TypeDef *uartx,int num){
801036bc:	27bdfff8 	addiu	sp,sp,-8
801036c0:	afbe0004 	sw	s8,4(sp)
801036c4:	03a0f025 	move	s8,sp
801036c8:	afc40008 	sw	a0,8(s8)
801036cc:	afc5000c 	sw	a1,12(s8)
D:\MCU_WorkSpace\IntegrationTest\mcu4in_IT\function_cpus\Drivers\source/hm_uart_hjj.c:345
	uartx->RTR = num;
801036d0:	8fc3000c 	lw	v1,12(s8)
801036d4:	8fc20008 	lw	v0,8(s8)
801036d8:	ac430020 	sw	v1,32(v0)
D:\MCU_WorkSpace\IntegrationTest\mcu4in_IT\function_cpus\Drivers\source/hm_uart_hjj.c:346
}
801036dc:	00000000 	nop
801036e0:	03c0e825 	move	sp,s8
801036e4:	8fbe0004 	lw	s8,4(sp)
801036e8:	27bd0008 	addiu	sp,sp,8
801036ec:	03e00008 	jr	ra
801036f0:	00000000 	nop

801036f4 <UART_TfifoTrigger>:
UART_TfifoTrigger():
D:\MCU_WorkSpace\IntegrationTest\mcu4in_IT\function_cpus\Drivers\source/hm_uart_hjj.c:347
void UART_TfifoTrigger(HM_UART_TypeDef *uartx,int num){
801036f4:	27bdfff8 	addiu	sp,sp,-8
801036f8:	afbe0004 	sw	s8,4(sp)
801036fc:	03a0f025 	move	s8,sp
80103700:	afc40008 	sw	a0,8(s8)
80103704:	afc5000c 	sw	a1,12(s8)
D:\MCU_WorkSpace\IntegrationTest\mcu4in_IT\function_cpus\Drivers\source/hm_uart_hjj.c:348
	uartx->TTR = num;
80103708:	8fc3000c 	lw	v1,12(s8)
8010370c:	8fc20008 	lw	v0,8(s8)
80103710:	ac430044 	sw	v1,68(v0)
D:\MCU_WorkSpace\IntegrationTest\mcu4in_IT\function_cpus\Drivers\source/hm_uart_hjj.c:349
}
80103714:	00000000 	nop
80103718:	03c0e825 	move	sp,s8
8010371c:	8fbe0004 	lw	s8,4(sp)
80103720:	27bd0008 	addiu	sp,sp,8
80103724:	03e00008 	jr	ra
80103728:	00000000 	nop

8010372c <UART_SetDmaMode>:
UART_SetDmaMode():
D:\MCU_WorkSpace\IntegrationTest\mcu4in_IT\function_cpus\Drivers\source/hm_uart_hjj.c:351
void UART_SetDmaMode(HM_UART_TypeDef *uartx,FunctionalState NewState)
{
8010372c:	27bdfff8 	addiu	sp,sp,-8
80103730:	afbe0004 	sw	s8,4(sp)
80103734:	03a0f025 	move	s8,sp
80103738:	afc40008 	sw	a0,8(s8)
8010373c:	afc5000c 	sw	a1,12(s8)
D:\MCU_WorkSpace\IntegrationTest\mcu4in_IT\function_cpus\Drivers\source/hm_uart_hjj.c:352
	if(ENABLE == NewState)
80103740:	8fc3000c 	lw	v1,12(s8)
80103744:	24020001 	li	v0,1
80103748:	14620006 	bne	v1,v0,80103764 <UART_SetDmaMode+0x38>
8010374c:	00000000 	nop
D:\MCU_WorkSpace\IntegrationTest\mcu4in_IT\function_cpus\Drivers\source/hm_uart_hjj.c:354
	{
		uartx->UA_DMAMODE_CTRL = 1;
80103750:	8fc20008 	lw	v0,8(s8)
80103754:	24030001 	li	v1,1
80103758:	ac4300a0 	sw	v1,160(v0)
D:\MCU_WorkSpace\IntegrationTest\mcu4in_IT\function_cpus\Drivers\source/hm_uart_hjj.c:359
	}else
	{
		uartx->UA_DMAMODE_CTRL = 0;
	}
}
8010375c:	10000003 	b	8010376c <UART_SetDmaMode+0x40>
80103760:	00000000 	nop
D:\MCU_WorkSpace\IntegrationTest\mcu4in_IT\function_cpus\Drivers\source/hm_uart_hjj.c:357
		uartx->UA_DMAMODE_CTRL = 0;
80103764:	8fc20008 	lw	v0,8(s8)
80103768:	ac4000a0 	sw	zero,160(v0)
D:\MCU_WorkSpace\IntegrationTest\mcu4in_IT\function_cpus\Drivers\source/hm_uart_hjj.c:359
}
8010376c:	00000000 	nop
80103770:	03c0e825 	move	sp,s8
80103774:	8fbe0004 	lw	s8,4(sp)
80103778:	27bd0008 	addiu	sp,sp,8
8010377c:	03e00008 	jr	ra
80103780:	00000000 	nop

80103784 <UART_RS485Config>:
UART_RS485Config():
D:\MCU_WorkSpace\IntegrationTest\mcu4in_IT\function_cpus\Drivers\source/hm_uart_hjj.c:374
*                    that contains the configuration information for specified UART
*                    in RS485 mode.
 * @return		None
 **********************************************************************/
void UART_RS485Config(HM_UART_TypeDef *uartx, UART1_RS485_CTRLCFG_Type *RS485ConfigStruct)
{
80103784:	27bdffe8 	addiu	sp,sp,-24
80103788:	afbe0014 	sw	s8,20(sp)
8010378c:	03a0f025 	move	s8,sp
80103790:	afc40018 	sw	a0,24(s8)
80103794:	afc5001c 	sw	a1,28(s8)
D:\MCU_WorkSpace\IntegrationTest\mcu4in_IT\function_cpus\Drivers\source/hm_uart_hjj.c:378
	uint32_t tmp;
	__IO uint32_t *RS485DLY, *ADRMATCH, *RS485CTRL;

	tmp = 0;
80103798:	afc00000 	sw	zero,0(s8)
D:\MCU_WorkSpace\IntegrationTest\mcu4in_IT\function_cpus\Drivers\source/hm_uart_hjj.c:380

	RS485DLY = (__IO uint32_t *)&uartx->RS485OE_DELAY;
8010379c:	8fc20018 	lw	v0,24(s8)
801037a0:	24420088 	addiu	v0,v0,136
801037a4:	afc20004 	sw	v0,4(s8)
D:\MCU_WorkSpace\IntegrationTest\mcu4in_IT\function_cpus\Drivers\source/hm_uart_hjj.c:381
	ADRMATCH = (__IO uint32_t *)&uartx->RS485ADDR_MATCH;
801037a8:	8fc20018 	lw	v0,24(s8)
801037ac:	24420084 	addiu	v0,v0,132
801037b0:	afc20008 	sw	v0,8(s8)
D:\MCU_WorkSpace\IntegrationTest\mcu4in_IT\function_cpus\Drivers\source/hm_uart_hjj.c:382
    RS485CTRL =  (__IO uint32_t *)&uartx->RS485CTRL;
801037b4:	8fc20018 	lw	v0,24(s8)
801037b8:	24420080 	addiu	v0,v0,128
801037bc:	afc2000c 	sw	v0,12(s8)
D:\MCU_WorkSpace\IntegrationTest\mcu4in_IT\function_cpus\Drivers\source/hm_uart_hjj.c:385

	// If Auto Direction Control is enabled -  This function is used in Master mode
	if (RS485ConfigStruct->AutoDirCtrl_State == ENABLE)
801037c0:	8fc2001c 	lw	v0,28(s8)
801037c4:	8c43000c 	lw	v1,12(v0)
801037c8:	24020001 	li	v0,1
801037cc:	1462001e 	bne	v1,v0,80103848 <UART_RS485Config+0xc4>
801037d0:	00000000 	nop
D:\MCU_WorkSpace\IntegrationTest\mcu4in_IT\function_cpus\Drivers\source/hm_uart_hjj.c:387
	{
		tmp |= UART_RS485CTRL_DCTRL_EN;
801037d4:	8fc20000 	lw	v0,0(s8)
801037d8:	34420010 	ori	v0,v0,0x10
801037dc:	afc20000 	sw	v0,0(s8)
D:\MCU_WorkSpace\IntegrationTest\mcu4in_IT\function_cpus\Drivers\source/hm_uart_hjj.c:390

		// Set polar
		if (RS485ConfigStruct->DirCtrlPol_Level == SET)
801037e0:	8fc2001c 	lw	v0,28(s8)
801037e4:	8c430014 	lw	v1,20(v0)
801037e8:	24020001 	li	v0,1
801037ec:	14620004 	bne	v1,v0,80103800 <UART_RS485Config+0x7c>
801037f0:	00000000 	nop
D:\MCU_WorkSpace\IntegrationTest\mcu4in_IT\function_cpus\Drivers\source/hm_uart_hjj.c:392
		{
			tmp |= UART_RS485CTRL_OINV_1;
801037f4:	8fc20000 	lw	v0,0(s8)
801037f8:	34420020 	ori	v0,v0,0x20
801037fc:	afc20000 	sw	v0,0(s8)
D:\MCU_WorkSpace\IntegrationTest\mcu4in_IT\function_cpus\Drivers\source/hm_uart_hjj.c:397
		}

		// Set pin according to. This condition is only with UART1. The others are used
		// OE pin as default for control the direction of RS485 buffer IC
		if ((RS485ConfigStruct->DirCtrlPin == UART_RS485_DIRCTRL_DTR) &&
80103800:	8fc2001c 	lw	v0,28(s8)
80103804:	8c430010 	lw	v1,16(v0)
80103808:	24020001 	li	v0,1
8010380c:	14620009 	bne	v1,v0,80103834 <UART_RS485Config+0xb0>
80103810:	00000000 	nop
D:\MCU_WorkSpace\IntegrationTest\mcu4in_IT\function_cpus\Drivers\source/hm_uart_hjj.c:397 (discriminator 1)
80103814:	8fc30018 	lw	v1,24(s8)
80103818:	3c024000 	lui	v0,0x4000
8010381c:	3442d000 	ori	v0,v0,0xd000
80103820:	14620004 	bne	v1,v0,80103834 <UART_RS485Config+0xb0>
80103824:	00000000 	nop
D:\MCU_WorkSpace\IntegrationTest\mcu4in_IT\function_cpus\Drivers\source/hm_uart_hjj.c:400
             (uartx == HM_UART1))
		{
			tmp |= UART_RS485CTRL_SEL_DTR;
80103828:	8fc20000 	lw	v0,0(s8)
8010382c:	34420008 	ori	v0,v0,0x8
80103830:	afc20000 	sw	v0,0(s8)
D:\MCU_WorkSpace\IntegrationTest\mcu4in_IT\function_cpus\Drivers\source/hm_uart_hjj.c:404
		}

		// Fill delay time
		*RS485DLY = RS485ConfigStruct->DelayValue & UART_RS485DLY_BITMASK;
80103834:	8fc2001c 	lw	v0,28(s8)
80103838:	90420019 	lbu	v0,25(v0)
8010383c:	00401825 	move	v1,v0
80103840:	8fc20004 	lw	v0,4(s8)
80103844:	ac430000 	sw	v1,0(v0)
D:\MCU_WorkSpace\IntegrationTest\mcu4in_IT\function_cpus\Drivers\source/hm_uart_hjj.c:408
	}
     
	// MultiDrop mode is enable
	if (RS485ConfigStruct->NormalMultiDropMode_State == ENABLE)
80103848:	8fc2001c 	lw	v0,28(s8)
8010384c:	8c430000 	lw	v1,0(v0)
80103850:	24020001 	li	v0,1
80103854:	14620004 	bne	v1,v0,80103868 <UART_RS485Config+0xe4>
80103858:	00000000 	nop
D:\MCU_WorkSpace\IntegrationTest\mcu4in_IT\function_cpus\Drivers\source/hm_uart_hjj.c:410
	{
		tmp |= UART_RS485CTRL_NMM_EN;
8010385c:	8fc20000 	lw	v0,0(s8)
80103860:	34420001 	ori	v0,v0,0x1
80103864:	afc20000 	sw	v0,0(s8)
D:\MCU_WorkSpace\IntegrationTest\mcu4in_IT\function_cpus\Drivers\source/hm_uart_hjj.c:414
	}

	// Auto Address Detect function
	if (RS485ConfigStruct->AutoAddrDetect_State == ENABLE)
80103868:	8fc2001c 	lw	v0,28(s8)
8010386c:	8c430008 	lw	v1,8(v0)
80103870:	24020001 	li	v0,1
80103874:	14620009 	bne	v1,v0,8010389c <UART_RS485Config+0x118>
80103878:	00000000 	nop
D:\MCU_WorkSpace\IntegrationTest\mcu4in_IT\function_cpus\Drivers\source/hm_uart_hjj.c:416
	{
		tmp |= UART_RS485CTRL_AADEN;
8010387c:	8fc20000 	lw	v0,0(s8)
80103880:	34420004 	ori	v0,v0,0x4
80103884:	afc20000 	sw	v0,0(s8)
D:\MCU_WorkSpace\IntegrationTest\mcu4in_IT\function_cpus\Drivers\source/hm_uart_hjj.c:419

		// Fill Match Address
		*ADRMATCH = RS485ConfigStruct->MatchAddrValue & UART_RS485ADRMATCH_BITMASK;
80103888:	8fc2001c 	lw	v0,28(s8)
8010388c:	90420018 	lbu	v0,24(v0)
80103890:	00401825 	move	v1,v0
80103894:	8fc20008 	lw	v0,8(s8)
80103898:	ac430000 	sw	v1,0(v0)
D:\MCU_WorkSpace\IntegrationTest\mcu4in_IT\function_cpus\Drivers\source/hm_uart_hjj.c:423
	}

	// Receiver is disable
	if (RS485ConfigStruct->Rx_State == DISABLE)
8010389c:	8fc2001c 	lw	v0,28(s8)
801038a0:	8c420004 	lw	v0,4(v0)
801038a4:	14400004 	bnez	v0,801038b8 <UART_RS485Config+0x134>
801038a8:	00000000 	nop
D:\MCU_WorkSpace\IntegrationTest\mcu4in_IT\function_cpus\Drivers\source/hm_uart_hjj.c:425
	{
		tmp |= UART_RS485CTRL_RX_DIS;
801038ac:	8fc20000 	lw	v0,0(s8)
801038b0:	34420002 	ori	v0,v0,0x2
801038b4:	afc20000 	sw	v0,0(s8)
D:\MCU_WorkSpace\IntegrationTest\mcu4in_IT\function_cpus\Drivers\source/hm_uart_hjj.c:429
	}
     
	// write back to RS485 control register
	*RS485CTRL = tmp & UART_RS485CTRL_BITMASK;
801038b8:	8fc20000 	lw	v0,0(s8)
801038bc:	3043003f 	andi	v1,v0,0x3f
801038c0:	8fc2000c 	lw	v0,12(s8)
801038c4:	ac430000 	sw	v1,0(v0)
D:\MCU_WorkSpace\IntegrationTest\mcu4in_IT\function_cpus\Drivers\source/hm_uart_hjj.c:431

}
801038c8:	00000000 	nop
801038cc:	03c0e825 	move	sp,s8
801038d0:	8fbe0014 	lw	s8,20(sp)
801038d4:	27bd0018 	addiu	sp,sp,24
801038d8:	03e00008 	jr	ra
801038dc:	00000000 	nop

801038e0 <UART_RS485ReceiverCmd>:
UART_RS485ReceiverCmd():
D:\MCU_WorkSpace\IntegrationTest\mcu4in_IT\function_cpus\Drivers\source/hm_uart_hjj.c:442
 * 							- ENABLE: Enable this function.
 * 							- DISABLE: Disable this function.
 * @return		None
 **********************************************************************/
void UART_RS485ReceiverCmd(HM_UART_TypeDef *uartx, FunctionalState NewState)
{
801038e0:	27bdfff8 	addiu	sp,sp,-8
801038e4:	afbe0004 	sw	s8,4(sp)
801038e8:	03a0f025 	move	s8,sp
801038ec:	afc40008 	sw	a0,8(s8)
801038f0:	afc5000c 	sw	a1,12(s8)
D:\MCU_WorkSpace\IntegrationTest\mcu4in_IT\function_cpus\Drivers\source/hm_uart_hjj.c:443
	if (NewState == ENABLE)
801038f4:	8fc3000c 	lw	v1,12(s8)
801038f8:	24020001 	li	v0,1
801038fc:	14620009 	bne	v1,v0,80103924 <UART_RS485ReceiverCmd+0x44>
80103900:	00000000 	nop
D:\MCU_WorkSpace\IntegrationTest\mcu4in_IT\function_cpus\Drivers\source/hm_uart_hjj.c:445
	{
		uartx->RS485CTRL &= ~UART_RS485CTRL_RX_DIS;
80103904:	8fc20008 	lw	v0,8(s8)
80103908:	8c420080 	lw	v0,128(v0)
8010390c:	7c020844 	ins	v0,zero,0x1,0x1
80103910:	00401825 	move	v1,v0
80103914:	8fc20008 	lw	v0,8(s8)
80103918:	ac430080 	sw	v1,128(v0)
D:\MCU_WorkSpace\IntegrationTest\mcu4in_IT\function_cpus\Drivers\source/hm_uart_hjj.c:451
	}
	else
	{
		uartx->RS485CTRL |= UART_RS485CTRL_RX_DIS;
	}
}
8010391c:	10000006 	b	80103938 <UART_RS485ReceiverCmd+0x58>
80103920:	00000000 	nop
D:\MCU_WorkSpace\IntegrationTest\mcu4in_IT\function_cpus\Drivers\source/hm_uart_hjj.c:449
		uartx->RS485CTRL |= UART_RS485CTRL_RX_DIS;
80103924:	8fc20008 	lw	v0,8(s8)
80103928:	8c420080 	lw	v0,128(v0)
8010392c:	34430002 	ori	v1,v0,0x2
80103930:	8fc20008 	lw	v0,8(s8)
80103934:	ac430080 	sw	v1,128(v0)
D:\MCU_WorkSpace\IntegrationTest\mcu4in_IT\function_cpus\Drivers\source/hm_uart_hjj.c:451
}
80103938:	00000000 	nop
8010393c:	03c0e825 	move	sp,s8
80103940:	8fbe0004 	lw	s8,4(sp)
80103944:	27bd0008 	addiu	sp,sp,8
80103948:	03e00008 	jr	ra
8010394c:	00000000 	nop

80103950 <UART_RS485Send>:
UART_RS485Send():
D:\MCU_WorkSpace\IntegrationTest\mcu4in_IT\function_cpus\Drivers\source/hm_uart_hjj.c:462
 * @param[in]	size		Size of data.
 * @param[in]	ParityStick	Parity Stick value, should be 0 or 1.
 * @return		None
 **********************************************************************/
void UART_RS485Send(HM_UART_TypeDef *uartx, uint8_t *pDatFrm,uint32_t size, uint8_t ParityStick)
{
80103950:	27bdffe0 	addiu	sp,sp,-32
80103954:	afbf001c 	sw	ra,28(sp)
80103958:	afbe0018 	sw	s8,24(sp)
8010395c:	03a0f025 	move	s8,sp
80103960:	afc40020 	sw	a0,32(s8)
80103964:	afc50024 	sw	a1,36(s8)
80103968:	afc60028 	sw	a2,40(s8)
8010396c:	00e01025 	move	v0,a3
80103970:	a3c2002c 	sb	v0,44(s8)
D:\MCU_WorkSpace\IntegrationTest\mcu4in_IT\function_cpus\Drivers\source/hm_uart_hjj.c:465
	uint8_t tmp;

	if (ParityStick)
80103974:	93c2002c 	lbu	v0,44(s8)
80103978:	10400020 	beqz	v0,801039fc <UART_RS485Send+0xac>
8010397c:	00000000 	nop
D:\MCU_WorkSpace\IntegrationTest\mcu4in_IT\function_cpus\Drivers\source/hm_uart_hjj.c:467
	{
		tmp = uartx->MODE & UART_MODE_BITMASK;
80103980:	8fc20020 	lw	v0,32(s8)
80103984:	8c420004 	lw	v0,4(v0)
80103988:	a3c20010 	sb	v0,16(s8)
D:\MCU_WorkSpace\IntegrationTest\mcu4in_IT\function_cpus\Drivers\source/hm_uart_hjj.c:468
		tmp &= ~(UART_MODE_PARITY_BITMASK);
8010398c:	93c20010 	lbu	v0,16(s8)
80103990:	7c0228c4 	ins	v0,zero,0x3,0x3
80103994:	a3c20010 	sb	v0,16(s8)
D:\MCU_WorkSpace\IntegrationTest\mcu4in_IT\function_cpus\Drivers\source/hm_uart_hjj.c:469
		tmp|=UART_MODE_PARITY_F_1;
80103998:	93c20010 	lbu	v0,16(s8)
8010399c:	34420018 	ori	v0,v0,0x18
801039a0:	a3c20010 	sb	v0,16(s8)
D:\MCU_WorkSpace\IntegrationTest\mcu4in_IT\function_cpus\Drivers\source/hm_uart_hjj.c:470
		uartx->MODE = tmp;
801039a4:	93c30010 	lbu	v1,16(s8)
801039a8:	8fc20020 	lw	v0,32(s8)
801039ac:	ac430004 	sw	v1,4(v0)
D:\MCU_WorkSpace\IntegrationTest\mcu4in_IT\function_cpus\Drivers\source/hm_uart_hjj.c:471
		UART_BlockPutChars(uartx, pDatFrm, size);
801039b0:	8fc60028 	lw	a2,40(s8)
801039b4:	8fc50024 	lw	a1,36(s8)
801039b8:	8fc40020 	lw	a0,32(s8)
801039bc:	0c040cd4 	jal	80103350 <UART_BlockPutChars>
801039c0:	00000000 	nop
D:\MCU_WorkSpace\IntegrationTest\mcu4in_IT\function_cpus\Drivers\source/hm_uart_hjj.c:472
		while(!(uartx->CSR & UART_CSR_TEMPTY_MASK));
801039c4:	00000000 	nop
D:\MCU_WorkSpace\IntegrationTest\mcu4in_IT\function_cpus\Drivers\source/hm_uart_hjj.c:472 (discriminator 1)
801039c8:	8fc20020 	lw	v0,32(s8)
801039cc:	8c42002c 	lw	v0,44(v0)
801039d0:	30420008 	andi	v0,v0,0x8
801039d4:	1040fffc 	beqz	v0,801039c8 <UART_RS485Send+0x78>
801039d8:	00000000 	nop
D:\MCU_WorkSpace\IntegrationTest\mcu4in_IT\function_cpus\Drivers\source/hm_uart_hjj.c:473
		tmp &= ~(UART_MODE_PARITY_BITMASK);
801039dc:	93c20010 	lbu	v0,16(s8)
801039e0:	7c0228c4 	ins	v0,zero,0x3,0x3
801039e4:	a3c20010 	sb	v0,16(s8)
D:\MCU_WorkSpace\IntegrationTest\mcu4in_IT\function_cpus\Drivers\source/hm_uart_hjj.c:474
		tmp|=UART_MODE_PARITY_F_0;
801039e8:	93c20010 	lbu	v0,16(s8)
801039ec:	34420010 	ori	v0,v0,0x10
801039f0:	a3c20010 	sb	v0,16(s8)
D:\MCU_WorkSpace\IntegrationTest\mcu4in_IT\function_cpus\Drivers\source/hm_uart_hjj.c:486
		uartx->MODE = tmp;
		UART_BlockPutChars(uartx, pDatFrm, size);
		while(!(uartx->CSR & UART_CSR_TEMPTY_MASK));
	}

}
801039f4:	10000018 	b	80103a58 <UART_RS485Send+0x108>
801039f8:	00000000 	nop
D:\MCU_WorkSpace\IntegrationTest\mcu4in_IT\function_cpus\Drivers\source/hm_uart_hjj.c:478
		tmp = uartx->MODE & UART_MODE_BITMASK;
801039fc:	8fc20020 	lw	v0,32(s8)
80103a00:	8c420004 	lw	v0,4(v0)
80103a04:	a3c20010 	sb	v0,16(s8)
D:\MCU_WorkSpace\IntegrationTest\mcu4in_IT\function_cpus\Drivers\source/hm_uart_hjj.c:479
		tmp &= ~(UART_MODE_PARITY_BITMASK);
80103a08:	93c20010 	lbu	v0,16(s8)
80103a0c:	7c0228c4 	ins	v0,zero,0x3,0x3
80103a10:	a3c20010 	sb	v0,16(s8)
D:\MCU_WorkSpace\IntegrationTest\mcu4in_IT\function_cpus\Drivers\source/hm_uart_hjj.c:480
		tmp|=UART_MODE_PARITY_F_0;
80103a14:	93c20010 	lbu	v0,16(s8)
80103a18:	34420010 	ori	v0,v0,0x10
80103a1c:	a3c20010 	sb	v0,16(s8)
D:\MCU_WorkSpace\IntegrationTest\mcu4in_IT\function_cpus\Drivers\source/hm_uart_hjj.c:481
		uartx->MODE = tmp;
80103a20:	93c30010 	lbu	v1,16(s8)
80103a24:	8fc20020 	lw	v0,32(s8)
80103a28:	ac430004 	sw	v1,4(v0)
D:\MCU_WorkSpace\IntegrationTest\mcu4in_IT\function_cpus\Drivers\source/hm_uart_hjj.c:482
		UART_BlockPutChars(uartx, pDatFrm, size);
80103a2c:	8fc60028 	lw	a2,40(s8)
80103a30:	8fc50024 	lw	a1,36(s8)
80103a34:	8fc40020 	lw	a0,32(s8)
80103a38:	0c040cd4 	jal	80103350 <UART_BlockPutChars>
80103a3c:	00000000 	nop
D:\MCU_WorkSpace\IntegrationTest\mcu4in_IT\function_cpus\Drivers\source/hm_uart_hjj.c:483
		while(!(uartx->CSR & UART_CSR_TEMPTY_MASK));
80103a40:	00000000 	nop
D:\MCU_WorkSpace\IntegrationTest\mcu4in_IT\function_cpus\Drivers\source/hm_uart_hjj.c:483 (discriminator 1)
80103a44:	8fc20020 	lw	v0,32(s8)
80103a48:	8c42002c 	lw	v0,44(v0)
80103a4c:	30420008 	andi	v0,v0,0x8
80103a50:	1040fffc 	beqz	v0,80103a44 <UART_RS485Send+0xf4>
80103a54:	00000000 	nop
D:\MCU_WorkSpace\IntegrationTest\mcu4in_IT\function_cpus\Drivers\source/hm_uart_hjj.c:486
}
80103a58:	00000000 	nop
80103a5c:	03c0e825 	move	sp,s8
80103a60:	8fbf001c 	lw	ra,28(sp)
80103a64:	8fbe0018 	lw	s8,24(sp)
80103a68:	27bd0020 	addiu	sp,sp,32
80103a6c:	03e00008 	jr	ra
80103a70:	00000000 	nop

80103a74 <UART_RS485SendSlvAddr>:
UART_RS485SendSlvAddr():
D:\MCU_WorkSpace\IntegrationTest\mcu4in_IT\function_cpus\Drivers\source/hm_uart_hjj.c:495
 * @param[in]	UARTx	LPC_UART1 (only)
 * @param[in]	SlvAddr Slave Address.
 * @return		None
 **********************************************************************/
void UART_RS485SendSlvAddr(HM_UART_TypeDef *uartx, uint8_t SlvAddr)
{
80103a74:	27bdffe8 	addiu	sp,sp,-24
80103a78:	afbf0014 	sw	ra,20(sp)
80103a7c:	afbe0010 	sw	s8,16(sp)
80103a80:	03a0f025 	move	s8,sp
80103a84:	afc40018 	sw	a0,24(s8)
80103a88:	00a01025 	move	v0,a1
80103a8c:	a3c2001c 	sb	v0,28(s8)
D:\MCU_WorkSpace\IntegrationTest\mcu4in_IT\function_cpus\Drivers\source/hm_uart_hjj.c:496
	UART_RS485Send(uartx, &SlvAddr, 1, 1);
80103a90:	27c2001c 	addiu	v0,s8,28
80103a94:	24070001 	li	a3,1
80103a98:	24060001 	li	a2,1
80103a9c:	00402825 	move	a1,v0
80103aa0:	8fc40018 	lw	a0,24(s8)
80103aa4:	0c040e54 	jal	80103950 <UART_RS485Send>
80103aa8:	00000000 	nop
D:\MCU_WorkSpace\IntegrationTest\mcu4in_IT\function_cpus\Drivers\source/hm_uart_hjj.c:497
}
80103aac:	00000000 	nop
80103ab0:	03c0e825 	move	sp,s8
80103ab4:	8fbf0014 	lw	ra,20(sp)
80103ab8:	8fbe0010 	lw	s8,16(sp)
80103abc:	27bd0018 	addiu	sp,sp,24
80103ac0:	03e00008 	jr	ra
80103ac4:	00000000 	nop

80103ac8 <UART_RS485SendData>:
UART_RS485SendData():
D:\MCU_WorkSpace\IntegrationTest\mcu4in_IT\function_cpus\Drivers\source/hm_uart_hjj.c:507
 * @param[in]	pData Pointer to data to be sent.
 * @param[in]	size Size of data frame to be sent.
 * @return		None
 **********************************************************************/
void UART_RS485SendData(HM_UART_TypeDef *uartx, uint8_t *pData, uint32_t size)
{
80103ac8:	27bdffe8 	addiu	sp,sp,-24
80103acc:	afbf0014 	sw	ra,20(sp)
80103ad0:	afbe0010 	sw	s8,16(sp)
80103ad4:	03a0f025 	move	s8,sp
80103ad8:	afc40018 	sw	a0,24(s8)
80103adc:	afc5001c 	sw	a1,28(s8)
80103ae0:	afc60020 	sw	a2,32(s8)
D:\MCU_WorkSpace\IntegrationTest\mcu4in_IT\function_cpus\Drivers\source/hm_uart_hjj.c:508
	UART_RS485Send(uartx, pData, size, 0);
80103ae4:	00003825 	move	a3,zero
80103ae8:	8fc60020 	lw	a2,32(s8)
80103aec:	8fc5001c 	lw	a1,28(s8)
80103af0:	8fc40018 	lw	a0,24(s8)
80103af4:	0c040e54 	jal	80103950 <UART_RS485Send>
80103af8:	00000000 	nop
D:\MCU_WorkSpace\IntegrationTest\mcu4in_IT\function_cpus\Drivers\source/hm_uart_hjj.c:509
}
80103afc:	00000000 	nop
80103b00:	03c0e825 	move	sp,s8
80103b04:	8fbf0014 	lw	ra,20(sp)
80103b08:	8fbe0010 	lw	s8,16(sp)
80103b0c:	27bd0018 	addiu	sp,sp,24
80103b10:	03e00008 	jr	ra
80103b14:	00000000 	nop
