ELF Header:
  Magic:   7f 45 4c 46 01 01 01 00 00 00 00 00 00 00 00 00 
  Class:                             ELF32
  Data:                              2's complement, little endian
  Version:                           1 (current)
  OS/ABI:                            UNIX - System V
  ABI Version:                       0
  Type:                              EXEC (Executable file)
  Machine:                           RISC-V
  Version:                           0x1
  Entry point address:               0x100000
  Start of program headers:          52 (bytes into file)
  Start of section headers:          86036 (bytes into file)
  Flags:                             0x1, RVC, soft-float ABI
  Size of this header:               52 (bytes)
  Size of program headers:           32 (bytes)
  Number of program headers:         2
  Size of section headers:           40 (bytes)
  Number of section headers:         18
  Section header string table index: 17

Section Headers:
  [Nr] Name              Type            Addr     Off    Size   ES Flg Lk Inf Al
  [ 0]                   NULL            00000000 000000 000000 00      0   0  0
  [ 1] .text             PROGBITS        00100000 001000 002e00 00  AX  0   0 64
  [ 2] .rodata           PROGBITS        00102e00 003e00 00060c 00  WA  0   0  4
  [ 3] .data             PROGBITS        20120000 005000 000890 00  WA  0   0 64
  [ 4] .bss              NOBITS          20120890 005890 000110 00  WA  0   0  4
  [ 5] .heap             PROGBITS        201209a0 005890 000c00 00   W  0   0  8
  [ 6] .stack_dummy      PROGBITS        201209a0 006490 000400 00   W  0   0  8
  [ 7] .comment          PROGBITS        00000000 006890 000030 01  MS  0   0  1
  [ 8] .riscv.attributes RISCV_ATTRIBUTES 00000000 0068c0 000029 00      0   0  1
  [ 9] .debug_aranges    PROGBITS        00000000 0068f0 000160 00      0   0  8
  [10] .debug_info       PROGBITS        00000000 006a50 005c18 00      0   0  1
  [11] .debug_abbrev     PROGBITS        00000000 00c668 0016bb 00      0   0  1
  [12] .debug_line       PROGBITS        00000000 00dd23 003eab 00      0   0  1
  [13] .debug_frame      PROGBITS        00000000 011bd0 000c00 00      0   0  4
  [14] .debug_str        PROGBITS        00000000 0127d0 00167f 01  MS  0   0  1
  [15] .symtab           SYMTAB          00000000 013e50 000980 10     16  43  4
  [16] .strtab           STRTAB          00000000 0147d0 000793 00      0   0  1
  [17] .shstrtab         STRTAB          00000000 014f63 0000af 00      0   0  1
Key to Flags:
  W (write), A (alloc), X (execute), M (merge), S (strings), I (info),
  L (link order), O (extra OS processing required), G (group), T (TLS),
  C (compressed), x (unknown), o (OS specific), E (exclude),
  p (processor specific)

Program Headers:
  Type           Offset   VirtAddr   PhysAddr   FileSiz MemSiz  Flg Align
  LOAD           0x001000 0x00100000 0x00100000 0x0340c 0x0340c RWE 0x1000
  LOAD           0x005000 0x20120000 0x0010340c 0x00890 0x009a0 RW  0x1000

 Section to Segment mapping:
  Segment Sections...
   00     .text .rodata 
   01     .data .bss 

riscv_app.elf:     file format elf32-littleriscv
riscv_app.elf
architecture: riscv:rv32, flags 0x00000112:
EXEC_P, HAS_SYMS, D_PAGED
start address 0x00100000

Program Header:
    LOAD off    0x00001000 vaddr 0x00100000 paddr 0x00100000 align 2**12
         filesz 0x0000340c memsz 0x0000340c flags rwx
    LOAD off    0x00005000 vaddr 0x20120000 paddr 0x0010340c align 2**12
         filesz 0x00000890 memsz 0x000009a0 flags rw-

Sections:
Idx Name              Size      VMA       LMA       File off  Algn  Flags
  0 .text             00002e00  00100000  00100000  00001000  2**6  CONTENTS, ALLOC, LOAD, READONLY, CODE
  1 .rodata           0000060c  00102e00  00102e00  00003e00  2**2  CONTENTS, ALLOC, LOAD, DATA
  2 .data             00000890  20120000  0010340c  00005000  2**6  CONTENTS, ALLOC, LOAD, DATA
  3 .bss              00000110  20120890  00103c9c  00005890  2**2  ALLOC
  4 .heap             00000c00  201209a0  201209a0  00005890  2**3  CONTENTS
  5 .stack_dummy      00000400  201209a0  201209a0  00006490  2**3  CONTENTS
  6 .comment          00000030  00000000  00000000  00006890  2**0  CONTENTS, READONLY
  7 .riscv.attributes 00000029  00000000  00000000  000068c0  2**0  CONTENTS, READONLY
  8 .debug_aranges    00000160  00000000  00000000  000068f0  2**3  CONTENTS, READONLY, DEBUGGING
  9 .debug_info       00005c18  00000000  00000000  00006a50  2**0  CONTENTS, READONLY, DEBUGGING
 10 .debug_abbrev     000016bb  00000000  00000000  0000c668  2**0  CONTENTS, READONLY, DEBUGGING
 11 .debug_line       00003eab  00000000  00000000  0000dd23  2**0  CONTENTS, READONLY, DEBUGGING
 12 .debug_frame      00000c00  00000000  00000000  00011bd0  2**2  CONTENTS, READONLY, DEBUGGING
 13 .debug_str        0000167f  00000000  00000000  000127d0  2**0  CONTENTS, READONLY, DEBUGGING
SYMBOL TABLE:
00100000 l    d  .text	00000000 .text
00102e00 l    d  .rodata	00000000 .rodata
20120000 l    d  .data	00000000 .data
20120890 l    d  .bss	00000000 .bss
201209a0 l    d  .heap	00000000 .heap
201209a0 l    d  .stack_dummy	00000000 .stack_dummy
00000000 l    d  .comment	00000000 .comment
00000000 l    d  .riscv.attributes	00000000 .riscv.attributes
00000000 l    d  .debug_aranges	00000000 .debug_aranges
00000000 l    d  .debug_info	00000000 .debug_info
00000000 l    d  .debug_abbrev	00000000 .debug_abbrev
00000000 l    d  .debug_line	00000000 .debug_line
00000000 l    d  .debug_frame	00000000 .debug_frame
00000000 l    d  .debug_str	00000000 .debug_str
00000000 l    df *ABS*	00000000 CMakeFiles/riscv_app.elf.dir/D_/MCU_WorkSpace/IntegrationTest/mcu4in_IT/function_cpus/RISCV/src/startup.o
00100080 l       .text	00000000 Default_Handler
00100138 l       .text	00000000 SAVE_CONTEXT_Handler
001001f0 l       .text	00000000 PLIC_Handler
0010006c l       .text	00000000 __exit
00000000 l    df *ABS*	00000000 e906.c
00100420 l     F .text	00000108 MemoryInit
00000000 l    df *ABS*	00000000 system.c
00100570 l     F .text	00000046 csi_vic_enable_irq
001005c0 l     F .text	00000076 csi_vic_set_prio
00100640 l     F .text	00000046 csi_vic_set_shv_vector
00000000 l    df *ABS*	00000000 hm_uart_hjj.c
00102e8c l     O .rodata	0000009c uart_cfg_8M
00102f28 l     O .rodata	0000009c uart_cfg_20M
00000000 l    df *ABS*	00000000 context.c
00000000 l    df *ABS*	00000000 delay.c
00000000 l    df *ABS*	00000000 driver_common.c
00000000 l    df *ABS*	00000000 irq.c
20120890 l     O .bss	00000004 k
00000000 l    df *ABS*	00000000 uart_stdout.c
001030e4 l     O .rodata	00000010 cmap
001019c0 l     F .text	00000058 printn
00000000 l    df *ABS*	00000000 main.c
20120898 l     O .bss	00000004 target_uart
00000000 l    df *ABS*	00000000 plic.c
2012089c l     O .bss	00000100 SystemExtInterruptHandlers
001029d0 l     F .text	0000001e system_default_interrupt_handler
001029f0 l     F .text	00000044 Interrupt_Init
00101e60 g     F .text	000000fe TestSaveByFunc
201209a0 g       .heap	00000c00 __HeapBase
00102340 g     F .text	000001f0 TestCPUVary
00100550  w    F .text	0000000e __main
00100370 g       .text	00000000 RESTORE_REGISTER
20120000 g     O .data	00000000 __Vectors
201209a0 g       .bss	00000000 __e_ram_bss_1
001028d0 g     F .text	000000d0 TestUARTMultipleIRQ
00102c60 g     F .text	0000005e PLIC_Register_IRQ
00100c80 g     F .text	00000044 UART_BlockGetChar
201200c0 g     O .data	000004b0 varyMsg
00101c90 g     F .text	000000f0 TestLabel
0010340c g       .rodata	00000000 __e_rom
00100c50 g     F .text	00000030 UART_PollGetChar
001017e0 g     F .text	000000b6 IRQ_Init
00102e00 g       .text	00000000 __etext
00100d60 g     F .text	00000020 UART_EnableInt
00100c30 g     F .text	00000020 UART_PollFifoPutChar
00100bd0 g     F .text	00000054 UART_BlockPutChars
00100830 g     F .text	000002c6 UART_Init
001016a0 g     F .text	00000054 user_handle_helper
00101120 g     F .text	0000002a SRAM_Init
00101940 g     F .text	0000004a uart_stdout_init
001007e0 g     F .text	0000003e enable_irq
001002ec g       .text	00000000 SAVE_REGISTER
00102130 g     F .text	0000020a TestSRAM
201215a0 g       .heap	00000000 __HeapLimit
00100ba0 g     F .text	0000002c UART_BlockPutChar
20120890 g       .bss	00000000 __sbss
00100d00 g     F .text	00000054 UART_WriteBytes
00102b60 g     F .text	000000ae PLIC_Register_IRQ_Hard
00100760 g     F .text	00000044 print_clic_irq
00102c10 g     F .text	0000004c PLIC_Register_IRQ_Soft
001013c0 g     F .text	00000086 pml_stack_save
00102a80 g     F .text	00000034 Interrupt_Get_ExtIRQ
00102530 g     F .text	00000264 TestOneCPUErr
00100f90 g     F .text	0000004a UART_RS485ReceiverCmd
00100000 g     F .text	0000006c Reset_Handler
001002c8 g       .text	00000000 pml_stack_restore
00100e20 g     F .text	00000020 UART_TfifoTrigger
001033ac g     O .rodata	00000060 __Labels
001007b0 g     F .text	0000002e update_cliccfg
00101760 g     F .text	00000016 user3_handler
001014a0 g     F .text	00000046 TellSche
00100e80 g     F .text	00000104 UART_RS485Config
201209a0 g       .heap	00000000 end
001033ac g       .rodata	00000000 __label_start__
00101280 g     F .text	00000056 pml_save_inc
00102810 g     F .text	000000b4 TestUARTSimpleIRQ
00101700 g     F .text	00000016 user0_handler
0010340c g       *ABS*	00000000 __l_s_ram
00100d80 g     F .text	00000020 UART_DisableInt
201209a0 g       .bss	00000000 __end
00101230 g     F .text	0000004e pml_loc_malloc
00102e00 g       .rodata	00000000 __srodata
00102cc0 g     F .text	000000da PLIC_Init_Hard
00101670 g     F .text	0000002a save_context_handler
00101450 g     F .text	0000004a event_delay
20120890 g       .data	00000000 __e_ram_data_1
00101f60 g     F .text	000001c2 TestLocMalloc
0010340c g       .rodata	00000000 __label_end__
00100690 g     F .text	000000c8 print_status
00102da0 g     F .text	00000014 PLIC_Init_Soft
00102dc0 g     F .text	0000002a PLIC_Init
00101150 g     F .text	0000008e GetLabelAddr
001029a0 g     F .text	0000001a main
001012e0 g     F .text	00000056 pml_save_dec
00100e00 g     F .text	00000020 UART_RfifoTrigger
00101990 g     F .text	00000026 uart_putc
001017c0  w    F .text	00000016 user6_handler
001010e0 g     F .text	0000002e UART_RS485SendData
201209a0 g       .heap	00000000 __end__
00100dd0 g     F .text	0000002a UART_GetIntMask
00101380 g     F .text	00000038 pml_loc_restore
20120000 g       .data	00000000 data_start
00100b00 g     F .text	00000080 UART_ConfigBaud
00100530  w    F .text	00000018 SystemInit
001014f0 g     F .text	00000096 stack_restore_helper
20120894 g     O .bss	00000001 uart_buffer_received
00101a20 g     F .text	00000262 uart_printf
00100cd0 g     F .text	0000002e UART_WriteByte
00101600 g     F .text	0000003e Resource_Init
2012c000 g       .bss	00000000 __StackTop
20120000 g       .data	00000000 __s_ram_data_1
001027a0 g     F .text	00000062 user5_handler
00101780 g     F .text	00000016 user4_handler
00100da0 g     F .text	0000002a UART_GetIntState
00100412 g       .text	00000000 __stext
00101740 g     F .text	00000016 user2_handler
00100fe0 g     F .text	000000d0 UART_RS485Send
20120890 g       .bss	00000000 __s_ram_bss_1
00101590 g     F .text	00000062 Delay
2012c000 g       *ABS*	00000000 __stack
00102ac0 g     F .text	0000009c plic_handler
00100b80 g     F .text	00000020 UART_PollPutChar
00101340 g     F .text	00000038 pml_loc_save
201209a0 g       .bss	00000000 _end
2012bc00 g       *ABS*	00000400 __StackLimit
00101d80 g     F .text	000000d4 TestSaveByCtrl
00101720 g     F .text	00000016 user1_handler
001011e0 g     F .text	0000004e pml_com_malloc
001010b0 g     F .text	0000002c UART_RS485SendSlvAddr
00100e40 g     F .text	00000034 UART_SetDmaMode
20120570 g     O .data	00000320 incMsg
001002a8 g       .text	00000000 pml_get_sp
001018a0 g     F .text	00000090 general_handle_trap
20120000 g       .data	00000000 __data_start
00101640 g     F .text	00000020 Driver_Init
00102a40 g     F .text	00000038 Interrupt_Register_ExtIRQ



Disassembly of section .text:

00100000 <Reset_Handler>:
Reset_Handler():
D:\MCU_WorkSpace\IntegrationTest\mcu4in_IT\function_cpus\RISCV\src/startup.S:118
  .global __dirver_test_service__
  .weak __driver_test_service__
  .type __driver_test_service__, %function
Reset_Handler:
	# enable FPU and accelerator if present, enable global irq
	li t0, MSTATUS_FS | MSTATUS_XS | MSTATUS_MIE
  100000:	0001e2b7          	lui	t0,0x1e
  100004:	00828293          	addi	t0,t0,8 # 1e008 <Reset_Handler-0xe1ff8>
D:\MCU_WorkSpace\IntegrationTest\mcu4in_IT\function_cpus\RISCV\src/startup.S:119
	csrs mstatus, t0
  100008:	3002a073          	csrs	mstatus,t0
D:\MCU_WorkSpace\IntegrationTest\mcu4in_IT\function_cpus\RISCV\src/startup.S:121

  li t0, 0x888 # enable mie
  10000c:	000012b7          	lui	t0,0x1
  100010:	88828293          	addi	t0,t0,-1912 # 888 <Reset_Handler-0xff778>
D:\MCU_WorkSpace\IntegrationTest\mcu4in_IT\function_cpus\RISCV\src/startup.S:122
  csrs mie, t0
  100014:	3042a073          	csrs	mie,t0
D:\MCU_WorkSpace\IntegrationTest\mcu4in_IT\function_cpus\RISCV\src/startup.S:125

  #icache enable
  li t1, 1
  100018:	4305                	li	t1,1
D:\MCU_WorkSpace\IntegrationTest\mcu4in_IT\function_cpus\RISCV\src/startup.S:126
  csrrs t3, mhcr, t1
  10001a:	7c132e73          	csrrs	t3,mhcr,t1
D:\MCU_WorkSpace\IntegrationTest\mcu4in_IT\function_cpus\RISCV\src/startup.S:129

  #dcache enable
  li t1, 2
  10001e:	4309                	li	t1,2
D:\MCU_WorkSpace\IntegrationTest\mcu4in_IT\function_cpus\RISCV\src/startup.S:130
  csrrs t3, mhcr, t1
  100020:	7c132e73          	csrrs	t3,mhcr,t1
D:\MCU_WorkSpace\IntegrationTest\mcu4in_IT\function_cpus\RISCV\src/startup.S:133
  
	# enable MXSTATUS.THEADISAEE bit[22]
	li t0,  0x400000
  100024:	004002b7          	lui	t0,0x400
D:\MCU_WorkSpace\IntegrationTest\mcu4in_IT\function_cpus\RISCV\src/startup.S:134
	csrs mxstatus, t0
  100028:	7c02a073          	csrs	mxstatus,t0
D:\MCU_WorkSpace\IntegrationTest\mcu4in_IT\function_cpus\RISCV\src/startup.S:136

    la      a0, Default_Handler
  10002c:	00000517          	auipc	a0,0x0
  100030:	05450513          	addi	a0,a0,84 # 100080 <Default_Handler>
D:\MCU_WorkSpace\IntegrationTest\mcu4in_IT\function_cpus\RISCV\src/startup.S:137
    ori     a0, a0, 3
  100034:	00356513          	ori	a0,a0,3
D:\MCU_WorkSpace\IntegrationTest\mcu4in_IT\function_cpus\RISCV\src/startup.S:138
    csrw    mtvec, a0
  100038:	30551073          	csrw	mtvec,a0
D:\MCU_WorkSpace\IntegrationTest\mcu4in_IT\function_cpus\RISCV\src/startup.S:140

    la      a0, __Vectors
  10003c:	20020517          	auipc	a0,0x20020
  100040:	fc450513          	addi	a0,a0,-60 # 20120000 <__Vectors>
D:\MCU_WorkSpace\IntegrationTest\mcu4in_IT\function_cpus\RISCV\src/startup.S:141
    csrw    mtvt, a0
  100044:	30751073          	csrw	mtvt,a0
D:\MCU_WorkSpace\IntegrationTest\mcu4in_IT\function_cpus\RISCV\src/startup.S:143

    la      sp, __stack
  100048:	2002c117          	auipc	sp,0x2002c
  10004c:	fb810113          	addi	sp,sp,-72 # 2012c000 <__stack>
D:\MCU_WorkSpace\IntegrationTest\mcu4in_IT\function_cpus\RISCV\src/startup.S:144
    csrw    mscratch, sp
  100050:	34011073          	csrw	mscratch,sp
D:\MCU_WorkSpace\IntegrationTest\mcu4in_IT\function_cpus\RISCV\src/startup.S:146

    jal     SystemInit
  100054:	4dc000ef          	jal	ra,100530 <SystemInit>
D:\MCU_WorkSpace\IntegrationTest\mcu4in_IT\function_cpus\RISCV\src/startup.S:148

    la      a0, __driver_test_service__
  100058:	fff00517          	auipc	a0,0xfff00
  10005c:	fa850513          	addi	a0,a0,-88 # 0 <Reset_Handler-0x100000>
D:\MCU_WorkSpace\IntegrationTest\mcu4in_IT\function_cpus\RISCV\src/startup.S:149
    beq     zero, a0, 1f
  100060:	00a00463          	beq	zero,a0,100068 <Reset_Handler+0x68>
D:\MCU_WorkSpace\IntegrationTest\mcu4in_IT\function_cpus\RISCV\src/startup.S:150
    jalr    a0
  100064:	9502                	jalr	a0
D:\MCU_WorkSpace\IntegrationTest\mcu4in_IT\function_cpus\RISCV\src/startup.S:151
    j       __exit
  100066:	a019                	j	10006c <__exit>
D:\MCU_WorkSpace\IntegrationTest\mcu4in_IT\function_cpus\RISCV\src/startup.S:154

1:
    jal     __main
  100068:	4e8000ef          	jal	ra,100550 <__main>

0010006c <__exit>:
__exit():
D:\MCU_WorkSpace\IntegrationTest\mcu4in_IT\function_cpus\RISCV\src/startup.S:159

    .size   Reset_Handler, . - Reset_Handler

__exit:
    j      __exit
  10006c:	a001                	j	10006c <__exit>
  10006e:	00000013          	nop
  100072:	00000013          	nop
  100076:	00000013          	nop
  10007a:	00000013          	nop
  10007e:	0001                	nop

00100080 <Default_Handler>:
Default_Handler():
D:\MCU_WorkSpace\IntegrationTest\mcu4in_IT\function_cpus\RISCV\src/startup.S:250
  addi sp, sp, 40*REGBYTES
.endm

  .align 6
Default_Handler:
  SAVE_CONTEXT
  100080:	7135                	addi	sp,sp,-160
  100082:	c206                	sw	ra,4(sp)
  100084:	c40a                	sw	sp,8(sp)
  100086:	c60e                	sw	gp,12(sp)
  100088:	c812                	sw	tp,16(sp)
  10008a:	ca16                	sw	t0,20(sp)
  10008c:	cc1a                	sw	t1,24(sp)
  10008e:	ce1e                	sw	t2,28(sp)
  100090:	d022                	sw	s0,32(sp)
  100092:	d226                	sw	s1,36(sp)
  100094:	d42a                	sw	a0,40(sp)
  100096:	d62e                	sw	a1,44(sp)
  100098:	d832                	sw	a2,48(sp)
  10009a:	da36                	sw	a3,52(sp)
  10009c:	dc3a                	sw	a4,56(sp)
  10009e:	de3e                	sw	a5,60(sp)
  1000a0:	c0c2                	sw	a6,64(sp)
  1000a2:	c2c6                	sw	a7,68(sp)
  1000a4:	c4ca                	sw	s2,72(sp)
  1000a6:	c6ce                	sw	s3,76(sp)
  1000a8:	c8d2                	sw	s4,80(sp)
  1000aa:	cad6                	sw	s5,84(sp)
  1000ac:	ccda                	sw	s6,88(sp)
  1000ae:	cede                	sw	s7,92(sp)
  1000b0:	d0e2                	sw	s8,96(sp)
  1000b2:	d2e6                	sw	s9,100(sp)
  1000b4:	d4ea                	sw	s10,104(sp)
  1000b6:	d6ee                	sw	s11,108(sp)
  1000b8:	d8f2                	sw	t3,112(sp)
  1000ba:	daf6                	sw	t4,116(sp)
  1000bc:	dcfa                	sw	t5,120(sp)
  1000be:	defe                	sw	t6,124(sp)
  1000c0:	341022f3          	csrr	t0,mepc
  1000c4:	c116                	sw	t0,128(sp)
  1000c6:	342022f3          	csrr	t0,mcause
  1000ca:	c316                	sw	t0,132(sp)
D:\MCU_WorkSpace\IntegrationTest\mcu4in_IT\function_cpus\RISCV\src/startup.S:252

  csrr a0, mcause
  1000cc:	34202573          	csrr	a0,mcause
D:\MCU_WorkSpace\IntegrationTest\mcu4in_IT\function_cpus\RISCV\src/startup.S:253
  csrr a1, mepc
  1000d0:	341025f3          	csrr	a1,mepc
D:\MCU_WorkSpace\IntegrationTest\mcu4in_IT\function_cpus\RISCV\src/startup.S:254
  mv a2, sp
  1000d4:	860a                	mv	a2,sp
D:\MCU_WorkSpace\IntegrationTest\mcu4in_IT\function_cpus\RISCV\src/startup.S:255
  jal general_handle_trap
  1000d6:	7ca010ef          	jal	ra,1018a0 <general_handle_trap>
D:\MCU_WorkSpace\IntegrationTest\mcu4in_IT\function_cpus\RISCV\src/startup.S:257

  RESTORE_CONTEXT
  1000da:	428a                	lw	t0,128(sp)
  1000dc:	34129073          	csrw	mepc,t0
  1000e0:	429a                	lw	t0,132(sp)
  1000e2:	34229073          	csrw	mcause,t0
  1000e6:	000022b7          	lui	t0,0x2
  1000ea:	88028293          	addi	t0,t0,-1920 # 1880 <Reset_Handler-0xfe780>
  1000ee:	3002a073          	csrs	mstatus,t0
  1000f2:	4092                	lw	ra,4(sp)
  1000f4:	4122                	lw	sp,8(sp)
  1000f6:	41b2                	lw	gp,12(sp)
  1000f8:	4242                	lw	tp,16(sp)
  1000fa:	42d2                	lw	t0,20(sp)
  1000fc:	4362                	lw	t1,24(sp)
  1000fe:	43f2                	lw	t2,28(sp)
  100100:	5402                	lw	s0,32(sp)
  100102:	5492                	lw	s1,36(sp)
  100104:	5522                	lw	a0,40(sp)
  100106:	55b2                	lw	a1,44(sp)
  100108:	5642                	lw	a2,48(sp)
  10010a:	56d2                	lw	a3,52(sp)
  10010c:	5762                	lw	a4,56(sp)
  10010e:	57f2                	lw	a5,60(sp)
  100110:	4806                	lw	a6,64(sp)
  100112:	4896                	lw	a7,68(sp)
  100114:	4926                	lw	s2,72(sp)
  100116:	49b6                	lw	s3,76(sp)
  100118:	4a46                	lw	s4,80(sp)
  10011a:	4ad6                	lw	s5,84(sp)
  10011c:	4b66                	lw	s6,88(sp)
  10011e:	4bf6                	lw	s7,92(sp)
  100120:	5c06                	lw	s8,96(sp)
  100122:	5c96                	lw	s9,100(sp)
  100124:	5d26                	lw	s10,104(sp)
  100126:	5db6                	lw	s11,108(sp)
  100128:	5e46                	lw	t3,112(sp)
  10012a:	5ed6                	lw	t4,116(sp)
  10012c:	5f66                	lw	t5,120(sp)
  10012e:	5ff6                	lw	t6,124(sp)
  100130:	610d                	addi	sp,sp,160
D:\MCU_WorkSpace\IntegrationTest\mcu4in_IT\function_cpus\RISCV\src/startup.S:258
  mret
  100132:	30200073          	mret
  100136:	0001                	nop

00100138 <SAVE_CONTEXT_Handler>:
SAVE_CONTEXT_Handler():
D:\MCU_WorkSpace\IntegrationTest\mcu4in_IT\function_cpus\RISCV\src/startup.S:262

  .align 2
SAVE_CONTEXT_Handler:
  SAVE_CONTEXT
  100138:	7135                	addi	sp,sp,-160
  10013a:	c206                	sw	ra,4(sp)
  10013c:	c40a                	sw	sp,8(sp)
  10013e:	c60e                	sw	gp,12(sp)
  100140:	c812                	sw	tp,16(sp)
  100142:	ca16                	sw	t0,20(sp)
  100144:	cc1a                	sw	t1,24(sp)
  100146:	ce1e                	sw	t2,28(sp)
  100148:	d022                	sw	s0,32(sp)
  10014a:	d226                	sw	s1,36(sp)
  10014c:	d42a                	sw	a0,40(sp)
  10014e:	d62e                	sw	a1,44(sp)
  100150:	d832                	sw	a2,48(sp)
  100152:	da36                	sw	a3,52(sp)
  100154:	dc3a                	sw	a4,56(sp)
  100156:	de3e                	sw	a5,60(sp)
  100158:	c0c2                	sw	a6,64(sp)
  10015a:	c2c6                	sw	a7,68(sp)
  10015c:	c4ca                	sw	s2,72(sp)
  10015e:	c6ce                	sw	s3,76(sp)
  100160:	c8d2                	sw	s4,80(sp)
  100162:	cad6                	sw	s5,84(sp)
  100164:	ccda                	sw	s6,88(sp)
  100166:	cede                	sw	s7,92(sp)
  100168:	d0e2                	sw	s8,96(sp)
  10016a:	d2e6                	sw	s9,100(sp)
  10016c:	d4ea                	sw	s10,104(sp)
  10016e:	d6ee                	sw	s11,108(sp)
  100170:	d8f2                	sw	t3,112(sp)
  100172:	daf6                	sw	t4,116(sp)
  100174:	dcfa                	sw	t5,120(sp)
  100176:	defe                	sw	t6,124(sp)
  100178:	341022f3          	csrr	t0,mepc
  10017c:	c116                	sw	t0,128(sp)
  10017e:	342022f3          	csrr	t0,mcause
  100182:	c316                	sw	t0,132(sp)
D:\MCU_WorkSpace\IntegrationTest\mcu4in_IT\function_cpus\RISCV\src/startup.S:264

  csrr a0, mcause
  100184:	34202573          	csrr	a0,mcause
D:\MCU_WorkSpace\IntegrationTest\mcu4in_IT\function_cpus\RISCV\src/startup.S:265
  csrr a1, mepc
  100188:	341025f3          	csrr	a1,mepc
D:\MCU_WorkSpace\IntegrationTest\mcu4in_IT\function_cpus\RISCV\src/startup.S:266
  mv a2, sp
  10018c:	860a                	mv	a2,sp
D:\MCU_WorkSpace\IntegrationTest\mcu4in_IT\function_cpus\RISCV\src/startup.S:267
  jal save_context_handler
  10018e:	4e2010ef          	jal	ra,101670 <save_context_handler>
D:\MCU_WorkSpace\IntegrationTest\mcu4in_IT\function_cpus\RISCV\src/startup.S:269
  
  RESTORE_CONTEXT
  100192:	428a                	lw	t0,128(sp)
  100194:	34129073          	csrw	mepc,t0
  100198:	429a                	lw	t0,132(sp)
  10019a:	34229073          	csrw	mcause,t0
  10019e:	000022b7          	lui	t0,0x2
  1001a2:	88028293          	addi	t0,t0,-1920 # 1880 <Reset_Handler-0xfe780>
  1001a6:	3002a073          	csrs	mstatus,t0
  1001aa:	4092                	lw	ra,4(sp)
  1001ac:	4122                	lw	sp,8(sp)
  1001ae:	41b2                	lw	gp,12(sp)
  1001b0:	4242                	lw	tp,16(sp)
  1001b2:	42d2                	lw	t0,20(sp)
  1001b4:	4362                	lw	t1,24(sp)
  1001b6:	43f2                	lw	t2,28(sp)
  1001b8:	5402                	lw	s0,32(sp)
  1001ba:	5492                	lw	s1,36(sp)
  1001bc:	5522                	lw	a0,40(sp)
  1001be:	55b2                	lw	a1,44(sp)
  1001c0:	5642                	lw	a2,48(sp)
  1001c2:	56d2                	lw	a3,52(sp)
  1001c4:	5762                	lw	a4,56(sp)
  1001c6:	57f2                	lw	a5,60(sp)
  1001c8:	4806                	lw	a6,64(sp)
  1001ca:	4896                	lw	a7,68(sp)
  1001cc:	4926                	lw	s2,72(sp)
  1001ce:	49b6                	lw	s3,76(sp)
  1001d0:	4a46                	lw	s4,80(sp)
  1001d2:	4ad6                	lw	s5,84(sp)
  1001d4:	4b66                	lw	s6,88(sp)
  1001d6:	4bf6                	lw	s7,92(sp)
  1001d8:	5c06                	lw	s8,96(sp)
  1001da:	5c96                	lw	s9,100(sp)
  1001dc:	5d26                	lw	s10,104(sp)
  1001de:	5db6                	lw	s11,108(sp)
  1001e0:	5e46                	lw	t3,112(sp)
  1001e2:	5ed6                	lw	t4,116(sp)
  1001e4:	5f66                	lw	t5,120(sp)
  1001e6:	5ff6                	lw	t6,124(sp)
  1001e8:	610d                	addi	sp,sp,160
D:\MCU_WorkSpace\IntegrationTest\mcu4in_IT\function_cpus\RISCV\src/startup.S:270
  mret
  1001ea:	30200073          	mret
  1001ee:	0001                	nop

001001f0 <PLIC_Handler>:
PLIC_Handler():
D:\MCU_WorkSpace\IntegrationTest\mcu4in_IT\function_cpus\RISCV\src/startup.S:274

  .align 2
PLIC_Handler:
  SAVE_CONTEXT
  1001f0:	7135                	addi	sp,sp,-160
  1001f2:	c206                	sw	ra,4(sp)
  1001f4:	c40a                	sw	sp,8(sp)
  1001f6:	c60e                	sw	gp,12(sp)
  1001f8:	c812                	sw	tp,16(sp)
  1001fa:	ca16                	sw	t0,20(sp)
  1001fc:	cc1a                	sw	t1,24(sp)
  1001fe:	ce1e                	sw	t2,28(sp)
  100200:	d022                	sw	s0,32(sp)
  100202:	d226                	sw	s1,36(sp)
  100204:	d42a                	sw	a0,40(sp)
  100206:	d62e                	sw	a1,44(sp)
  100208:	d832                	sw	a2,48(sp)
  10020a:	da36                	sw	a3,52(sp)
  10020c:	dc3a                	sw	a4,56(sp)
  10020e:	de3e                	sw	a5,60(sp)
  100210:	c0c2                	sw	a6,64(sp)
  100212:	c2c6                	sw	a7,68(sp)
  100214:	c4ca                	sw	s2,72(sp)
  100216:	c6ce                	sw	s3,76(sp)
  100218:	c8d2                	sw	s4,80(sp)
  10021a:	cad6                	sw	s5,84(sp)
  10021c:	ccda                	sw	s6,88(sp)
  10021e:	cede                	sw	s7,92(sp)
  100220:	d0e2                	sw	s8,96(sp)
  100222:	d2e6                	sw	s9,100(sp)
  100224:	d4ea                	sw	s10,104(sp)
  100226:	d6ee                	sw	s11,108(sp)
  100228:	d8f2                	sw	t3,112(sp)
  10022a:	daf6                	sw	t4,116(sp)
  10022c:	dcfa                	sw	t5,120(sp)
  10022e:	defe                	sw	t6,124(sp)
  100230:	341022f3          	csrr	t0,mepc
  100234:	c116                	sw	t0,128(sp)
  100236:	342022f3          	csrr	t0,mcause
  10023a:	c316                	sw	t0,132(sp)
D:\MCU_WorkSpace\IntegrationTest\mcu4in_IT\function_cpus\RISCV\src/startup.S:276

  csrr a0, mcause
  10023c:	34202573          	csrr	a0,mcause
D:\MCU_WorkSpace\IntegrationTest\mcu4in_IT\function_cpus\RISCV\src/startup.S:277
  csrr a1, mepc
  100240:	341025f3          	csrr	a1,mepc
D:\MCU_WorkSpace\IntegrationTest\mcu4in_IT\function_cpus\RISCV\src/startup.S:278
  mv a2, sp
  100244:	860a                	mv	a2,sp
D:\MCU_WorkSpace\IntegrationTest\mcu4in_IT\function_cpus\RISCV\src/startup.S:279
  jal plic_handler
  100246:	07b020ef          	jal	ra,102ac0 <plic_handler>
D:\MCU_WorkSpace\IntegrationTest\mcu4in_IT\function_cpus\RISCV\src/startup.S:281
  
  RESTORE_CONTEXT
  10024a:	428a                	lw	t0,128(sp)
  10024c:	34129073          	csrw	mepc,t0
  100250:	429a                	lw	t0,132(sp)
  100252:	34229073          	csrw	mcause,t0
  100256:	000022b7          	lui	t0,0x2
  10025a:	88028293          	addi	t0,t0,-1920 # 1880 <Reset_Handler-0xfe780>
  10025e:	3002a073          	csrs	mstatus,t0
  100262:	4092                	lw	ra,4(sp)
  100264:	4122                	lw	sp,8(sp)
  100266:	41b2                	lw	gp,12(sp)
  100268:	4242                	lw	tp,16(sp)
  10026a:	42d2                	lw	t0,20(sp)
  10026c:	4362                	lw	t1,24(sp)
  10026e:	43f2                	lw	t2,28(sp)
  100270:	5402                	lw	s0,32(sp)
  100272:	5492                	lw	s1,36(sp)
  100274:	5522                	lw	a0,40(sp)
  100276:	55b2                	lw	a1,44(sp)
  100278:	5642                	lw	a2,48(sp)
  10027a:	56d2                	lw	a3,52(sp)
  10027c:	5762                	lw	a4,56(sp)
  10027e:	57f2                	lw	a5,60(sp)
  100280:	4806                	lw	a6,64(sp)
  100282:	4896                	lw	a7,68(sp)
  100284:	4926                	lw	s2,72(sp)
  100286:	49b6                	lw	s3,76(sp)
  100288:	4a46                	lw	s4,80(sp)
  10028a:	4ad6                	lw	s5,84(sp)
  10028c:	4b66                	lw	s6,88(sp)
  10028e:	4bf6                	lw	s7,92(sp)
  100290:	5c06                	lw	s8,96(sp)
  100292:	5c96                	lw	s9,100(sp)
  100294:	5d26                	lw	s10,104(sp)
  100296:	5db6                	lw	s11,108(sp)
  100298:	5e46                	lw	t3,112(sp)
  10029a:	5ed6                	lw	t4,116(sp)
  10029c:	5f66                	lw	t5,120(sp)
  10029e:	5ff6                	lw	t6,124(sp)
  1002a0:	610d                	addi	sp,sp,160
D:\MCU_WorkSpace\IntegrationTest\mcu4in_IT\function_cpus\RISCV\src/startup.S:282
  mret
  1002a2:	30200073          	mret
  1002a6:	0001                	nop

001002a8 <pml_get_sp>:
pml_get_sp():
D:\MCU_WorkSpace\IntegrationTest\mcu4in_IT\function_cpus\RISCV\src/startup.S:287

.global pml_get_sp
  .align 2
pml_get_sp:
  addi	sp,sp,-32
  1002a8:	1101                	addi	sp,sp,-32
D:\MCU_WorkSpace\IntegrationTest\mcu4in_IT\function_cpus\RISCV\src/startup.S:288
  sw	ra,28(sp)
  1002aa:	ce06                	sw	ra,28(sp)
D:\MCU_WorkSpace\IntegrationTest\mcu4in_IT\function_cpus\RISCV\src/startup.S:289
  sw  s0,24(sp)
  1002ac:	cc22                	sw	s0,24(sp)
D:\MCU_WorkSpace\IntegrationTest\mcu4in_IT\function_cpus\RISCV\src/startup.S:290
  addi	s0,sp,32
  1002ae:	1000                	addi	s0,sp,32
D:\MCU_WorkSpace\IntegrationTest\mcu4in_IT\function_cpus\RISCV\src/startup.S:291
  sw	a0,-20(s0) // input parameter: unsigned int *pr
  1002b0:	fea42623          	sw	a0,-20(s0)
D:\MCU_WorkSpace\IntegrationTest\mcu4in_IT\function_cpus\RISCV\src/startup.S:293

  mv	a4,s0
  1002b4:	8722                	mv	a4,s0
D:\MCU_WorkSpace\IntegrationTest\mcu4in_IT\function_cpus\RISCV\src/startup.S:294
  lw	a5,-20(s0)
  1002b6:	fec42783          	lw	a5,-20(s0)
D:\MCU_WorkSpace\IntegrationTest\mcu4in_IT\function_cpus\RISCV\src/startup.S:295
  sw	a4,0(a5)   // *pr = old sp
  1002ba:	c398                	sw	a4,0(a5)
D:\MCU_WorkSpace\IntegrationTest\mcu4in_IT\function_cpus\RISCV\src/startup.S:297

  nop
  1002bc:	0001                	nop
D:\MCU_WorkSpace\IntegrationTest\mcu4in_IT\function_cpus\RISCV\src/startup.S:298
  lw  ra,28(sp)
  1002be:	40f2                	lw	ra,28(sp)
D:\MCU_WorkSpace\IntegrationTest\mcu4in_IT\function_cpus\RISCV\src/startup.S:299
  lw	s0,24(sp)
  1002c0:	4462                	lw	s0,24(sp)
D:\MCU_WorkSpace\IntegrationTest\mcu4in_IT\function_cpus\RISCV\src/startup.S:300
  addi	sp,sp,32
  1002c2:	6105                	addi	sp,sp,32
D:\MCU_WorkSpace\IntegrationTest\mcu4in_IT\function_cpus\RISCV\src/startup.S:301
  ret
  1002c4:	8082                	ret
  1002c6:	0001                	nop

001002c8 <pml_stack_restore>:
pml_stack_restore():
D:\MCU_WorkSpace\IntegrationTest\mcu4in_IT\function_cpus\RISCV\src/startup.S:306

.global pml_stack_restore
  .align 2
pml_stack_restore: 
  addi	sp,sp,-32
  1002c8:	1101                	addi	sp,sp,-32
D:\MCU_WorkSpace\IntegrationTest\mcu4in_IT\function_cpus\RISCV\src/startup.S:307
  sw	ra,28(sp)
  1002ca:	ce06                	sw	ra,28(sp)
D:\MCU_WorkSpace\IntegrationTest\mcu4in_IT\function_cpus\RISCV\src/startup.S:308
  sw	s0,24(sp)
  1002cc:	cc22                	sw	s0,24(sp)
D:\MCU_WorkSpace\IntegrationTest\mcu4in_IT\function_cpus\RISCV\src/startup.S:309
  addi	s0,sp,32
  1002ce:	1000                	addi	s0,sp,32
D:\MCU_WorkSpace\IntegrationTest\mcu4in_IT\function_cpus\RISCV\src/startup.S:311

  sw	zero,-20(s0) // unsigned int result = 0
  1002d0:	fe042623          	sw	zero,-20(s0)
D:\MCU_WorkSpace\IntegrationTest\mcu4in_IT\function_cpus\RISCV\src/startup.S:312
  mv	a5,s0        // __asm volatile("mv %0, s0" : "=r"(result))
  1002d4:	87a2                	mv	a5,s0
D:\MCU_WorkSpace\IntegrationTest\mcu4in_IT\function_cpus\RISCV\src/startup.S:313
  sw	a5,-20(s0)   // result = old sp
  1002d6:	fef42623          	sw	a5,-20(s0)
D:\MCU_WorkSpace\IntegrationTest\mcu4in_IT\function_cpus\RISCV\src/startup.S:315
  
  lw	a0,-20(s0)   // stack_restore_helper(result)
  1002da:	fec42503          	lw	a0,-20(s0)
D:\MCU_WorkSpace\IntegrationTest\mcu4in_IT\function_cpus\RISCV\src/startup.S:316
  jal	stack_restore_helper
  1002de:	212010ef          	jal	ra,1014f0 <stack_restore_helper>
D:\MCU_WorkSpace\IntegrationTest\mcu4in_IT\function_cpus\RISCV\src/startup.S:318

  nop
  1002e2:	0001                	nop
D:\MCU_WorkSpace\IntegrationTest\mcu4in_IT\function_cpus\RISCV\src/startup.S:319
  lw	ra,28(sp)
  1002e4:	40f2                	lw	ra,28(sp)
D:\MCU_WorkSpace\IntegrationTest\mcu4in_IT\function_cpus\RISCV\src/startup.S:320
  lw	s0,24(sp)
  1002e6:	4462                	lw	s0,24(sp)
D:\MCU_WorkSpace\IntegrationTest\mcu4in_IT\function_cpus\RISCV\src/startup.S:321
  addi	sp,sp,32
  1002e8:	6105                	addi	sp,sp,32
D:\MCU_WorkSpace\IntegrationTest\mcu4in_IT\function_cpus\RISCV\src/startup.S:322
  ret
  1002ea:	8082                	ret

001002ec <SAVE_REGISTER>:
SAVE_REGISTER():
D:\MCU_WorkSpace\IntegrationTest\mcu4in_IT\function_cpus\RISCV\src/startup.S:329
.global SAVE_REGISTER
.global RESTORE_REGISTER

  .align 2
SAVE_REGISTER:
  la t6, 0x4400FC00 # define STACK_SAVE_SRAM_ADDR  (LOC_SRAM_BASEADDR + LOC_SRAM_SIZE - __REGS_SIZE - __STACK_SIZE)
  1002ec:	44010fb7          	lui	t6,0x44010
  1002f0:	c00f8f93          	addi	t6,t6,-1024 # 4400fc00 <__stack+0x23ee3c00>
D:\MCU_WorkSpace\IntegrationTest\mcu4in_IT\function_cpus\RISCV\src/startup.S:330
  sw x1, 1*4(t6)
  1002f4:	001fa223          	sw	ra,4(t6)
D:\MCU_WorkSpace\IntegrationTest\mcu4in_IT\function_cpus\RISCV\src/startup.S:331
  sw x2, 2*4(t6)
  1002f8:	002fa423          	sw	sp,8(t6)
D:\MCU_WorkSpace\IntegrationTest\mcu4in_IT\function_cpus\RISCV\src/startup.S:332
  sw x3, 3*4(t6)
  1002fc:	003fa623          	sw	gp,12(t6)
D:\MCU_WorkSpace\IntegrationTest\mcu4in_IT\function_cpus\RISCV\src/startup.S:333
  sw x4, 4*4(t6)
  100300:	004fa823          	sw	tp,16(t6)
D:\MCU_WorkSpace\IntegrationTest\mcu4in_IT\function_cpus\RISCV\src/startup.S:334
  sw x5, 5*4(t6)
  100304:	005faa23          	sw	t0,20(t6)
D:\MCU_WorkSpace\IntegrationTest\mcu4in_IT\function_cpus\RISCV\src/startup.S:335
  sw x6, 6*4(t6)
  100308:	006fac23          	sw	t1,24(t6)
D:\MCU_WorkSpace\IntegrationTest\mcu4in_IT\function_cpus\RISCV\src/startup.S:336
  sw x7, 7*4(t6)
  10030c:	007fae23          	sw	t2,28(t6)
D:\MCU_WorkSpace\IntegrationTest\mcu4in_IT\function_cpus\RISCV\src/startup.S:337
  sw x8, 8*4(t6)
  100310:	028fa023          	sw	s0,32(t6)
D:\MCU_WorkSpace\IntegrationTest\mcu4in_IT\function_cpus\RISCV\src/startup.S:338
  sw x9, 9*4(t6)
  100314:	029fa223          	sw	s1,36(t6)
D:\MCU_WorkSpace\IntegrationTest\mcu4in_IT\function_cpus\RISCV\src/startup.S:339
  sw x10, 10*4(t6)
  100318:	02afa423          	sw	a0,40(t6)
D:\MCU_WorkSpace\IntegrationTest\mcu4in_IT\function_cpus\RISCV\src/startup.S:340
  sw x11, 11*4(t6)
  10031c:	02bfa623          	sw	a1,44(t6)
D:\MCU_WorkSpace\IntegrationTest\mcu4in_IT\function_cpus\RISCV\src/startup.S:341
  sw x12, 12*4(t6)
  100320:	02cfa823          	sw	a2,48(t6)
D:\MCU_WorkSpace\IntegrationTest\mcu4in_IT\function_cpus\RISCV\src/startup.S:342
  sw x13, 13*4(t6)
  100324:	02dfaa23          	sw	a3,52(t6)
D:\MCU_WorkSpace\IntegrationTest\mcu4in_IT\function_cpus\RISCV\src/startup.S:343
  sw x14, 14*4(t6)
  100328:	02efac23          	sw	a4,56(t6)
D:\MCU_WorkSpace\IntegrationTest\mcu4in_IT\function_cpus\RISCV\src/startup.S:344
  sw x15, 15*4(t6)
  10032c:	02ffae23          	sw	a5,60(t6)
D:\MCU_WorkSpace\IntegrationTest\mcu4in_IT\function_cpus\RISCV\src/startup.S:345
  sw x16, 16*4(t6)
  100330:	050fa023          	sw	a6,64(t6)
D:\MCU_WorkSpace\IntegrationTest\mcu4in_IT\function_cpus\RISCV\src/startup.S:346
  sw x17, 17*4(t6)
  100334:	051fa223          	sw	a7,68(t6)
D:\MCU_WorkSpace\IntegrationTest\mcu4in_IT\function_cpus\RISCV\src/startup.S:347
  sw x18, 18*4(t6)
  100338:	052fa423          	sw	s2,72(t6)
D:\MCU_WorkSpace\IntegrationTest\mcu4in_IT\function_cpus\RISCV\src/startup.S:348
  sw x19, 19*4(t6)
  10033c:	053fa623          	sw	s3,76(t6)
D:\MCU_WorkSpace\IntegrationTest\mcu4in_IT\function_cpus\RISCV\src/startup.S:349
  sw x20, 20*4(t6)
  100340:	054fa823          	sw	s4,80(t6)
D:\MCU_WorkSpace\IntegrationTest\mcu4in_IT\function_cpus\RISCV\src/startup.S:350
  sw x21, 21*4(t6)
  100344:	055faa23          	sw	s5,84(t6)
D:\MCU_WorkSpace\IntegrationTest\mcu4in_IT\function_cpus\RISCV\src/startup.S:351
  sw x22, 22*4(t6)
  100348:	056fac23          	sw	s6,88(t6)
D:\MCU_WorkSpace\IntegrationTest\mcu4in_IT\function_cpus\RISCV\src/startup.S:352
  sw x23, 23*4(t6)
  10034c:	057fae23          	sw	s7,92(t6)
D:\MCU_WorkSpace\IntegrationTest\mcu4in_IT\function_cpus\RISCV\src/startup.S:353
  sw x24, 24*4(t6)
  100350:	078fa023          	sw	s8,96(t6)
D:\MCU_WorkSpace\IntegrationTest\mcu4in_IT\function_cpus\RISCV\src/startup.S:354
  sw x25, 25*4(t6)
  100354:	079fa223          	sw	s9,100(t6)
D:\MCU_WorkSpace\IntegrationTest\mcu4in_IT\function_cpus\RISCV\src/startup.S:355
  sw x26, 26*4(t6)
  100358:	07afa423          	sw	s10,104(t6)
D:\MCU_WorkSpace\IntegrationTest\mcu4in_IT\function_cpus\RISCV\src/startup.S:356
  sw x27, 27*4(t6)
  10035c:	07bfa623          	sw	s11,108(t6)
D:\MCU_WorkSpace\IntegrationTest\mcu4in_IT\function_cpus\RISCV\src/startup.S:357
  sw x28, 28*4(t6)
  100360:	07cfa823          	sw	t3,112(t6)
D:\MCU_WorkSpace\IntegrationTest\mcu4in_IT\function_cpus\RISCV\src/startup.S:358
  sw x29, 29*4(t6)
  100364:	07dfaa23          	sw	t4,116(t6)
D:\MCU_WorkSpace\IntegrationTest\mcu4in_IT\function_cpus\RISCV\src/startup.S:359
  sw x30, 30*4(t6)
  100368:	07efac23          	sw	t5,120(t6)
D:\MCU_WorkSpace\IntegrationTest\mcu4in_IT\function_cpus\RISCV\src/startup.S:360
  ret
  10036c:	8082                	ret
  10036e:	0001                	nop

00100370 <RESTORE_REGISTER>:
RESTORE_REGISTER():
D:\MCU_WorkSpace\IntegrationTest\mcu4in_IT\function_cpus\RISCV\src/startup.S:364

  .align 2
RESTORE_REGISTER:
  la t6, 0x4400FC00 # define STACK_SAVE_SRAM_ADDR  (LOC_SRAM_BASEADDR + LOC_SRAM_SIZE - __REGS_SIZE - __STACK_SIZE)
  100370:	44010fb7          	lui	t6,0x44010
  100374:	c00f8f93          	addi	t6,t6,-1024 # 4400fc00 <__stack+0x23ee3c00>
D:\MCU_WorkSpace\IntegrationTest\mcu4in_IT\function_cpus\RISCV\src/startup.S:365
  lw x1, 1*4(t6)
  100378:	004fa083          	lw	ra,4(t6)
D:\MCU_WorkSpace\IntegrationTest\mcu4in_IT\function_cpus\RISCV\src/startup.S:366
  lw x2, 2*4(t6)
  10037c:	008fa103          	lw	sp,8(t6)
D:\MCU_WorkSpace\IntegrationTest\mcu4in_IT\function_cpus\RISCV\src/startup.S:367
  lw x3, 3*4(t6)
  100380:	00cfa183          	lw	gp,12(t6)
D:\MCU_WorkSpace\IntegrationTest\mcu4in_IT\function_cpus\RISCV\src/startup.S:368
  lw x4, 4*4(t6)
  100384:	010fa203          	lw	tp,16(t6)
D:\MCU_WorkSpace\IntegrationTest\mcu4in_IT\function_cpus\RISCV\src/startup.S:369
  lw x5, 5*4(t6)
  100388:	014fa283          	lw	t0,20(t6)
D:\MCU_WorkSpace\IntegrationTest\mcu4in_IT\function_cpus\RISCV\src/startup.S:370
  lw x6, 6*4(t6)
  10038c:	018fa303          	lw	t1,24(t6)
D:\MCU_WorkSpace\IntegrationTest\mcu4in_IT\function_cpus\RISCV\src/startup.S:371
  lw x7, 7*4(t6)
  100390:	01cfa383          	lw	t2,28(t6)
D:\MCU_WorkSpace\IntegrationTest\mcu4in_IT\function_cpus\RISCV\src/startup.S:372
  lw x8, 8*4(t6)
  100394:	020fa403          	lw	s0,32(t6)
D:\MCU_WorkSpace\IntegrationTest\mcu4in_IT\function_cpus\RISCV\src/startup.S:373
  lw x9, 9*4(t6)
  100398:	024fa483          	lw	s1,36(t6)
D:\MCU_WorkSpace\IntegrationTest\mcu4in_IT\function_cpus\RISCV\src/startup.S:374
  lw x10, 10*4(t6)
  10039c:	028fa503          	lw	a0,40(t6)
D:\MCU_WorkSpace\IntegrationTest\mcu4in_IT\function_cpus\RISCV\src/startup.S:375
  lw x11, 11*4(t6)
  1003a0:	02cfa583          	lw	a1,44(t6)
D:\MCU_WorkSpace\IntegrationTest\mcu4in_IT\function_cpus\RISCV\src/startup.S:376
  lw x12, 12*4(t6)
  1003a4:	030fa603          	lw	a2,48(t6)
D:\MCU_WorkSpace\IntegrationTest\mcu4in_IT\function_cpus\RISCV\src/startup.S:377
  lw x13, 13*4(t6)
  1003a8:	034fa683          	lw	a3,52(t6)
D:\MCU_WorkSpace\IntegrationTest\mcu4in_IT\function_cpus\RISCV\src/startup.S:378
  lw x14, 14*4(t6)
  1003ac:	038fa703          	lw	a4,56(t6)
D:\MCU_WorkSpace\IntegrationTest\mcu4in_IT\function_cpus\RISCV\src/startup.S:379
  lw x15, 15*4(t6)
  1003b0:	03cfa783          	lw	a5,60(t6)
D:\MCU_WorkSpace\IntegrationTest\mcu4in_IT\function_cpus\RISCV\src/startup.S:380
  lw x16, 16*4(t6)
  1003b4:	040fa803          	lw	a6,64(t6)
D:\MCU_WorkSpace\IntegrationTest\mcu4in_IT\function_cpus\RISCV\src/startup.S:381
  lw x17, 17*4(t6)
  1003b8:	044fa883          	lw	a7,68(t6)
D:\MCU_WorkSpace\IntegrationTest\mcu4in_IT\function_cpus\RISCV\src/startup.S:382
  lw x18, 18*4(t6)
  1003bc:	048fa903          	lw	s2,72(t6)
D:\MCU_WorkSpace\IntegrationTest\mcu4in_IT\function_cpus\RISCV\src/startup.S:383
  lw x19, 19*4(t6)
  1003c0:	04cfa983          	lw	s3,76(t6)
D:\MCU_WorkSpace\IntegrationTest\mcu4in_IT\function_cpus\RISCV\src/startup.S:384
  lw x20, 20*4(t6)
  1003c4:	050faa03          	lw	s4,80(t6)
D:\MCU_WorkSpace\IntegrationTest\mcu4in_IT\function_cpus\RISCV\src/startup.S:385
  lw x21, 21*4(t6)
  1003c8:	054faa83          	lw	s5,84(t6)
D:\MCU_WorkSpace\IntegrationTest\mcu4in_IT\function_cpus\RISCV\src/startup.S:386
  lw x22, 22*4(t6)
  1003cc:	058fab03          	lw	s6,88(t6)
D:\MCU_WorkSpace\IntegrationTest\mcu4in_IT\function_cpus\RISCV\src/startup.S:387
  lw x23, 23*4(t6)
  1003d0:	05cfab83          	lw	s7,92(t6)
D:\MCU_WorkSpace\IntegrationTest\mcu4in_IT\function_cpus\RISCV\src/startup.S:388
  lw x24, 24*4(t6)
  1003d4:	060fac03          	lw	s8,96(t6)
D:\MCU_WorkSpace\IntegrationTest\mcu4in_IT\function_cpus\RISCV\src/startup.S:389
  lw x25, 25*4(t6)
  1003d8:	064fac83          	lw	s9,100(t6)
D:\MCU_WorkSpace\IntegrationTest\mcu4in_IT\function_cpus\RISCV\src/startup.S:390
  lw x26, 26*4(t6)
  1003dc:	068fad03          	lw	s10,104(t6)
D:\MCU_WorkSpace\IntegrationTest\mcu4in_IT\function_cpus\RISCV\src/startup.S:391
  lw x27, 27*4(t6)
  1003e0:	06cfad83          	lw	s11,108(t6)
D:\MCU_WorkSpace\IntegrationTest\mcu4in_IT\function_cpus\RISCV\src/startup.S:392
  lw x28, 28*4(t6)
  1003e4:	070fae03          	lw	t3,112(t6)
D:\MCU_WorkSpace\IntegrationTest\mcu4in_IT\function_cpus\RISCV\src/startup.S:393
  lw x29, 29*4(t6)
  1003e8:	074fae83          	lw	t4,116(t6)
D:\MCU_WorkSpace\IntegrationTest\mcu4in_IT\function_cpus\RISCV\src/startup.S:394
  lw x30, 30*4(t6)
  1003ec:	078faf03          	lw	t5,120(t6)
D:\MCU_WorkSpace\IntegrationTest\mcu4in_IT\function_cpus\RISCV\src/startup.S:395
  1003f0:	8082                	ret
	...

00100412 <__stext>:
	...

00100420 <MemoryInit>:
MemoryInit():
D:\MCU_WorkSpace\IntegrationTest\mcu4in_IT\function_cpus\RISCV\src/e906.c:25
extern char __e_ram_data_1[];
extern char __e_ram_bss_1[];
extern char __s_ram_bss_1[];

static void MemoryInit( void ) 
{
  100420:	7179                	addi	sp,sp,-48
  100422:	d622                	sw	s0,44(sp)
  100424:	1800                	addi	s0,sp,48
D:\MCU_WorkSpace\IntegrationTest\mcu4in_IT\function_cpus\RISCV\src/e906.c:26
  char *dst = __s_ram_data_1;
  100426:	201207b7          	lui	a5,0x20120
  10042a:	00078793          	mv	a5,a5
  10042e:	fef42223          	sw	a5,-28(s0)
D:\MCU_WorkSpace\IntegrationTest\mcu4in_IT\function_cpus\RISCV\src/e906.c:27
  char *src = __l_s_ram;
  100432:	001037b7          	lui	a5,0x103
  100436:	40c78793          	addi	a5,a5,1036 # 10340c <__l_s_ram>
  10043a:	fef42023          	sw	a5,-32(s0)
D:\MCU_WorkSpace\IntegrationTest\mcu4in_IT\function_cpus\RISCV\src/e906.c:54
	// for(pulDest = &__s_ram_bss_1; pulDest < &__e_ram_bss_1; )
    // {
    //     *(pulDest++) = 0;
    // }

  unsigned int count = (__e_ram_data_1 - __s_ram_data_1) / 4;
  10043e:	201217b7          	lui	a5,0x20121
  100442:	89078713          	addi	a4,a5,-1904 # 20120890 <__e_ram_data_1>
  100446:	201207b7          	lui	a5,0x20120
  10044a:	00078793          	mv	a5,a5
  10044e:	40f707b3          	sub	a5,a4,a5
  100452:	41f7d713          	srai	a4,a5,0x1f
  100456:	8b0d                	andi	a4,a4,3
  100458:	97ba                	add	a5,a5,a4
  10045a:	8789                	srai	a5,a5,0x2
  10045c:	fcf42e23          	sw	a5,-36(s0)
D:\MCU_WorkSpace\IntegrationTest\mcu4in_IT\function_cpus\RISCV\src/e906.c:55
  if (__s_ram_data_1 != __l_s_ram) {
  100460:	201207b7          	lui	a5,0x20120
  100464:	00078713          	mv	a4,a5
  100468:	001037b7          	lui	a5,0x103
  10046c:	40c78793          	addi	a5,a5,1036 # 10340c <__l_s_ram>
  100470:	04f70463          	beq	a4,a5,1004b8 <MemoryInit+0x98>
D:\MCU_WorkSpace\IntegrationTest\mcu4in_IT\function_cpus\RISCV\src/e906.c:56
    for (unsigned int i = 0; i < count; i++) {
  100474:	fe042623          	sw	zero,-20(s0)
  100478:	a815                	j	1004ac <MemoryInit+0x8c>
D:\MCU_WorkSpace\IntegrationTest\mcu4in_IT\function_cpus\RISCV\src/e906.c:57 (discriminator 3)
      *((volatile unsigned int *)(__s_ram_data_1 + i * 4)) = *((volatile unsigned int *)(__l_s_ram + i * 4));
  10047a:	fec42783          	lw	a5,-20(s0)
  10047e:	00279713          	slli	a4,a5,0x2
  100482:	001037b7          	lui	a5,0x103
  100486:	40c78793          	addi	a5,a5,1036 # 10340c <__l_s_ram>
  10048a:	973e                	add	a4,a4,a5
  10048c:	fec42783          	lw	a5,-20(s0)
  100490:	00279693          	slli	a3,a5,0x2
  100494:	201207b7          	lui	a5,0x20120
  100498:	00078793          	mv	a5,a5
  10049c:	97b6                	add	a5,a5,a3
  10049e:	4318                	lw	a4,0(a4)
  1004a0:	c398                	sw	a4,0(a5)
D:\MCU_WorkSpace\IntegrationTest\mcu4in_IT\function_cpus\RISCV\src/e906.c:56 (discriminator 3)
    for (unsigned int i = 0; i < count; i++) {
  1004a2:	fec42783          	lw	a5,-20(s0)
  1004a6:	0785                	addi	a5,a5,1
  1004a8:	fef42623          	sw	a5,-20(s0)
D:\MCU_WorkSpace\IntegrationTest\mcu4in_IT\function_cpus\RISCV\src/e906.c:56 (discriminator 1)
  1004ac:	fec42703          	lw	a4,-20(s0)
  1004b0:	fdc42783          	lw	a5,-36(s0)
  1004b4:	fcf763e3          	bltu	a4,a5,10047a <MemoryInit+0x5a>
D:\MCU_WorkSpace\IntegrationTest\mcu4in_IT\function_cpus\RISCV\src/e906.c:60
    }
  }
  if (__e_ram_bss_1 - __s_ram_bss_1) {
  1004b8:	201217b7          	lui	a5,0x20121
  1004bc:	9a078713          	addi	a4,a5,-1632 # 201209a0 <__HeapBase>
  1004c0:	201217b7          	lui	a5,0x20121
  1004c4:	89078793          	addi	a5,a5,-1904 # 20120890 <__e_ram_data_1>
  1004c8:	04f70c63          	beq	a4,a5,100520 <MemoryInit+0x100>
D:\MCU_WorkSpace\IntegrationTest\mcu4in_IT\function_cpus\RISCV\src/e906.c:61
    count = (__e_ram_bss_1 - __s_ram_bss_1) / 4;
  1004cc:	201217b7          	lui	a5,0x20121
  1004d0:	9a078713          	addi	a4,a5,-1632 # 201209a0 <__HeapBase>
  1004d4:	201217b7          	lui	a5,0x20121
  1004d8:	89078793          	addi	a5,a5,-1904 # 20120890 <__e_ram_data_1>
  1004dc:	40f707b3          	sub	a5,a4,a5
  1004e0:	41f7d713          	srai	a4,a5,0x1f
  1004e4:	8b0d                	andi	a4,a4,3
  1004e6:	97ba                	add	a5,a5,a4
  1004e8:	8789                	srai	a5,a5,0x2
  1004ea:	fcf42e23          	sw	a5,-36(s0)
D:\MCU_WorkSpace\IntegrationTest\mcu4in_IT\function_cpus\RISCV\src/e906.c:62
    for (unsigned int i = 0; i < count; i++) {
  1004ee:	fe042423          	sw	zero,-24(s0)
  1004f2:	a00d                	j	100514 <MemoryInit+0xf4>
D:\MCU_WorkSpace\IntegrationTest\mcu4in_IT\function_cpus\RISCV\src/e906.c:63 (discriminator 3)
      *((volatile unsigned int *)(__s_ram_bss_1 + i * 4)) = 0;
  1004f4:	fe842783          	lw	a5,-24(s0)
  1004f8:	00279713          	slli	a4,a5,0x2
  1004fc:	201217b7          	lui	a5,0x20121
  100500:	89078793          	addi	a5,a5,-1904 # 20120890 <__e_ram_data_1>
  100504:	97ba                	add	a5,a5,a4
  100506:	0007a023          	sw	zero,0(a5)
D:\MCU_WorkSpace\IntegrationTest\mcu4in_IT\function_cpus\RISCV\src/e906.c:62 (discriminator 3)
    for (unsigned int i = 0; i < count; i++) {
  10050a:	fe842783          	lw	a5,-24(s0)
  10050e:	0785                	addi	a5,a5,1
  100510:	fef42423          	sw	a5,-24(s0)
D:\MCU_WorkSpace\IntegrationTest\mcu4in_IT\function_cpus\RISCV\src/e906.c:62 (discriminator 1)
  100514:	fe842703          	lw	a4,-24(s0)
  100518:	fdc42783          	lw	a5,-36(s0)
  10051c:	fcf76ce3          	bltu	a4,a5,1004f4 <MemoryInit+0xd4>
D:\MCU_WorkSpace\IntegrationTest\mcu4in_IT\function_cpus\RISCV\src/e906.c:73
	*/
//   if( __e_ram_bss_1 - __s_ram_bss_1 ) 
//   {
// 	memset( __s_ram_bss_1, 0x00, ( __e_ram_bss_1 - __s_ram_bss_1 ));
//   }
}
  100520:	0001                	nop
  100522:	5432                	lw	s0,44(sp)
  100524:	6145                	addi	sp,sp,48
  100526:	8082                	ret
  100528:	00000013          	nop
  10052c:	00000013          	nop

00100530 <SystemInit>:
SystemInit():
D:\MCU_WorkSpace\IntegrationTest\mcu4in_IT\function_cpus\RISCV\src/e906.c:81
/**
 * @brief entry of whole chip initialization
 * Since here SystemInit is a weak symbol, any vendor can override this symbol on its own wishes.
 */
__attribute__((weak)) void  SystemInit(void) 
{
  100530:	1141                	addi	sp,sp,-16
  100532:	c606                	sw	ra,12(sp)
  100534:	c422                	sw	s0,8(sp)
  100536:	0800                	addi	s0,sp,16
D:\MCU_WorkSpace\IntegrationTest\mcu4in_IT\function_cpus\RISCV\src/e906.c:85
	/**
	 * Initial the bss section and data decompression from LMA to VMA
	 */
	MemoryInit();
  100538:	35e5                	jal	100420 <MemoryInit>
D:\MCU_WorkSpace\IntegrationTest\mcu4in_IT\function_cpus\RISCV\src/e906.c:94

	/**
	 * TODO: initial IO, memory, flash... 
	 */
	extern void Resource_Init(void);
  	Resource_Init();
  10053a:	0c6010ef          	jal	ra,101600 <Resource_Init>
D:\MCU_WorkSpace\IntegrationTest\mcu4in_IT\function_cpus\RISCV\src/e906.c:95
    return;
  10053e:	0001                	nop
D:\MCU_WorkSpace\IntegrationTest\mcu4in_IT\function_cpus\RISCV\src/e906.c:96
}
  100540:	40b2                	lw	ra,12(sp)
  100542:	4422                	lw	s0,8(sp)
  100544:	0141                	addi	sp,sp,16
  100546:	8082                	ret
  100548:	00000013          	nop
  10054c:	00000013          	nop

00100550 <__main>:
__main():
D:\MCU_WorkSpace\IntegrationTest\mcu4in_IT\function_cpus\RISCV\src/e906.c:99

__attribute__((weak)) void __main()
{
  100550:	1141                	addi	sp,sp,-16
  100552:	c606                	sw	ra,12(sp)
  100554:	c422                	sw	s0,8(sp)
  100556:	0800                	addi	s0,sp,16
D:\MCU_WorkSpace\IntegrationTest\mcu4in_IT\function_cpus\RISCV\src/e906.c:102
	// got to main 
	extern int main(void);
	main();
  100558:	448020ef          	jal	ra,1029a0 <main>
D:\MCU_WorkSpace\IntegrationTest\mcu4in_IT\function_cpus\RISCV\src/e906.c:104 (discriminator 1)
	// loop here;
	while(1);
  10055c:	a001                	j	10055c <__main+0xc>
	...

00100570 <csi_vic_enable_irq>:
csi_vic_enable_irq():
D:\MCU_WorkSpace\IntegrationTest\mcu4in_IT\function_cpus\RISCV\src/system.c:105
    return (result);
}


__STATIC_INLINE void csi_vic_enable_irq(int32_t IRQn)
{
  100570:	1101                	addi	sp,sp,-32
  100572:	ce22                	sw	s0,28(sp)
  100574:	1000                	addi	s0,sp,32
  100576:	fea42623          	sw	a0,-20(s0)
D:\MCU_WorkSpace\IntegrationTest\mcu4in_IT\function_cpus\RISCV\src/system.c:106
    CLIC->CLICINT[IRQn].IE |= CLIC_INTIE_IE_Msk;
  10057a:	e0800737          	lui	a4,0xe0800
  10057e:	fec42783          	lw	a5,-20(s0)
  100582:	40078793          	addi	a5,a5,1024
  100586:	078a                	slli	a5,a5,0x2
  100588:	97ba                	add	a5,a5,a4
  10058a:	0017c783          	lbu	a5,1(a5)
  10058e:	0ff7f793          	andi	a5,a5,255
  100592:	e08006b7          	lui	a3,0xe0800
  100596:	0017e793          	ori	a5,a5,1
  10059a:	0ff7f713          	andi	a4,a5,255
  10059e:	fec42783          	lw	a5,-20(s0)
  1005a2:	40078793          	addi	a5,a5,1024
  1005a6:	078a                	slli	a5,a5,0x2
  1005a8:	97b6                	add	a5,a5,a3
  1005aa:	00e780a3          	sb	a4,1(a5)
D:\MCU_WorkSpace\IntegrationTest\mcu4in_IT\function_cpus\RISCV\src/system.c:107
}
  1005ae:	0001                	nop
  1005b0:	4472                	lw	s0,28(sp)
  1005b2:	6105                	addi	sp,sp,32
  1005b4:	8082                	ret
  1005b6:	00000013          	nop
  1005ba:	00000013          	nop
  1005be:	0001                	nop

001005c0 <csi_vic_set_prio>:
csi_vic_set_prio():
D:\MCU_WorkSpace\IntegrationTest\mcu4in_IT\function_cpus\RISCV\src/system.c:120
{
    return (uint32_t)(CLIC->CLICINT[IRQn].IP & CLIC_INTIP_IP_Msk);
}

__STATIC_INLINE void csi_vic_set_prio(int32_t IRQn, uint32_t priority)
{
  1005c0:	7179                	addi	sp,sp,-48
  1005c2:	d622                	sw	s0,44(sp)
  1005c4:	1800                	addi	s0,sp,48
  1005c6:	fca42e23          	sw	a0,-36(s0)
  1005ca:	fcb42c23          	sw	a1,-40(s0)
D:\MCU_WorkSpace\IntegrationTest\mcu4in_IT\function_cpus\RISCV\src/system.c:121
    uint8_t nlbits = (CLIC->CLICINFO & CLIC_INFO_CLICINTCTLBITS_Msk) >> CLIC_INFO_CLICINTCTLBITS_Pos;
  1005ce:	e08007b7          	lui	a5,0xe0800
  1005d2:	43dc                	lw	a5,4(a5)
  1005d4:	83d5                	srli	a5,a5,0x15
  1005d6:	0ff7f793          	andi	a5,a5,255
  1005da:	8bbd                	andi	a5,a5,15
  1005dc:	fef407a3          	sb	a5,-17(s0)
D:\MCU_WorkSpace\IntegrationTest\mcu4in_IT\function_cpus\RISCV\src/system.c:122
    CLIC->CLICINT[IRQn].CTL = (CLIC->CLICINT[IRQn].CTL & (~CLIC_INTCFG_PRIO_Msk)) | (priority << (8 - nlbits));
  1005e0:	e0800737          	lui	a4,0xe0800
  1005e4:	fdc42783          	lw	a5,-36(s0)
  1005e8:	40078793          	addi	a5,a5,1024 # e0800400 <__stack+0xc06d4400>
  1005ec:	078a                	slli	a5,a5,0x2
  1005ee:	97ba                	add	a5,a5,a4
  1005f0:	0037c783          	lbu	a5,3(a5)
  1005f4:	0ff7f793          	andi	a5,a5,255
  1005f8:	8bfd                	andi	a5,a5,31
  1005fa:	0ff7f713          	andi	a4,a5,255
  1005fe:	fef44783          	lbu	a5,-17(s0)
  100602:	46a1                	li	a3,8
  100604:	40f687b3          	sub	a5,a3,a5
  100608:	fd842683          	lw	a3,-40(s0)
  10060c:	00f697b3          	sll	a5,a3,a5
  100610:	0ff7f793          	andi	a5,a5,255
  100614:	e08006b7          	lui	a3,0xe0800
  100618:	8fd9                	or	a5,a5,a4
  10061a:	0ff7f713          	andi	a4,a5,255
  10061e:	fdc42783          	lw	a5,-36(s0)
  100622:	40078793          	addi	a5,a5,1024
  100626:	078a                	slli	a5,a5,0x2
  100628:	97b6                	add	a5,a5,a3
  10062a:	00e781a3          	sb	a4,3(a5)
D:\MCU_WorkSpace\IntegrationTest\mcu4in_IT\function_cpus\RISCV\src/system.c:123
}
  10062e:	0001                	nop
  100630:	5432                	lw	s0,44(sp)
  100632:	6145                	addi	sp,sp,48
  100634:	8082                	ret
  100636:	00000013          	nop
  10063a:	00000013          	nop
  10063e:	0001                	nop

00100640 <csi_vic_set_shv_vector>:
csi_vic_set_shv_vector():
D:\MCU_WorkSpace\IntegrationTest\mcu4in_IT\function_cpus\RISCV\src/system.c:137
{
    return (uint32_t)(CLIC->CLICINT[IRQn].CTL);
}

__STATIC_INLINE void csi_vic_set_shv_vector(int32_t IRQn)
{
  100640:	1101                	addi	sp,sp,-32
  100642:	ce22                	sw	s0,28(sp)
  100644:	1000                	addi	s0,sp,32
  100646:	fea42623          	sw	a0,-20(s0)
D:\MCU_WorkSpace\IntegrationTest\mcu4in_IT\function_cpus\RISCV\src/system.c:138
     CLIC->CLICINT[IRQn].ATTR |= CLIC_INTATTR_SHV_Msk;    // vector mode interrupt
  10064a:	e0800737          	lui	a4,0xe0800
  10064e:	fec42783          	lw	a5,-20(s0)
  100652:	40078793          	addi	a5,a5,1024
  100656:	078a                	slli	a5,a5,0x2
  100658:	97ba                	add	a5,a5,a4
  10065a:	0027c783          	lbu	a5,2(a5)
  10065e:	0ff7f793          	andi	a5,a5,255
  100662:	e08006b7          	lui	a3,0xe0800
  100666:	0017e793          	ori	a5,a5,1
  10066a:	0ff7f713          	andi	a4,a5,255
  10066e:	fec42783          	lw	a5,-20(s0)
  100672:	40078793          	addi	a5,a5,1024
  100676:	078a                	slli	a5,a5,0x2
  100678:	97b6                	add	a5,a5,a3
  10067a:	00e78123          	sb	a4,2(a5)
D:\MCU_WorkSpace\IntegrationTest\mcu4in_IT\function_cpus\RISCV\src/system.c:139
}
  10067e:	0001                	nop
  100680:	4472                	lw	s0,28(sp)
  100682:	6105                	addi	sp,sp,32
  100684:	8082                	ret
  100686:	00000013          	nop
  10068a:	00000013          	nop
  10068e:	0001                	nop

00100690 <print_status>:
print_status():
D:\MCU_WorkSpace\IntegrationTest\mcu4in_IT\function_cpus\RISCV\src/system.c:151
__STATIC_INLINE uint32_t csi_vic_get_attr(int32_t IRQn)
{
    return (uint32_t)(CLIC->CLICINT[IRQn].ATTR);
}

void print_status(){
  100690:	1101                	addi	sp,sp,-32
  100692:	ce06                	sw	ra,28(sp)
  100694:	cc22                	sw	s0,24(sp)
  100696:	1000                	addi	s0,sp,32
__get_MSTATUS():
D:\MCU_WorkSpace\IntegrationTest\mcu4in_IT\function_cpus\RISCV\src/system.c:20
    __ASM volatile("csrr %0, mstatus" : "=r"(result));
  100698:	300027f3          	csrr	a5,mstatus
  10069c:	fef42023          	sw	a5,-32(s0)
D:\MCU_WorkSpace\IntegrationTest\mcu4in_IT\function_cpus\RISCV\src/system.c:21
    return (result);
  1006a0:	fe042783          	lw	a5,-32(s0)
print_status():
D:\MCU_WorkSpace\IntegrationTest\mcu4in_IT\function_cpus\RISCV\src/system.c:152
  uint32_t temp = __get_MSTATUS();
  1006a4:	fef42623          	sw	a5,-20(s0)
D:\MCU_WorkSpace\IntegrationTest\mcu4in_IT\function_cpus\RISCV\src/system.c:153
  uart_printf("mstatus = %x\r\n", temp);
  1006a8:	fec42583          	lw	a1,-20(s0)
  1006ac:	001037b7          	lui	a5,0x103
  1006b0:	e0078513          	addi	a0,a5,-512 # 102e00 <__etext>
  1006b4:	36c010ef          	jal	ra,101a20 <uart_printf>
__get_MTVEC():
D:\MCU_WorkSpace\IntegrationTest\mcu4in_IT\function_cpus\RISCV\src/system.c:66
    __ASM volatile("csrr %0, mtvec" : "=r"(result));
  1006b8:	305027f3          	csrr	a5,mtvec
  1006bc:	fef42223          	sw	a5,-28(s0)
D:\MCU_WorkSpace\IntegrationTest\mcu4in_IT\function_cpus\RISCV\src/system.c:67
    return (result);
  1006c0:	fe442783          	lw	a5,-28(s0)
print_status():
D:\MCU_WorkSpace\IntegrationTest\mcu4in_IT\function_cpus\RISCV\src/system.c:164
  // uart_printf("mie     = %x\r\n", temp);
  // __asm volatile( "csrs mie, %0" :: "r"(0x888) );
  // temp = __get_MIE();
  // uart_printf("mie     = %x\r\n", temp);

  temp = __get_MTVEC();
  1006c4:	fef42623          	sw	a5,-20(s0)
D:\MCU_WorkSpace\IntegrationTest\mcu4in_IT\function_cpus\RISCV\src/system.c:165
  uart_printf("mtvec   = %x\r\n", temp);
  1006c8:	fec42583          	lw	a1,-20(s0)
  1006cc:	001037b7          	lui	a5,0x103
  1006d0:	e1078513          	addi	a0,a5,-496 # 102e10 <__etext+0x10>
  1006d4:	34c010ef          	jal	ra,101a20 <uart_printf>
__get_MTVT():
D:\MCU_WorkSpace\IntegrationTest\mcu4in_IT\function_cpus\RISCV\src/system.c:99
    __ASM volatile("csrr %0, mtvt" : "=r"(result));
  1006d8:	307027f3          	csrr	a5,mtvt
  1006dc:	fef42423          	sw	a5,-24(s0)
D:\MCU_WorkSpace\IntegrationTest\mcu4in_IT\function_cpus\RISCV\src/system.c:100
    return (result);
  1006e0:	fe842783          	lw	a5,-24(s0)
print_status():
D:\MCU_WorkSpace\IntegrationTest\mcu4in_IT\function_cpus\RISCV\src/system.c:166
  temp = __get_MTVT();
  1006e4:	fef42623          	sw	a5,-20(s0)
D:\MCU_WorkSpace\IntegrationTest\mcu4in_IT\function_cpus\RISCV\src/system.c:167
  uart_printf("mtvt    = %x\r\n", temp);
  1006e8:	fec42583          	lw	a1,-20(s0)
  1006ec:	001037b7          	lui	a5,0x103
  1006f0:	e2078513          	addi	a0,a5,-480 # 102e20 <__etext+0x20>
  1006f4:	32c010ef          	jal	ra,101a20 <uart_printf>
D:\MCU_WorkSpace\IntegrationTest\mcu4in_IT\function_cpus\RISCV\src/system.c:170

  // uart_printf("CLICCFG      = %x,%x\r\n", *((volatile uint8_t *)(CLIC_BASE + 4 * 0)), CLIC->CLICCFG);
  uart_printf("CLICCFG(new) = %x\r\n", CLIC->CLICCFG);
  1006f8:	e08007b7          	lui	a5,0xe0800
  1006fc:	0007c783          	lbu	a5,0(a5) # e0800000 <__stack+0xc06d4000>
  100700:	0ff7f793          	andi	a5,a5,255
  100704:	85be                	mv	a1,a5
  100706:	001037b7          	lui	a5,0x103
  10070a:	e3078513          	addi	a0,a5,-464 # 102e30 <__etext+0x30>
  10070e:	312010ef          	jal	ra,101a20 <uart_printf>
D:\MCU_WorkSpace\IntegrationTest\mcu4in_IT\function_cpus\RISCV\src/system.c:171
  uart_printf("CLICINFO     = %x,%x\r\n", *((volatile uint32_t *)(CLIC_BASE + 4 * 1)), CLIC->CLICINFO);
  100712:	e08007b7          	lui	a5,0xe0800
  100716:	0791                	addi	a5,a5,4
  100718:	4398                	lw	a4,0(a5)
  10071a:	e08007b7          	lui	a5,0xe0800
  10071e:	43dc                	lw	a5,4(a5)
  100720:	863e                	mv	a2,a5
  100722:	85ba                	mv	a1,a4
  100724:	001037b7          	lui	a5,0x103
  100728:	e4478513          	addi	a0,a5,-444 # 102e44 <__etext+0x44>
  10072c:	2f4010ef          	jal	ra,101a20 <uart_printf>
D:\MCU_WorkSpace\IntegrationTest\mcu4in_IT\function_cpus\RISCV\src/system.c:172
  uart_printf("MINTTHRESH   = %x,%x\r\n", *((volatile uint32_t *)(CLIC_BASE + 4 * 2)), CLIC->MINTTHRESH);
  100730:	e08007b7          	lui	a5,0xe0800
  100734:	07a1                	addi	a5,a5,8
  100736:	4398                	lw	a4,0(a5)
  100738:	e08007b7          	lui	a5,0xe0800
  10073c:	479c                	lw	a5,8(a5)
  10073e:	863e                	mv	a2,a5
  100740:	85ba                	mv	a1,a4
  100742:	001037b7          	lui	a5,0x103
  100746:	e5c78513          	addi	a0,a5,-420 # 102e5c <__etext+0x5c>
  10074a:	2d6010ef          	jal	ra,101a20 <uart_printf>
D:\MCU_WorkSpace\IntegrationTest\mcu4in_IT\function_cpus\RISCV\src/system.c:184
  // get interrupt level from info
  // *((volatile uint8_t *)0xE0800000) = 0x1f; // 0x07;
  // CLIC->CLICCFG = (((CLIC->CLICINFO & CLIC_INFO_CLICINTCTLBITS_Msk) >> CLIC_INFO_CLICINTCTLBITS_Pos) << CLIC_CLICCFG_NLBIT_Pos);
//   uart_printf("CLICCFG    = %02x\r\n", *((volatile uint8_t *)(CLIC_BASE + 4 * 0)));
  // uart_printf("CLICCFG    = %02x\r\n", *((volatile uint8_t *)0xE0800000));
}
  10074e:	0001                	nop
  100750:	40f2                	lw	ra,28(sp)
  100752:	4462                	lw	s0,24(sp)
  100754:	6105                	addi	sp,sp,32
  100756:	8082                	ret
  100758:	00000013          	nop
  10075c:	00000013          	nop

00100760 <print_clic_irq>:
print_clic_irq():
D:\MCU_WorkSpace\IntegrationTest\mcu4in_IT\function_cpus\RISCV\src/system.c:186

void print_clic_irq(uint32_t n) {
  100760:	1101                	addi	sp,sp,-32
  100762:	ce06                	sw	ra,28(sp)
  100764:	cc22                	sw	s0,24(sp)
  100766:	1000                	addi	s0,sp,32
  100768:	fea42623          	sw	a0,-20(s0)
D:\MCU_WorkSpace\IntegrationTest\mcu4in_IT\function_cpus\RISCV\src/system.c:187
  n = n + 16; // Very important! CLIC ctrl external irq from 16
  10076c:	fec42783          	lw	a5,-20(s0)
  100770:	07c1                	addi	a5,a5,16
  100772:	fef42623          	sw	a5,-20(s0)
D:\MCU_WorkSpace\IntegrationTest\mcu4in_IT\function_cpus\RISCV\src/system.c:188
  uart_printf("CLICINT[%u]     = %x\r\n", n, *((volatile uint32_t *)(CLIC_INI_BASE + n * CLIC_INT_INTERVAL)));
  100776:	fec42703          	lw	a4,-20(s0)
  10077a:	382007b7          	lui	a5,0x38200
  10077e:	40078793          	addi	a5,a5,1024 # 38200400 <__stack+0x180d4400>
  100782:	97ba                	add	a5,a5,a4
  100784:	078a                	slli	a5,a5,0x2
  100786:	439c                	lw	a5,0(a5)
  100788:	863e                	mv	a2,a5
  10078a:	fec42583          	lw	a1,-20(s0)
  10078e:	001037b7          	lui	a5,0x103
  100792:	e7478513          	addi	a0,a5,-396 # 102e74 <__etext+0x74>
  100796:	28a010ef          	jal	ra,101a20 <uart_printf>
D:\MCU_WorkSpace\IntegrationTest\mcu4in_IT\function_cpus\RISCV\src/system.c:189
}
  10079a:	0001                	nop
  10079c:	40f2                	lw	ra,28(sp)
  10079e:	4462                	lw	s0,24(sp)
  1007a0:	6105                	addi	sp,sp,32
  1007a2:	8082                	ret
  1007a4:	00000013          	nop
  1007a8:	00000013          	nop
  1007ac:	00000013          	nop

001007b0 <update_cliccfg>:
update_cliccfg():
D:\MCU_WorkSpace\IntegrationTest\mcu4in_IT\function_cpus\RISCV\src/system.c:192


void update_cliccfg(void) {
  1007b0:	1141                	addi	sp,sp,-16
  1007b2:	c622                	sw	s0,12(sp)
  1007b4:	0800                	addi	s0,sp,16
D:\MCU_WorkSpace\IntegrationTest\mcu4in_IT\function_cpus\RISCV\src/system.c:193
  CLIC->CLICCFG = (((CLIC->CLICINFO & CLIC_INFO_CLICINTCTLBITS_Msk) >> CLIC_INFO_CLICINTCTLBITS_Pos) << CLIC_CLICCFG_NLBIT_Pos);
  1007b6:	e08007b7          	lui	a5,0xe0800
  1007ba:	43dc                	lw	a5,4(a5)
  1007bc:	83d5                	srli	a5,a5,0x15
  1007be:	0ff7f793          	andi	a5,a5,255
  1007c2:	0786                	slli	a5,a5,0x1
  1007c4:	0ff7f713          	andi	a4,a5,255
  1007c8:	e08007b7          	lui	a5,0xe0800
  1007cc:	8b79                	andi	a4,a4,30
  1007ce:	0ff77713          	andi	a4,a4,255
  1007d2:	00e78023          	sb	a4,0(a5) # e0800000 <__stack+0xc06d4000>
D:\MCU_WorkSpace\IntegrationTest\mcu4in_IT\function_cpus\RISCV\src/system.c:194
}
  1007d6:	0001                	nop
  1007d8:	4432                	lw	s0,12(sp)
  1007da:	0141                	addi	sp,sp,16
  1007dc:	8082                	ret
  1007de:	0001                	nop

001007e0 <enable_irq>:
enable_irq():
D:\MCU_WorkSpace\IntegrationTest\mcu4in_IT\function_cpus\RISCV\src/system.c:196

void enable_irq(int32_t n) {
  1007e0:	1101                	addi	sp,sp,-32
  1007e2:	ce06                	sw	ra,28(sp)
  1007e4:	cc22                	sw	s0,24(sp)
  1007e6:	1000                	addi	s0,sp,32
  1007e8:	fea42623          	sw	a0,-20(s0)
D:\MCU_WorkSpace\IntegrationTest\mcu4in_IT\function_cpus\RISCV\src/system.c:197
  n = n + 16; // Very important! CLIC ctrl external irq from 16
  1007ec:	fec42783          	lw	a5,-20(s0)
  1007f0:	07c1                	addi	a5,a5,16
  1007f2:	fef42623          	sw	a5,-20(s0)
D:\MCU_WorkSpace\IntegrationTest\mcu4in_IT\function_cpus\RISCV\src/system.c:204
  // *((volatile uint8_t *)(CLIC_INI_BASE + n * CLIC_INT_INTERVAL + CLIC_INI_ATTR_OFFSET)) = 0xc1;
  // *((volatile uint8_t *)(CLIC_INI_BASE + n * CLIC_INT_INTERVAL + CLIC_INI_CTL_OFFSET)) = 0x3f; // 63: lllx xxxx = 0011 1111
  // *((volatile uint8_t *)(CLIC_INI_BASE + n * CLIC_INT_INTERVAL + CLIC_INI_IE_OFFSET)) = 1;

  // csi_vic_set_prio(n, 1); // prio = 1, nlbits = 3, ctrl = lllx xxxx = 0011 1111 = 63 !
  csi_vic_set_prio(n, 7 - (n - 16));
  1007f6:	475d                	li	a4,23
  1007f8:	fec42783          	lw	a5,-20(s0)
  1007fc:	40f707b3          	sub	a5,a4,a5
  100800:	85be                	mv	a1,a5
  100802:	fec42503          	lw	a0,-20(s0)
  100806:	3b6d                	jal	1005c0 <csi_vic_set_prio>
D:\MCU_WorkSpace\IntegrationTest\mcu4in_IT\function_cpus\RISCV\src/system.c:212

//   csi_vic_get_ctrl(n); // got 63 !

//   csi_vic_get_attr(n);
  // csi_vic_set_shv_non_vector(n);
  csi_vic_set_shv_vector(n);
  100808:	fec42503          	lw	a0,-20(s0)
  10080c:	3d15                	jal	100640 <csi_vic_set_shv_vector>
D:\MCU_WorkSpace\IntegrationTest\mcu4in_IT\function_cpus\RISCV\src/system.c:215
//   csi_vic_get_attr(n);

  csi_vic_enable_irq(n);
  10080e:	fec42503          	lw	a0,-20(s0)
  100812:	3bb9                	jal	100570 <csi_vic_enable_irq>
D:\MCU_WorkSpace\IntegrationTest\mcu4in_IT\function_cpus\RISCV\src/system.c:218
//   csi_vic_get_enabled_irq(n);
  // uart_printf("RV External irq %d: IE=%x, ATTR=%x, CTL=%x\r\n", n-16, CLIC->CLICINT[n].IE, CLIC->CLICINT[n].ATTR, CLIC->CLICINT[n].CTL);
}
  100814:	0001                	nop
  100816:	40f2                	lw	ra,28(sp)
  100818:	4462                	lw	s0,24(sp)
  10081a:	6105                	addi	sp,sp,32
  10081c:	8082                	ret
	...

00100830 <UART_Init>:
UART_Init():
D:\MCU_WorkSpace\IntegrationTest\mcu4in_IT\function_cpus\Drivers\source/hm_uart_hjj.c:99
 *					HM_UART4	
 * @param[in]	uart_cfg:		UART_InitTypeDef  define uart				
 * @return 		None
 **********************************************************************/
void UART_Init(HM_UART_TypeDef *uartx ,UART_InitTypeDef *uart_cfg)
{
  100830:	7179                	addi	sp,sp,-48
  100832:	d622                	sw	s0,44(sp)
  100834:	1800                	addi	s0,sp,48
  100836:	fca42e23          	sw	a0,-36(s0)
  10083a:	fcb42c23          	sw	a1,-40(s0)
D:\MCU_WorkSpace\IntegrationTest\mcu4in_IT\function_cpus\Drivers\source/hm_uart_hjj.c:100
	unsigned char i=0x00;
  10083e:	fe0407a3          	sb	zero,-17(s0)
D:\MCU_WorkSpace\IntegrationTest\mcu4in_IT\function_cpus\Drivers\source/hm_uart_hjj.c:101
	int bdivr=0x00,cd=0x00;
  100842:	fe042423          	sw	zero,-24(s0)
  100846:	fe042223          	sw	zero,-28(s0)
D:\MCU_WorkSpace\IntegrationTest\mcu4in_IT\function_cpus\Drivers\source/hm_uart_hjj.c:102
	int temp=0x00;
  10084a:	fe042023          	sw	zero,-32(s0)
D:\MCU_WorkSpace\IntegrationTest\mcu4in_IT\function_cpus\Drivers\source/hm_uart_hjj.c:104
	/*configuer mode*/
	temp = uartx->MODE;
  10084e:	fdc42783          	lw	a5,-36(s0)
  100852:	43dc                	lw	a5,4(a5)
  100854:	fef42023          	sw	a5,-32(s0)
D:\MCU_WorkSpace\IntegrationTest\mcu4in_IT\function_cpus\Drivers\source/hm_uart_hjj.c:106
	
	temp &=~UART_MODE_MASK;
  100858:	fe042703          	lw	a4,-32(s0)
  10085c:	77f1                	lui	a5,0xffffc
  10085e:	8ff9                	and	a5,a5,a4
  100860:	fef42023          	sw	a5,-32(s0)
D:\MCU_WorkSpace\IntegrationTest\mcu4in_IT\function_cpus\Drivers\source/hm_uart_hjj.c:107
	temp |= (uart_cfg->Word<<1);
  100864:	fd842783          	lw	a5,-40(s0)
  100868:	0047c783          	lbu	a5,4(a5) # ffffc004 <__stack+0xdfed0004>
  10086c:	0786                	slli	a5,a5,0x1
  10086e:	fe042703          	lw	a4,-32(s0)
  100872:	8fd9                	or	a5,a5,a4
  100874:	fef42023          	sw	a5,-32(s0)
D:\MCU_WorkSpace\IntegrationTest\mcu4in_IT\function_cpus\Drivers\source/hm_uart_hjj.c:108
	temp |= (uart_cfg->Stop<<6);
  100878:	fd842783          	lw	a5,-40(s0)
  10087c:	0057c783          	lbu	a5,5(a5)
  100880:	079a                	slli	a5,a5,0x6
  100882:	fe042703          	lw	a4,-32(s0)
  100886:	8fd9                	or	a5,a5,a4
  100888:	fef42023          	sw	a5,-32(s0)
D:\MCU_WorkSpace\IntegrationTest\mcu4in_IT\function_cpus\Drivers\source/hm_uart_hjj.c:109
	temp |= (uart_cfg->FifoAccess<<12);
  10088c:	fd842783          	lw	a5,-40(s0)
  100890:	0097c783          	lbu	a5,9(a5)
  100894:	07b2                	slli	a5,a5,0xc
  100896:	fe042703          	lw	a4,-32(s0)
  10089a:	8fd9                	or	a5,a5,a4
  10089c:	fef42023          	sw	a5,-32(s0)
D:\MCU_WorkSpace\IntegrationTest\mcu4in_IT\function_cpus\Drivers\source/hm_uart_hjj.c:110
	temp |= (uart_cfg->ChannelMode<<8);
  1008a0:	fd842783          	lw	a5,-40(s0)
  1008a4:	00b7c783          	lbu	a5,11(a5)
  1008a8:	07a2                	slli	a5,a5,0x8
  1008aa:	fe042703          	lw	a4,-32(s0)
  1008ae:	8fd9                	or	a5,a5,a4
  1008b0:	fef42023          	sw	a5,-32(s0)
D:\MCU_WorkSpace\IntegrationTest\mcu4in_IT\function_cpus\Drivers\source/hm_uart_hjj.c:111
	temp |= (uart_cfg->IrdaMode<<11);
  1008b4:	fd842783          	lw	a5,-40(s0)
  1008b8:	00a7c783          	lbu	a5,10(a5)
  1008bc:	07ae                	slli	a5,a5,0xb
  1008be:	fe042703          	lw	a4,-32(s0)
  1008c2:	8fd9                	or	a5,a5,a4
  1008c4:	fef42023          	sw	a5,-32(s0)
D:\MCU_WorkSpace\IntegrationTest\mcu4in_IT\function_cpus\Drivers\source/hm_uart_hjj.c:112
	temp |= (uart_cfg->ClockSelect<<10);
  1008c8:	fd842783          	lw	a5,-40(s0)
  1008cc:	00c7c783          	lbu	a5,12(a5)
  1008d0:	07aa                	slli	a5,a5,0xa
  1008d2:	fe042703          	lw	a4,-32(s0)
  1008d6:	8fd9                	or	a5,a5,a4
  1008d8:	fef42023          	sw	a5,-32(s0)
D:\MCU_WorkSpace\IntegrationTest\mcu4in_IT\function_cpus\Drivers\source/hm_uart_hjj.c:113
	temp |= (uart_cfg->ClockPrescalar8<<0);
  1008dc:	fd842783          	lw	a5,-40(s0)
  1008e0:	00d7c783          	lbu	a5,13(a5)
  1008e4:	873e                	mv	a4,a5
  1008e6:	fe042783          	lw	a5,-32(s0)
  1008ea:	8fd9                	or	a5,a5,a4
  1008ec:	fef42023          	sw	a5,-32(s0)
D:\MCU_WorkSpace\IntegrationTest\mcu4in_IT\function_cpus\Drivers\source/hm_uart_hjj.c:114
	temp |= (uart_cfg->Parity<<3);
  1008f0:	fd842783          	lw	a5,-40(s0)
  1008f4:	0067c783          	lbu	a5,6(a5)
  1008f8:	078e                	slli	a5,a5,0x3
  1008fa:	fe042703          	lw	a4,-32(s0)
  1008fe:	8fd9                	or	a5,a5,a4
  100900:	fef42023          	sw	a5,-32(s0)
D:\MCU_WorkSpace\IntegrationTest\mcu4in_IT\function_cpus\Drivers\source/hm_uart_hjj.c:116

 	uartx->MODE = temp;
  100904:	fe042703          	lw	a4,-32(s0)
  100908:	fdc42783          	lw	a5,-36(s0)
  10090c:	c3d8                	sw	a4,4(a5)
D:\MCU_WorkSpace\IntegrationTest\mcu4in_IT\function_cpus\Drivers\source/hm_uart_hjj.c:127
// 			break;
// 		}
// 	}
// #else
    // TODO change gcc uart
	for (i = 0; i < 13; i++) {
  10090e:	fe0407a3          	sb	zero,-17(s0)
  100912:	a0a5                	j	10097a <UART_Init+0x14a>
D:\MCU_WorkSpace\IntegrationTest\mcu4in_IT\function_cpus\Drivers\source/hm_uart_hjj.c:128
		if (uart_cfg_8M[i][0] == uart_cfg->Baudrate) {
  100914:	fef44703          	lbu	a4,-17(s0)
  100918:	001036b7          	lui	a3,0x103
  10091c:	87ba                	mv	a5,a4
  10091e:	0786                	slli	a5,a5,0x1
  100920:	97ba                	add	a5,a5,a4
  100922:	078a                	slli	a5,a5,0x2
  100924:	e8c68713          	addi	a4,a3,-372 # 102e8c <uart_cfg_8M>
  100928:	97ba                	add	a5,a5,a4
  10092a:	4398                	lw	a4,0(a5)
  10092c:	fd842783          	lw	a5,-40(s0)
  100930:	439c                	lw	a5,0(a5)
  100932:	02f71f63          	bne	a4,a5,100970 <UART_Init+0x140>
D:\MCU_WorkSpace\IntegrationTest\mcu4in_IT\function_cpus\Drivers\source/hm_uart_hjj.c:129
			bdivr = uart_cfg_8M[i][1];
  100936:	fef44703          	lbu	a4,-17(s0)
  10093a:	001036b7          	lui	a3,0x103
  10093e:	87ba                	mv	a5,a4
  100940:	0786                	slli	a5,a5,0x1
  100942:	97ba                	add	a5,a5,a4
  100944:	078a                	slli	a5,a5,0x2
  100946:	e8c68713          	addi	a4,a3,-372 # 102e8c <uart_cfg_8M>
  10094a:	97ba                	add	a5,a5,a4
  10094c:	43dc                	lw	a5,4(a5)
  10094e:	fef42423          	sw	a5,-24(s0)
D:\MCU_WorkSpace\IntegrationTest\mcu4in_IT\function_cpus\Drivers\source/hm_uart_hjj.c:130
			cd = uart_cfg_8M[i][2];
  100952:	fef44703          	lbu	a4,-17(s0)
  100956:	001036b7          	lui	a3,0x103
  10095a:	87ba                	mv	a5,a4
  10095c:	0786                	slli	a5,a5,0x1
  10095e:	97ba                	add	a5,a5,a4
  100960:	078a                	slli	a5,a5,0x2
  100962:	e8c68713          	addi	a4,a3,-372 # 102e8c <uart_cfg_8M>
  100966:	97ba                	add	a5,a5,a4
  100968:	479c                	lw	a5,8(a5)
  10096a:	fef42223          	sw	a5,-28(s0)
D:\MCU_WorkSpace\IntegrationTest\mcu4in_IT\function_cpus\Drivers\source/hm_uart_hjj.c:131
			break;
  10096e:	a819                	j	100984 <UART_Init+0x154>
D:\MCU_WorkSpace\IntegrationTest\mcu4in_IT\function_cpus\Drivers\source/hm_uart_hjj.c:127 (discriminator 2)
	for (i = 0; i < 13; i++) {
  100970:	fef44783          	lbu	a5,-17(s0)
  100974:	0785                	addi	a5,a5,1
  100976:	fef407a3          	sb	a5,-17(s0)
D:\MCU_WorkSpace\IntegrationTest\mcu4in_IT\function_cpus\Drivers\source/hm_uart_hjj.c:127 (discriminator 1)
  10097a:	fef44703          	lbu	a4,-17(s0)
  10097e:	47b1                	li	a5,12
  100980:	f8e7fae3          	bgeu	a5,a4,100914 <UART_Init+0xe4>
D:\MCU_WorkSpace\IntegrationTest\mcu4in_IT\function_cpus\Drivers\source/hm_uart_hjj.c:135
		}
	}	
// #endif
	if(i==12)
  100984:	fef44703          	lbu	a4,-17(s0)
  100988:	47b1                	li	a5,12
  10098a:	04f71f63          	bne	a4,a5,1009e8 <UART_Init+0x1b8>
D:\MCU_WorkSpace\IntegrationTest\mcu4in_IT\function_cpus\Drivers\source/hm_uart_hjj.c:137
	{										/*9600,207, 18*/
		temp = uartx->BDIVR;
  10098e:	fdc42783          	lw	a5,-36(s0)
  100992:	5bdc                	lw	a5,52(a5)
  100994:	fef42023          	sw	a5,-32(s0)
D:\MCU_WorkSpace\IntegrationTest\mcu4in_IT\function_cpus\Drivers\source/hm_uart_hjj.c:138
		temp &=~UART_BDIVR_MASK;
  100998:	fe042783          	lw	a5,-32(s0)
  10099c:	f007f793          	andi	a5,a5,-256
  1009a0:	fef42023          	sw	a5,-32(s0)
D:\MCU_WorkSpace\IntegrationTest\mcu4in_IT\function_cpus\Drivers\source/hm_uart_hjj.c:139
		temp |= 129;
  1009a4:	fe042783          	lw	a5,-32(s0)
  1009a8:	0817e793          	ori	a5,a5,129
  1009ac:	fef42023          	sw	a5,-32(s0)
D:\MCU_WorkSpace\IntegrationTest\mcu4in_IT\function_cpus\Drivers\source/hm_uart_hjj.c:140
		uartx->BDIVR = temp;
  1009b0:	fe042703          	lw	a4,-32(s0)
  1009b4:	fdc42783          	lw	a5,-36(s0)
  1009b8:	dbd8                	sw	a4,52(a5)
D:\MCU_WorkSpace\IntegrationTest\mcu4in_IT\function_cpus\Drivers\source/hm_uart_hjj.c:142
		
		temp = uartx->BRGR;
  1009ba:	fdc42783          	lw	a5,-36(s0)
  1009be:	4f9c                	lw	a5,24(a5)
  1009c0:	fef42023          	sw	a5,-32(s0)
D:\MCU_WorkSpace\IntegrationTest\mcu4in_IT\function_cpus\Drivers\source/hm_uart_hjj.c:143
		temp &=~UART_BRGR_MASK;
  1009c4:	fe042703          	lw	a4,-32(s0)
  1009c8:	77c1                	lui	a5,0xffff0
  1009ca:	8ff9                	and	a5,a5,a4
  1009cc:	fef42023          	sw	a5,-32(s0)
D:\MCU_WorkSpace\IntegrationTest\mcu4in_IT\function_cpus\Drivers\source/hm_uart_hjj.c:144
		temp |= 4;
  1009d0:	fe042783          	lw	a5,-32(s0)
  1009d4:	0047e793          	ori	a5,a5,4
  1009d8:	fef42023          	sw	a5,-32(s0)
D:\MCU_WorkSpace\IntegrationTest\mcu4in_IT\function_cpus\Drivers\source/hm_uart_hjj.c:145
		uartx->BRGR = temp;		
  1009dc:	fe042703          	lw	a4,-32(s0)
  1009e0:	fdc42783          	lw	a5,-36(s0)
  1009e4:	cf98                	sw	a4,24(a5)
  1009e6:	a8b9                	j	100a44 <UART_Init+0x214>
D:\MCU_WorkSpace\IntegrationTest\mcu4in_IT\function_cpus\Drivers\source/hm_uart_hjj.c:147
	}else{
		temp = uartx->BDIVR;
  1009e8:	fdc42783          	lw	a5,-36(s0)
  1009ec:	5bdc                	lw	a5,52(a5)
  1009ee:	fef42023          	sw	a5,-32(s0)
D:\MCU_WorkSpace\IntegrationTest\mcu4in_IT\function_cpus\Drivers\source/hm_uart_hjj.c:148
		temp &=~UART_BDIVR_MASK;
  1009f2:	fe042783          	lw	a5,-32(s0)
  1009f6:	f007f793          	andi	a5,a5,-256
  1009fa:	fef42023          	sw	a5,-32(s0)
D:\MCU_WorkSpace\IntegrationTest\mcu4in_IT\function_cpus\Drivers\source/hm_uart_hjj.c:149
		temp |= bdivr;
  1009fe:	fe042703          	lw	a4,-32(s0)
  100a02:	fe842783          	lw	a5,-24(s0)
  100a06:	8fd9                	or	a5,a5,a4
  100a08:	fef42023          	sw	a5,-32(s0)
D:\MCU_WorkSpace\IntegrationTest\mcu4in_IT\function_cpus\Drivers\source/hm_uart_hjj.c:150
		uartx->BDIVR = temp;
  100a0c:	fe042703          	lw	a4,-32(s0)
  100a10:	fdc42783          	lw	a5,-36(s0)
  100a14:	dbd8                	sw	a4,52(a5)
D:\MCU_WorkSpace\IntegrationTest\mcu4in_IT\function_cpus\Drivers\source/hm_uart_hjj.c:152
		
		temp = uartx->BRGR;
  100a16:	fdc42783          	lw	a5,-36(s0)
  100a1a:	4f9c                	lw	a5,24(a5)
  100a1c:	fef42023          	sw	a5,-32(s0)
D:\MCU_WorkSpace\IntegrationTest\mcu4in_IT\function_cpus\Drivers\source/hm_uart_hjj.c:153
		temp &=~UART_BRGR_MASK;
  100a20:	fe042703          	lw	a4,-32(s0)
  100a24:	77c1                	lui	a5,0xffff0
  100a26:	8ff9                	and	a5,a5,a4
  100a28:	fef42023          	sw	a5,-32(s0)
D:\MCU_WorkSpace\IntegrationTest\mcu4in_IT\function_cpus\Drivers\source/hm_uart_hjj.c:154
		temp |= cd;
  100a2c:	fe042703          	lw	a4,-32(s0)
  100a30:	fe442783          	lw	a5,-28(s0)
  100a34:	8fd9                	or	a5,a5,a4
  100a36:	fef42023          	sw	a5,-32(s0)
D:\MCU_WorkSpace\IntegrationTest\mcu4in_IT\function_cpus\Drivers\source/hm_uart_hjj.c:155
		uartx->BRGR = temp;	
  100a3a:	fe042703          	lw	a4,-32(s0)
  100a3e:	fdc42783          	lw	a5,-36(s0)
  100a42:	cf98                	sw	a4,24(a5)
D:\MCU_WorkSpace\IntegrationTest\mcu4in_IT\function_cpus\Drivers\source/hm_uart_hjj.c:158
	}

	temp = uartx->CTRL;
  100a44:	fdc42783          	lw	a5,-36(s0)
  100a48:	439c                	lw	a5,0(a5)
  100a4a:	fef42023          	sw	a5,-32(s0)
D:\MCU_WorkSpace\IntegrationTest\mcu4in_IT\function_cpus\Drivers\source/hm_uart_hjj.c:159
	temp &= ~(1<<8);
  100a4e:	fe042783          	lw	a5,-32(s0)
  100a52:	eff7f793          	andi	a5,a5,-257
  100a56:	fef42023          	sw	a5,-32(s0)
D:\MCU_WorkSpace\IntegrationTest\mcu4in_IT\function_cpus\Drivers\source/hm_uart_hjj.c:160
	temp &= ~(1<<7);
  100a5a:	fe042783          	lw	a5,-32(s0)
  100a5e:	f7f7f793          	andi	a5,a5,-129
  100a62:	fef42023          	sw	a5,-32(s0)
D:\MCU_WorkSpace\IntegrationTest\mcu4in_IT\function_cpus\Drivers\source/hm_uart_hjj.c:161
	if(uart_cfg->TransmitEnable == UART_TRANSMIT_ENABLE){
  100a66:	fd842783          	lw	a5,-40(s0)
  100a6a:	0077c703          	lbu	a4,7(a5) # ffff0007 <__stack+0xdfec4007>
  100a6e:	4785                	li	a5,1
  100a70:	00f71f63          	bne	a4,a5,100a8e <UART_Init+0x25e>
D:\MCU_WorkSpace\IntegrationTest\mcu4in_IT\function_cpus\Drivers\source/hm_uart_hjj.c:162
		temp |= (1<<4);
  100a74:	fe042783          	lw	a5,-32(s0)
  100a78:	0107e793          	ori	a5,a5,16
  100a7c:	fef42023          	sw	a5,-32(s0)
D:\MCU_WorkSpace\IntegrationTest\mcu4in_IT\function_cpus\Drivers\source/hm_uart_hjj.c:163
		temp &= ~(1<<5);
  100a80:	fe042783          	lw	a5,-32(s0)
  100a84:	fdf7f793          	andi	a5,a5,-33
  100a88:	fef42023          	sw	a5,-32(s0)
  100a8c:	a039                	j	100a9a <UART_Init+0x26a>
D:\MCU_WorkSpace\IntegrationTest\mcu4in_IT\function_cpus\Drivers\source/hm_uart_hjj.c:165
	}else{
		temp |= (1<<5);
  100a8e:	fe042783          	lw	a5,-32(s0)
  100a92:	0207e793          	ori	a5,a5,32
  100a96:	fef42023          	sw	a5,-32(s0)
D:\MCU_WorkSpace\IntegrationTest\mcu4in_IT\function_cpus\Drivers\source/hm_uart_hjj.c:168
	}

	if(uart_cfg->ReceiveEnable == UART_RECEIVE_ENABLE){
  100a9a:	fd842783          	lw	a5,-40(s0)
  100a9e:	0087c703          	lbu	a4,8(a5)
  100aa2:	4785                	li	a5,1
  100aa4:	00f71e63          	bne	a4,a5,100ac0 <UART_Init+0x290>
D:\MCU_WorkSpace\IntegrationTest\mcu4in_IT\function_cpus\Drivers\source/hm_uart_hjj.c:169
		temp |= (1<<2);
  100aa8:	fe042783          	lw	a5,-32(s0)
  100aac:	0047e793          	ori	a5,a5,4
  100ab0:	fef42023          	sw	a5,-32(s0)
D:\MCU_WorkSpace\IntegrationTest\mcu4in_IT\function_cpus\Drivers\source/hm_uart_hjj.c:170
		temp &= ~(1<<3);
  100ab4:	fe042783          	lw	a5,-32(s0)
  100ab8:	9bdd                	andi	a5,a5,-9
  100aba:	fef42023          	sw	a5,-32(s0)
  100abe:	a039                	j	100acc <UART_Init+0x29c>
D:\MCU_WorkSpace\IntegrationTest\mcu4in_IT\function_cpus\Drivers\source/hm_uart_hjj.c:172
	}else{
		temp |= (1<<3);
  100ac0:	fe042783          	lw	a5,-32(s0)
  100ac4:	0087e793          	ori	a5,a5,8
  100ac8:	fef42023          	sw	a5,-32(s0)
D:\MCU_WorkSpace\IntegrationTest\mcu4in_IT\function_cpus\Drivers\source/hm_uart_hjj.c:174
	}
	temp |= (1<<1);
  100acc:	fe042783          	lw	a5,-32(s0)
  100ad0:	0027e793          	ori	a5,a5,2
  100ad4:	fef42023          	sw	a5,-32(s0)
D:\MCU_WorkSpace\IntegrationTest\mcu4in_IT\function_cpus\Drivers\source/hm_uart_hjj.c:175
	temp |= (1<<0);
  100ad8:	fe042783          	lw	a5,-32(s0)
  100adc:	0017e793          	ori	a5,a5,1
  100ae0:	fef42023          	sw	a5,-32(s0)
D:\MCU_WorkSpace\IntegrationTest\mcu4in_IT\function_cpus\Drivers\source/hm_uart_hjj.c:176
	uartx->CTRL = temp;
  100ae4:	fe042703          	lw	a4,-32(s0)
  100ae8:	fdc42783          	lw	a5,-36(s0)
  100aec:	c398                	sw	a4,0(a5)
D:\MCU_WorkSpace\IntegrationTest\mcu4in_IT\function_cpus\Drivers\source/hm_uart_hjj.c:178

}
  100aee:	0001                	nop
  100af0:	5432                	lw	s0,44(sp)
  100af2:	6145                	addi	sp,sp,48
  100af4:	8082                	ret
  100af6:	00000013          	nop
  100afa:	00000013          	nop
  100afe:	0001                	nop

00100b00 <UART_ConfigBaud>:
UART_ConfigBaud():
D:\MCU_WorkSpace\IntegrationTest\mcu4in_IT\function_cpus\Drivers\source/hm_uart_hjj.c:192
 *					HM_UART4	
 * @param[in]	bdiv		,		cd				
 * @return 		None
 **********************************************************************/
void UART_ConfigBaud(HM_UART_TypeDef *uartx,uint8_t bdiv,	uint8_t	cd)
{
  100b00:	7179                	addi	sp,sp,-48
  100b02:	d622                	sw	s0,44(sp)
  100b04:	1800                	addi	s0,sp,48
  100b06:	fca42e23          	sw	a0,-36(s0)
  100b0a:	87ae                	mv	a5,a1
  100b0c:	8732                	mv	a4,a2
  100b0e:	fcf40da3          	sb	a5,-37(s0)
  100b12:	87ba                	mv	a5,a4
  100b14:	fcf40d23          	sb	a5,-38(s0)
D:\MCU_WorkSpace\IntegrationTest\mcu4in_IT\function_cpus\Drivers\source/hm_uart_hjj.c:193
	uint32_t temp=0x00;
  100b18:	fe042623          	sw	zero,-20(s0)
D:\MCU_WorkSpace\IntegrationTest\mcu4in_IT\function_cpus\Drivers\source/hm_uart_hjj.c:194
	temp = uartx->BDIVR;
  100b1c:	fdc42783          	lw	a5,-36(s0)
  100b20:	5bdc                	lw	a5,52(a5)
  100b22:	fef42623          	sw	a5,-20(s0)
D:\MCU_WorkSpace\IntegrationTest\mcu4in_IT\function_cpus\Drivers\source/hm_uart_hjj.c:195
	temp &=~UART_BDIVR_MASK;
  100b26:	fec42783          	lw	a5,-20(s0)
  100b2a:	f007f793          	andi	a5,a5,-256
  100b2e:	fef42623          	sw	a5,-20(s0)
D:\MCU_WorkSpace\IntegrationTest\mcu4in_IT\function_cpus\Drivers\source/hm_uart_hjj.c:196
	temp |= bdiv;
  100b32:	fdb44783          	lbu	a5,-37(s0)
  100b36:	fec42703          	lw	a4,-20(s0)
  100b3a:	8fd9                	or	a5,a5,a4
  100b3c:	fef42623          	sw	a5,-20(s0)
D:\MCU_WorkSpace\IntegrationTest\mcu4in_IT\function_cpus\Drivers\source/hm_uart_hjj.c:197
	uartx->BDIVR = temp;
  100b40:	fdc42783          	lw	a5,-36(s0)
  100b44:	fec42703          	lw	a4,-20(s0)
  100b48:	dbd8                	sw	a4,52(a5)
D:\MCU_WorkSpace\IntegrationTest\mcu4in_IT\function_cpus\Drivers\source/hm_uart_hjj.c:199

	temp = uartx->BRGR;
  100b4a:	fdc42783          	lw	a5,-36(s0)
  100b4e:	4f9c                	lw	a5,24(a5)
  100b50:	fef42623          	sw	a5,-20(s0)
D:\MCU_WorkSpace\IntegrationTest\mcu4in_IT\function_cpus\Drivers\source/hm_uart_hjj.c:200
	temp &=~UART_BRGR_MASK;
  100b54:	fec42703          	lw	a4,-20(s0)
  100b58:	77c1                	lui	a5,0xffff0
  100b5a:	8ff9                	and	a5,a5,a4
  100b5c:	fef42623          	sw	a5,-20(s0)
D:\MCU_WorkSpace\IntegrationTest\mcu4in_IT\function_cpus\Drivers\source/hm_uart_hjj.c:201
	temp |= cd;
  100b60:	fda44783          	lbu	a5,-38(s0)
  100b64:	fec42703          	lw	a4,-20(s0)
  100b68:	8fd9                	or	a5,a5,a4
  100b6a:	fef42623          	sw	a5,-20(s0)
D:\MCU_WorkSpace\IntegrationTest\mcu4in_IT\function_cpus\Drivers\source/hm_uart_hjj.c:202
	uartx->BRGR = temp;	
  100b6e:	fdc42783          	lw	a5,-36(s0)
  100b72:	fec42703          	lw	a4,-20(s0)
  100b76:	cf98                	sw	a4,24(a5)
D:\MCU_WorkSpace\IntegrationTest\mcu4in_IT\function_cpus\Drivers\source/hm_uart_hjj.c:203
}
  100b78:	0001                	nop
  100b7a:	5432                	lw	s0,44(sp)
  100b7c:	6145                	addi	sp,sp,48
  100b7e:	8082                	ret

00100b80 <UART_PollPutChar>:
UART_PollPutChar():
D:\MCU_WorkSpace\IntegrationTest\mcu4in_IT\function_cpus\Drivers\source/hm_uart_hjj.c:217
 *					HM_UART4	
 * @param[in]	c:		char				
 * @return 		None
 **********************************************************************/
void UART_PollPutChar(HM_UART_TypeDef *uartx,int c)
{
  100b80:	1101                	addi	sp,sp,-32
  100b82:	ce22                	sw	s0,28(sp)
  100b84:	1000                	addi	s0,sp,32
  100b86:	fea42623          	sw	a0,-20(s0)
  100b8a:	feb42423          	sw	a1,-24(s0)
D:\MCU_WorkSpace\IntegrationTest\mcu4in_IT\function_cpus\Drivers\source/hm_uart_hjj.c:219
	//while(!(uartx->CSR & UART_CSR_TEMPTY_MASK));
	uartx->TFIFO = c;
  100b8e:	fe842703          	lw	a4,-24(s0)
  100b92:	fec42783          	lw	a5,-20(s0)
  100b96:	db98                	sw	a4,48(a5)
D:\MCU_WorkSpace\IntegrationTest\mcu4in_IT\function_cpus\Drivers\source/hm_uart_hjj.c:220
}
  100b98:	0001                	nop
  100b9a:	4472                	lw	s0,28(sp)
  100b9c:	6105                	addi	sp,sp,32
  100b9e:	8082                	ret

00100ba0 <UART_BlockPutChar>:
UART_BlockPutChar():
D:\MCU_WorkSpace\IntegrationTest\mcu4in_IT\function_cpus\Drivers\source/hm_uart_hjj.c:234
 *					HM_UART4	
 * @param[in]	c:		char				
 * @return 		None
 **********************************************************************/
void UART_BlockPutChar(HM_UART_TypeDef *uartx,int c)
{
  100ba0:	1101                	addi	sp,sp,-32
  100ba2:	ce22                	sw	s0,28(sp)
  100ba4:	1000                	addi	s0,sp,32
  100ba6:	fea42623          	sw	a0,-20(s0)
  100baa:	feb42423          	sw	a1,-24(s0)
D:\MCU_WorkSpace\IntegrationTest\mcu4in_IT\function_cpus\Drivers\source/hm_uart_hjj.c:235
	while(!(uartx->CSR & UART_CSR_TEMPTY_MASK));
  100bae:	0001                	nop
D:\MCU_WorkSpace\IntegrationTest\mcu4in_IT\function_cpus\Drivers\source/hm_uart_hjj.c:235 (discriminator 1)
  100bb0:	fec42783          	lw	a5,-20(s0)
  100bb4:	57dc                	lw	a5,44(a5)
  100bb6:	8ba1                	andi	a5,a5,8
  100bb8:	dfe5                	beqz	a5,100bb0 <UART_BlockPutChar+0x10>
D:\MCU_WorkSpace\IntegrationTest\mcu4in_IT\function_cpus\Drivers\source/hm_uart_hjj.c:236
	uartx->TFIFO = c;
  100bba:	fe842703          	lw	a4,-24(s0)
  100bbe:	fec42783          	lw	a5,-20(s0)
  100bc2:	db98                	sw	a4,48(a5)
D:\MCU_WorkSpace\IntegrationTest\mcu4in_IT\function_cpus\Drivers\source/hm_uart_hjj.c:237
}
  100bc4:	0001                	nop
  100bc6:	4472                	lw	s0,28(sp)
  100bc8:	6105                	addi	sp,sp,32
  100bca:	8082                	ret
  100bcc:	00000013          	nop

00100bd0 <UART_BlockPutChars>:
UART_BlockPutChars():
D:\MCU_WorkSpace\IntegrationTest\mcu4in_IT\function_cpus\Drivers\source/hm_uart_hjj.c:239
void UART_BlockPutChars(HM_UART_TypeDef *uartx,unsigned char *data,unsigned int size)
{
  100bd0:	7179                	addi	sp,sp,-48
  100bd2:	d606                	sw	ra,44(sp)
  100bd4:	d422                	sw	s0,40(sp)
  100bd6:	1800                	addi	s0,sp,48
  100bd8:	fca42e23          	sw	a0,-36(s0)
  100bdc:	fcb42c23          	sw	a1,-40(s0)
  100be0:	fcc42a23          	sw	a2,-44(s0)
D:\MCU_WorkSpace\IntegrationTest\mcu4in_IT\function_cpus\Drivers\source/hm_uart_hjj.c:240
	unsigned int i=0;
  100be4:	fe042623          	sw	zero,-20(s0)
D:\MCU_WorkSpace\IntegrationTest\mcu4in_IT\function_cpus\Drivers\source/hm_uart_hjj.c:241
	for(i=0;i<size;i++){
  100be8:	fe042623          	sw	zero,-20(s0)
  100bec:	a00d                	j	100c0e <UART_BlockPutChars+0x3e>
D:\MCU_WorkSpace\IntegrationTest\mcu4in_IT\function_cpus\Drivers\source/hm_uart_hjj.c:242 (discriminator 3)
		UART_BlockPutChar(uartx,data[i]);
  100bee:	fd842703          	lw	a4,-40(s0)
  100bf2:	fec42783          	lw	a5,-20(s0)
  100bf6:	97ba                	add	a5,a5,a4
  100bf8:	0007c783          	lbu	a5,0(a5) # ffff0000 <__stack+0xdfec4000>
  100bfc:	85be                	mv	a1,a5
  100bfe:	fdc42503          	lw	a0,-36(s0)
  100c02:	3f79                	jal	100ba0 <UART_BlockPutChar>
D:\MCU_WorkSpace\IntegrationTest\mcu4in_IT\function_cpus\Drivers\source/hm_uart_hjj.c:241 (discriminator 3)
	for(i=0;i<size;i++){
  100c04:	fec42783          	lw	a5,-20(s0)
  100c08:	0785                	addi	a5,a5,1
  100c0a:	fef42623          	sw	a5,-20(s0)
D:\MCU_WorkSpace\IntegrationTest\mcu4in_IT\function_cpus\Drivers\source/hm_uart_hjj.c:241 (discriminator 1)
  100c0e:	fec42703          	lw	a4,-20(s0)
  100c12:	fd442783          	lw	a5,-44(s0)
  100c16:	fcf76ce3          	bltu	a4,a5,100bee <UART_BlockPutChars+0x1e>
D:\MCU_WorkSpace\IntegrationTest\mcu4in_IT\function_cpus\Drivers\source/hm_uart_hjj.c:244
	}
}
  100c1a:	0001                	nop
  100c1c:	50b2                	lw	ra,44(sp)
  100c1e:	5422                	lw	s0,40(sp)
  100c20:	6145                	addi	sp,sp,48
  100c22:	8082                	ret
  100c24:	00000013          	nop
  100c28:	00000013          	nop
  100c2c:	00000013          	nop

00100c30 <UART_PollFifoPutChar>:
UART_PollFifoPutChar():
D:\MCU_WorkSpace\IntegrationTest\mcu4in_IT\function_cpus\Drivers\source/hm_uart_hjj.c:247

void UART_PollFifoPutChar(HM_UART_TypeDef *uartx,int c)
{
  100c30:	1101                	addi	sp,sp,-32
  100c32:	ce22                	sw	s0,28(sp)
  100c34:	1000                	addi	s0,sp,32
  100c36:	fea42623          	sw	a0,-20(s0)
  100c3a:	feb42423          	sw	a1,-24(s0)
D:\MCU_WorkSpace\IntegrationTest\mcu4in_IT\function_cpus\Drivers\source/hm_uart_hjj.c:249
	//while((uartx->CSR & UART_CSR_TFUL_MASK));
	uartx->TFIFO = c;
  100c3e:	fe842703          	lw	a4,-24(s0)
  100c42:	fec42783          	lw	a5,-20(s0)
  100c46:	db98                	sw	a4,48(a5)
D:\MCU_WorkSpace\IntegrationTest\mcu4in_IT\function_cpus\Drivers\source/hm_uart_hjj.c:250
}
  100c48:	0001                	nop
  100c4a:	4472                	lw	s0,28(sp)
  100c4c:	6105                	addi	sp,sp,32
  100c4e:	8082                	ret

00100c50 <UART_PollGetChar>:
UART_PollGetChar():
D:\MCU_WorkSpace\IntegrationTest\mcu4in_IT\function_cpus\Drivers\source/hm_uart_hjj.c:263
 *					HM_UART3
 *					HM_UART4				
 * @return 			the	char of received
 **********************************************************************/
int UART_PollGetChar(HM_UART_TypeDef *uartx)
{
  100c50:	7179                	addi	sp,sp,-48
  100c52:	d622                	sw	s0,44(sp)
  100c54:	1800                	addi	s0,sp,48
  100c56:	fca42e23          	sw	a0,-36(s0)
D:\MCU_WorkSpace\IntegrationTest\mcu4in_IT\function_cpus\Drivers\source/hm_uart_hjj.c:264
	int ret=-1;
  100c5a:	57fd                	li	a5,-1
  100c5c:	fef42623          	sw	a5,-20(s0)
D:\MCU_WorkSpace\IntegrationTest\mcu4in_IT\function_cpus\Drivers\source/hm_uart_hjj.c:265
	if(!(uartx->CSR & UART_CSR_REMPTY_MASK)){
  100c60:	fdc42783          	lw	a5,-36(s0)
  100c64:	57dc                	lw	a5,44(a5)
  100c66:	8b89                	andi	a5,a5,2
  100c68:	e791                	bnez	a5,100c74 <UART_PollGetChar+0x24>
D:\MCU_WorkSpace\IntegrationTest\mcu4in_IT\function_cpus\Drivers\source/hm_uart_hjj.c:266
		ret = uartx->RFIFO;
  100c6a:	fdc42783          	lw	a5,-36(s0)
  100c6e:	5b9c                	lw	a5,48(a5)
  100c70:	fef42623          	sw	a5,-20(s0)
D:\MCU_WorkSpace\IntegrationTest\mcu4in_IT\function_cpus\Drivers\source/hm_uart_hjj.c:268
	}
	return ret;
  100c74:	fec42783          	lw	a5,-20(s0)
D:\MCU_WorkSpace\IntegrationTest\mcu4in_IT\function_cpus\Drivers\source/hm_uart_hjj.c:269
}
  100c78:	853e                	mv	a0,a5
  100c7a:	5432                	lw	s0,44(sp)
  100c7c:	6145                	addi	sp,sp,48
  100c7e:	8082                	ret

00100c80 <UART_BlockGetChar>:
UART_BlockGetChar():
D:\MCU_WorkSpace\IntegrationTest\mcu4in_IT\function_cpus\Drivers\source/hm_uart_hjj.c:282
 *					HM_UART3
 *					HM_UART4				
 * @return 			the	char of received
 **********************************************************************/
int UART_BlockGetChar(HM_UART_TypeDef *uartx)
{
  100c80:	7179                	addi	sp,sp,-48
  100c82:	d622                	sw	s0,44(sp)
  100c84:	1800                	addi	s0,sp,48
  100c86:	fca42e23          	sw	a0,-36(s0)
D:\MCU_WorkSpace\IntegrationTest\mcu4in_IT\function_cpus\Drivers\source/hm_uart_hjj.c:283
	int ret=-1;
  100c8a:	57fd                	li	a5,-1
  100c8c:	fef42623          	sw	a5,-20(s0)
D:\MCU_WorkSpace\IntegrationTest\mcu4in_IT\function_cpus\Drivers\source/hm_uart_hjj.c:284
	int overtime=20000;
  100c90:	6795                	lui	a5,0x5
  100c92:	e2078793          	addi	a5,a5,-480 # 4e20 <Reset_Handler-0xfb1e0>
  100c96:	fef42423          	sw	a5,-24(s0)
D:\MCU_WorkSpace\IntegrationTest\mcu4in_IT\function_cpus\Drivers\source/hm_uart_hjj.c:286
	//while((uartx->CSR & UART_CSR_REMPTY_MASK) && overtime--);
	while(uartx->CSR & UART_CSR_REMPTY_MASK);
  100c9a:	0001                	nop
D:\MCU_WorkSpace\IntegrationTest\mcu4in_IT\function_cpus\Drivers\source/hm_uart_hjj.c:286 (discriminator 1)
  100c9c:	fdc42783          	lw	a5,-36(s0)
  100ca0:	57dc                	lw	a5,44(a5)
  100ca2:	8b89                	andi	a5,a5,2
  100ca4:	ffe5                	bnez	a5,100c9c <UART_BlockGetChar+0x1c>
D:\MCU_WorkSpace\IntegrationTest\mcu4in_IT\function_cpus\Drivers\source/hm_uart_hjj.c:287
	if(overtime >= 0)
  100ca6:	fe842783          	lw	a5,-24(s0)
  100caa:	0007c763          	bltz	a5,100cb8 <UART_BlockGetChar+0x38>
D:\MCU_WorkSpace\IntegrationTest\mcu4in_IT\function_cpus\Drivers\source/hm_uart_hjj.c:288
		ret = uartx->RFIFO;
  100cae:	fdc42783          	lw	a5,-36(s0)
  100cb2:	5b9c                	lw	a5,48(a5)
  100cb4:	fef42623          	sw	a5,-20(s0)
D:\MCU_WorkSpace\IntegrationTest\mcu4in_IT\function_cpus\Drivers\source/hm_uart_hjj.c:290
	
	return ret;
  100cb8:	fec42783          	lw	a5,-20(s0)
D:\MCU_WorkSpace\IntegrationTest\mcu4in_IT\function_cpus\Drivers\source/hm_uart_hjj.c:291
}
  100cbc:	853e                	mv	a0,a5
  100cbe:	5432                	lw	s0,44(sp)
  100cc0:	6145                	addi	sp,sp,48
  100cc2:	8082                	ret
  100cc4:	00000013          	nop
  100cc8:	00000013          	nop
  100ccc:	00000013          	nop

00100cd0 <UART_WriteByte>:
UART_WriteByte():
D:\MCU_WorkSpace\IntegrationTest\mcu4in_IT\function_cpus\Drivers\source/hm_uart_hjj.c:304
 *					HM_UART3
 *					HM_UART4	
 * @param[in]	data:		char				
 * @return 		None
 **********************************************************************/
void UART_WriteByte(HM_UART_TypeDef *uartx,unsigned char data){
  100cd0:	1101                	addi	sp,sp,-32
  100cd2:	ce22                	sw	s0,28(sp)
  100cd4:	1000                	addi	s0,sp,32
  100cd6:	fea42623          	sw	a0,-20(s0)
  100cda:	87ae                	mv	a5,a1
  100cdc:	fef405a3          	sb	a5,-21(s0)
D:\MCU_WorkSpace\IntegrationTest\mcu4in_IT\function_cpus\Drivers\source/hm_uart_hjj.c:305
	while((uartx->CSR & UART_CSR_TFUL_MASK));
  100ce0:	0001                	nop
D:\MCU_WorkSpace\IntegrationTest\mcu4in_IT\function_cpus\Drivers\source/hm_uart_hjj.c:305 (discriminator 1)
  100ce2:	fec42783          	lw	a5,-20(s0)
  100ce6:	57dc                	lw	a5,44(a5)
  100ce8:	8bc1                	andi	a5,a5,16
  100cea:	ffe5                	bnez	a5,100ce2 <UART_WriteByte+0x12>
D:\MCU_WorkSpace\IntegrationTest\mcu4in_IT\function_cpus\Drivers\source/hm_uart_hjj.c:306
	uartx->TFIFO = data;
  100cec:	feb44703          	lbu	a4,-21(s0)
  100cf0:	fec42783          	lw	a5,-20(s0)
  100cf4:	db98                	sw	a4,48(a5)
D:\MCU_WorkSpace\IntegrationTest\mcu4in_IT\function_cpus\Drivers\source/hm_uart_hjj.c:307
}
  100cf6:	0001                	nop
  100cf8:	4472                	lw	s0,28(sp)
  100cfa:	6105                	addi	sp,sp,32
  100cfc:	8082                	ret
  100cfe:	0001                	nop

00100d00 <UART_WriteBytes>:
UART_WriteBytes():
D:\MCU_WorkSpace\IntegrationTest\mcu4in_IT\function_cpus\Drivers\source/hm_uart_hjj.c:320
 *					HM_UART3
 *					HM_UART4	
 * @param[in]	c:		char				
 * @return 		None
 **********************************************************************/
void UART_WriteBytes(HM_UART_TypeDef *uartx,unsigned char *data,unsigned int size){
  100d00:	7179                	addi	sp,sp,-48
  100d02:	d606                	sw	ra,44(sp)
  100d04:	d422                	sw	s0,40(sp)
  100d06:	1800                	addi	s0,sp,48
  100d08:	fca42e23          	sw	a0,-36(s0)
  100d0c:	fcb42c23          	sw	a1,-40(s0)
  100d10:	fcc42a23          	sw	a2,-44(s0)
D:\MCU_WorkSpace\IntegrationTest\mcu4in_IT\function_cpus\Drivers\source/hm_uart_hjj.c:321
	unsigned int i=0;
  100d14:	fe042623          	sw	zero,-20(s0)
D:\MCU_WorkSpace\IntegrationTest\mcu4in_IT\function_cpus\Drivers\source/hm_uart_hjj.c:322
	for(i=0;i<size;i++){
  100d18:	fe042623          	sw	zero,-20(s0)
  100d1c:	a00d                	j	100d3e <UART_WriteBytes+0x3e>
D:\MCU_WorkSpace\IntegrationTest\mcu4in_IT\function_cpus\Drivers\source/hm_uart_hjj.c:323 (discriminator 3)
		UART_WriteByte(uartx,data[i]);
  100d1e:	fd842703          	lw	a4,-40(s0)
  100d22:	fec42783          	lw	a5,-20(s0)
  100d26:	97ba                	add	a5,a5,a4
  100d28:	0007c783          	lbu	a5,0(a5)
  100d2c:	85be                	mv	a1,a5
  100d2e:	fdc42503          	lw	a0,-36(s0)
  100d32:	3f79                	jal	100cd0 <UART_WriteByte>
D:\MCU_WorkSpace\IntegrationTest\mcu4in_IT\function_cpus\Drivers\source/hm_uart_hjj.c:322 (discriminator 3)
	for(i=0;i<size;i++){
  100d34:	fec42783          	lw	a5,-20(s0)
  100d38:	0785                	addi	a5,a5,1
  100d3a:	fef42623          	sw	a5,-20(s0)
D:\MCU_WorkSpace\IntegrationTest\mcu4in_IT\function_cpus\Drivers\source/hm_uart_hjj.c:322 (discriminator 1)
  100d3e:	fec42703          	lw	a4,-20(s0)
  100d42:	fd442783          	lw	a5,-44(s0)
  100d46:	fcf76ce3          	bltu	a4,a5,100d1e <UART_WriteBytes+0x1e>
D:\MCU_WorkSpace\IntegrationTest\mcu4in_IT\function_cpus\Drivers\source/hm_uart_hjj.c:325
	}
}
  100d4a:	0001                	nop
  100d4c:	50b2                	lw	ra,44(sp)
  100d4e:	5422                	lw	s0,40(sp)
  100d50:	6145                	addi	sp,sp,48
  100d52:	8082                	ret
  100d54:	00000013          	nop
  100d58:	00000013          	nop
  100d5c:	00000013          	nop

00100d60 <UART_EnableInt>:
UART_EnableInt():
D:\MCU_WorkSpace\IntegrationTest\mcu4in_IT\function_cpus\Drivers\source/hm_uart_hjj.c:327

void UART_EnableInt(HM_UART_TypeDef *uartx, unsigned int pics){
  100d60:	1101                	addi	sp,sp,-32
  100d62:	ce22                	sw	s0,28(sp)
  100d64:	1000                	addi	s0,sp,32
  100d66:	fea42623          	sw	a0,-20(s0)
  100d6a:	feb42423          	sw	a1,-24(s0)
D:\MCU_WorkSpace\IntegrationTest\mcu4in_IT\function_cpus\Drivers\source/hm_uart_hjj.c:328
	uartx->IER = pics;
  100d6e:	fec42783          	lw	a5,-20(s0)
  100d72:	fe842703          	lw	a4,-24(s0)
  100d76:	c798                	sw	a4,8(a5)
D:\MCU_WorkSpace\IntegrationTest\mcu4in_IT\function_cpus\Drivers\source/hm_uart_hjj.c:329
}
  100d78:	0001                	nop
  100d7a:	4472                	lw	s0,28(sp)
  100d7c:	6105                	addi	sp,sp,32
  100d7e:	8082                	ret

00100d80 <UART_DisableInt>:
UART_DisableInt():
D:\MCU_WorkSpace\IntegrationTest\mcu4in_IT\function_cpus\Drivers\source/hm_uart_hjj.c:330
void UART_DisableInt(HM_UART_TypeDef *uartx, unsigned int pics){
  100d80:	1101                	addi	sp,sp,-32
  100d82:	ce22                	sw	s0,28(sp)
  100d84:	1000                	addi	s0,sp,32
  100d86:	fea42623          	sw	a0,-20(s0)
  100d8a:	feb42423          	sw	a1,-24(s0)
D:\MCU_WorkSpace\IntegrationTest\mcu4in_IT\function_cpus\Drivers\source/hm_uart_hjj.c:331
	uartx->IDR = pics;
  100d8e:	fec42783          	lw	a5,-20(s0)
  100d92:	fe842703          	lw	a4,-24(s0)
  100d96:	c7d8                	sw	a4,12(a5)
D:\MCU_WorkSpace\IntegrationTest\mcu4in_IT\function_cpus\Drivers\source/hm_uart_hjj.c:332
}
  100d98:	0001                	nop
  100d9a:	4472                	lw	s0,28(sp)
  100d9c:	6105                	addi	sp,sp,32
  100d9e:	8082                	ret

00100da0 <UART_GetIntState>:
UART_GetIntState():
D:\MCU_WorkSpace\IntegrationTest\mcu4in_IT\function_cpus\Drivers\source/hm_uart_hjj.c:333
unsigned char UART_GetIntState(HM_UART_TypeDef *uartx, unsigned int pic){
  100da0:	1101                	addi	sp,sp,-32
  100da2:	ce22                	sw	s0,28(sp)
  100da4:	1000                	addi	s0,sp,32
  100da6:	fea42623          	sw	a0,-20(s0)
  100daa:	feb42423          	sw	a1,-24(s0)
D:\MCU_WorkSpace\IntegrationTest\mcu4in_IT\function_cpus\Drivers\source/hm_uart_hjj.c:334
	if(uartx->CISR & pic)
  100dae:	fec42783          	lw	a5,-20(s0)
  100db2:	4bd8                	lw	a4,20(a5)
  100db4:	fe842783          	lw	a5,-24(s0)
  100db8:	8ff9                	and	a5,a5,a4
  100dba:	c399                	beqz	a5,100dc0 <UART_GetIntState+0x20>
D:\MCU_WorkSpace\IntegrationTest\mcu4in_IT\function_cpus\Drivers\source/hm_uart_hjj.c:335
		return 1;
  100dbc:	4785                	li	a5,1
  100dbe:	a011                	j	100dc2 <UART_GetIntState+0x22>
D:\MCU_WorkSpace\IntegrationTest\mcu4in_IT\function_cpus\Drivers\source/hm_uart_hjj.c:336
	return 0;
  100dc0:	4781                	li	a5,0
D:\MCU_WorkSpace\IntegrationTest\mcu4in_IT\function_cpus\Drivers\source/hm_uart_hjj.c:337
}
  100dc2:	853e                	mv	a0,a5
  100dc4:	4472                	lw	s0,28(sp)
  100dc6:	6105                	addi	sp,sp,32
  100dc8:	8082                	ret
  100dca:	00000013          	nop
  100dce:	0001                	nop

00100dd0 <UART_GetIntMask>:
UART_GetIntMask():
D:\MCU_WorkSpace\IntegrationTest\mcu4in_IT\function_cpus\Drivers\source/hm_uart_hjj.c:338
unsigned char UART_GetIntMask(HM_UART_TypeDef *uartx, unsigned int pic){
  100dd0:	1101                	addi	sp,sp,-32
  100dd2:	ce22                	sw	s0,28(sp)
  100dd4:	1000                	addi	s0,sp,32
  100dd6:	fea42623          	sw	a0,-20(s0)
  100dda:	feb42423          	sw	a1,-24(s0)
D:\MCU_WorkSpace\IntegrationTest\mcu4in_IT\function_cpus\Drivers\source/hm_uart_hjj.c:339
	if(uartx->IMR & pic)
  100dde:	fec42783          	lw	a5,-20(s0)
  100de2:	4b98                	lw	a4,16(a5)
  100de4:	fe842783          	lw	a5,-24(s0)
  100de8:	8ff9                	and	a5,a5,a4
  100dea:	c399                	beqz	a5,100df0 <UART_GetIntMask+0x20>
D:\MCU_WorkSpace\IntegrationTest\mcu4in_IT\function_cpus\Drivers\source/hm_uart_hjj.c:340
		return 1;
  100dec:	4785                	li	a5,1
  100dee:	a011                	j	100df2 <UART_GetIntMask+0x22>
D:\MCU_WorkSpace\IntegrationTest\mcu4in_IT\function_cpus\Drivers\source/hm_uart_hjj.c:341
	return 0;
  100df0:	4781                	li	a5,0
D:\MCU_WorkSpace\IntegrationTest\mcu4in_IT\function_cpus\Drivers\source/hm_uart_hjj.c:342
}
  100df2:	853e                	mv	a0,a5
  100df4:	4472                	lw	s0,28(sp)
  100df6:	6105                	addi	sp,sp,32
  100df8:	8082                	ret
  100dfa:	00000013          	nop
  100dfe:	0001                	nop

00100e00 <UART_RfifoTrigger>:
UART_RfifoTrigger():
D:\MCU_WorkSpace\IntegrationTest\mcu4in_IT\function_cpus\Drivers\source/hm_uart_hjj.c:344

void UART_RfifoTrigger(HM_UART_TypeDef *uartx,int num){
  100e00:	1101                	addi	sp,sp,-32
  100e02:	ce22                	sw	s0,28(sp)
  100e04:	1000                	addi	s0,sp,32
  100e06:	fea42623          	sw	a0,-20(s0)
  100e0a:	feb42423          	sw	a1,-24(s0)
D:\MCU_WorkSpace\IntegrationTest\mcu4in_IT\function_cpus\Drivers\source/hm_uart_hjj.c:345
	uartx->RTR = num;
  100e0e:	fe842703          	lw	a4,-24(s0)
  100e12:	fec42783          	lw	a5,-20(s0)
  100e16:	d398                	sw	a4,32(a5)
D:\MCU_WorkSpace\IntegrationTest\mcu4in_IT\function_cpus\Drivers\source/hm_uart_hjj.c:346
}
  100e18:	0001                	nop
  100e1a:	4472                	lw	s0,28(sp)
  100e1c:	6105                	addi	sp,sp,32
  100e1e:	8082                	ret

00100e20 <UART_TfifoTrigger>:
UART_TfifoTrigger():
D:\MCU_WorkSpace\IntegrationTest\mcu4in_IT\function_cpus\Drivers\source/hm_uart_hjj.c:347
void UART_TfifoTrigger(HM_UART_TypeDef *uartx,int num){
  100e20:	1101                	addi	sp,sp,-32
  100e22:	ce22                	sw	s0,28(sp)
  100e24:	1000                	addi	s0,sp,32
  100e26:	fea42623          	sw	a0,-20(s0)
  100e2a:	feb42423          	sw	a1,-24(s0)
D:\MCU_WorkSpace\IntegrationTest\mcu4in_IT\function_cpus\Drivers\source/hm_uart_hjj.c:348
	uartx->TTR = num;
  100e2e:	fe842703          	lw	a4,-24(s0)
  100e32:	fec42783          	lw	a5,-20(s0)
  100e36:	c3f8                	sw	a4,68(a5)
D:\MCU_WorkSpace\IntegrationTest\mcu4in_IT\function_cpus\Drivers\source/hm_uart_hjj.c:349
}
  100e38:	0001                	nop
  100e3a:	4472                	lw	s0,28(sp)
  100e3c:	6105                	addi	sp,sp,32
  100e3e:	8082                	ret

00100e40 <UART_SetDmaMode>:
UART_SetDmaMode():
D:\MCU_WorkSpace\IntegrationTest\mcu4in_IT\function_cpus\Drivers\source/hm_uart_hjj.c:351
void UART_SetDmaMode(HM_UART_TypeDef *uartx,FunctionalState NewState)
{
  100e40:	1101                	addi	sp,sp,-32
  100e42:	ce22                	sw	s0,28(sp)
  100e44:	1000                	addi	s0,sp,32
  100e46:	fea42623          	sw	a0,-20(s0)
  100e4a:	feb42423          	sw	a1,-24(s0)
D:\MCU_WorkSpace\IntegrationTest\mcu4in_IT\function_cpus\Drivers\source/hm_uart_hjj.c:352
	if(ENABLE == NewState)
  100e4e:	fe842703          	lw	a4,-24(s0)
  100e52:	4785                	li	a5,1
  100e54:	00f71863          	bne	a4,a5,100e64 <UART_SetDmaMode+0x24>
D:\MCU_WorkSpace\IntegrationTest\mcu4in_IT\function_cpus\Drivers\source/hm_uart_hjj.c:354
	{
		uartx->UA_DMAMODE_CTRL = 1;
  100e58:	fec42783          	lw	a5,-20(s0)
  100e5c:	4705                	li	a4,1
  100e5e:	0ae7a023          	sw	a4,160(a5)
D:\MCU_WorkSpace\IntegrationTest\mcu4in_IT\function_cpus\Drivers\source/hm_uart_hjj.c:359
	}else
	{
		uartx->UA_DMAMODE_CTRL = 0;
	}
}
  100e62:	a029                	j	100e6c <UART_SetDmaMode+0x2c>
D:\MCU_WorkSpace\IntegrationTest\mcu4in_IT\function_cpus\Drivers\source/hm_uart_hjj.c:357
		uartx->UA_DMAMODE_CTRL = 0;
  100e64:	fec42783          	lw	a5,-20(s0)
  100e68:	0a07a023          	sw	zero,160(a5)
D:\MCU_WorkSpace\IntegrationTest\mcu4in_IT\function_cpus\Drivers\source/hm_uart_hjj.c:359
}
  100e6c:	0001                	nop
  100e6e:	4472                	lw	s0,28(sp)
  100e70:	6105                	addi	sp,sp,32
  100e72:	8082                	ret
  100e74:	00000013          	nop
  100e78:	00000013          	nop
  100e7c:	00000013          	nop

00100e80 <UART_RS485Config>:
UART_RS485Config():
D:\MCU_WorkSpace\IntegrationTest\mcu4in_IT\function_cpus\Drivers\source/hm_uart_hjj.c:374
*                    that contains the configuration information for specified UART
*                    in RS485 mode.
 * @return		None
 **********************************************************************/
void UART_RS485Config(HM_UART_TypeDef *uartx, UART1_RS485_CTRLCFG_Type *RS485ConfigStruct)
{
  100e80:	7179                	addi	sp,sp,-48
  100e82:	d622                	sw	s0,44(sp)
  100e84:	1800                	addi	s0,sp,48
  100e86:	fca42e23          	sw	a0,-36(s0)
  100e8a:	fcb42c23          	sw	a1,-40(s0)
D:\MCU_WorkSpace\IntegrationTest\mcu4in_IT\function_cpus\Drivers\source/hm_uart_hjj.c:378
	uint32_t tmp;
	__IO uint32_t *RS485DLY, *ADRMATCH, *RS485CTRL;

	tmp = 0;
  100e8e:	fe042623          	sw	zero,-20(s0)
D:\MCU_WorkSpace\IntegrationTest\mcu4in_IT\function_cpus\Drivers\source/hm_uart_hjj.c:380

	RS485DLY = (__IO uint32_t *)&uartx->RS485OE_DELAY;
  100e92:	fdc42783          	lw	a5,-36(s0)
  100e96:	08878793          	addi	a5,a5,136
  100e9a:	fef42423          	sw	a5,-24(s0)
D:\MCU_WorkSpace\IntegrationTest\mcu4in_IT\function_cpus\Drivers\source/hm_uart_hjj.c:381
	ADRMATCH = (__IO uint32_t *)&uartx->RS485ADDR_MATCH;
  100e9e:	fdc42783          	lw	a5,-36(s0)
  100ea2:	08478793          	addi	a5,a5,132
  100ea6:	fef42223          	sw	a5,-28(s0)
D:\MCU_WorkSpace\IntegrationTest\mcu4in_IT\function_cpus\Drivers\source/hm_uart_hjj.c:382
    RS485CTRL =  (__IO uint32_t *)&uartx->RS485CTRL;
  100eaa:	fdc42783          	lw	a5,-36(s0)
  100eae:	08078793          	addi	a5,a5,128
  100eb2:	fef42023          	sw	a5,-32(s0)
D:\MCU_WorkSpace\IntegrationTest\mcu4in_IT\function_cpus\Drivers\source/hm_uart_hjj.c:385

	// If Auto Direction Control is enabled -  This function is used in Master mode
	if (RS485ConfigStruct->AutoDirCtrl_State == ENABLE)
  100eb6:	fd842783          	lw	a5,-40(s0)
  100eba:	47d8                	lw	a4,12(a5)
  100ebc:	4785                	li	a5,1
  100ebe:	04f71e63          	bne	a4,a5,100f1a <UART_RS485Config+0x9a>
D:\MCU_WorkSpace\IntegrationTest\mcu4in_IT\function_cpus\Drivers\source/hm_uart_hjj.c:387
	{
		tmp |= UART_RS485CTRL_DCTRL_EN;
  100ec2:	fec42783          	lw	a5,-20(s0)
  100ec6:	0107e793          	ori	a5,a5,16
  100eca:	fef42623          	sw	a5,-20(s0)
D:\MCU_WorkSpace\IntegrationTest\mcu4in_IT\function_cpus\Drivers\source/hm_uart_hjj.c:390

		// Set polar
		if (RS485ConfigStruct->DirCtrlPol_Level == SET)
  100ece:	fd842783          	lw	a5,-40(s0)
  100ed2:	4bd8                	lw	a4,20(a5)
  100ed4:	4785                	li	a5,1
  100ed6:	00f71863          	bne	a4,a5,100ee6 <UART_RS485Config+0x66>
D:\MCU_WorkSpace\IntegrationTest\mcu4in_IT\function_cpus\Drivers\source/hm_uart_hjj.c:392
		{
			tmp |= UART_RS485CTRL_OINV_1;
  100eda:	fec42783          	lw	a5,-20(s0)
  100ede:	0207e793          	ori	a5,a5,32
  100ee2:	fef42623          	sw	a5,-20(s0)
D:\MCU_WorkSpace\IntegrationTest\mcu4in_IT\function_cpus\Drivers\source/hm_uart_hjj.c:397
		}

		// Set pin according to. This condition is only with UART1. The others are used
		// OE pin as default for control the direction of RS485 buffer IC
		if ((RS485ConfigStruct->DirCtrlPin == UART_RS485_DIRCTRL_DTR) &&
  100ee6:	fd842783          	lw	a5,-40(s0)
  100eea:	4b98                	lw	a4,16(a5)
  100eec:	4785                	li	a5,1
  100eee:	00f71e63          	bne	a4,a5,100f0a <UART_RS485Config+0x8a>
D:\MCU_WorkSpace\IntegrationTest\mcu4in_IT\function_cpus\Drivers\source/hm_uart_hjj.c:397 (discriminator 1)
  100ef2:	fdc42703          	lw	a4,-36(s0)
  100ef6:	4000d7b7          	lui	a5,0x4000d
  100efa:	00f71863          	bne	a4,a5,100f0a <UART_RS485Config+0x8a>
D:\MCU_WorkSpace\IntegrationTest\mcu4in_IT\function_cpus\Drivers\source/hm_uart_hjj.c:400
             (uartx == HM_UART1))
		{
			tmp |= UART_RS485CTRL_SEL_DTR;
  100efe:	fec42783          	lw	a5,-20(s0)
  100f02:	0087e793          	ori	a5,a5,8
  100f06:	fef42623          	sw	a5,-20(s0)
D:\MCU_WorkSpace\IntegrationTest\mcu4in_IT\function_cpus\Drivers\source/hm_uart_hjj.c:404
		}

		// Fill delay time
		*RS485DLY = RS485ConfigStruct->DelayValue & UART_RS485DLY_BITMASK;
  100f0a:	fd842783          	lw	a5,-40(s0)
  100f0e:	0197c783          	lbu	a5,25(a5) # 4000d019 <__stack+0x1fee1019>
  100f12:	873e                	mv	a4,a5
  100f14:	fe842783          	lw	a5,-24(s0)
  100f18:	c398                	sw	a4,0(a5)
D:\MCU_WorkSpace\IntegrationTest\mcu4in_IT\function_cpus\Drivers\source/hm_uart_hjj.c:408
	}
     
	// MultiDrop mode is enable
	if (RS485ConfigStruct->NormalMultiDropMode_State == ENABLE)
  100f1a:	fd842783          	lw	a5,-40(s0)
  100f1e:	4398                	lw	a4,0(a5)
  100f20:	4785                	li	a5,1
  100f22:	00f71863          	bne	a4,a5,100f32 <UART_RS485Config+0xb2>
D:\MCU_WorkSpace\IntegrationTest\mcu4in_IT\function_cpus\Drivers\source/hm_uart_hjj.c:410
	{
		tmp |= UART_RS485CTRL_NMM_EN;
  100f26:	fec42783          	lw	a5,-20(s0)
  100f2a:	0017e793          	ori	a5,a5,1
  100f2e:	fef42623          	sw	a5,-20(s0)
D:\MCU_WorkSpace\IntegrationTest\mcu4in_IT\function_cpus\Drivers\source/hm_uart_hjj.c:414
	}

	// Auto Address Detect function
	if (RS485ConfigStruct->AutoAddrDetect_State == ENABLE)
  100f32:	fd842783          	lw	a5,-40(s0)
  100f36:	4798                	lw	a4,8(a5)
  100f38:	4785                	li	a5,1
  100f3a:	02f71063          	bne	a4,a5,100f5a <UART_RS485Config+0xda>
D:\MCU_WorkSpace\IntegrationTest\mcu4in_IT\function_cpus\Drivers\source/hm_uart_hjj.c:416
	{
		tmp |= UART_RS485CTRL_AADEN;
  100f3e:	fec42783          	lw	a5,-20(s0)
  100f42:	0047e793          	ori	a5,a5,4
  100f46:	fef42623          	sw	a5,-20(s0)
D:\MCU_WorkSpace\IntegrationTest\mcu4in_IT\function_cpus\Drivers\source/hm_uart_hjj.c:419

		// Fill Match Address
		*ADRMATCH = RS485ConfigStruct->MatchAddrValue & UART_RS485ADRMATCH_BITMASK;
  100f4a:	fd842783          	lw	a5,-40(s0)
  100f4e:	0187c783          	lbu	a5,24(a5)
  100f52:	873e                	mv	a4,a5
  100f54:	fe442783          	lw	a5,-28(s0)
  100f58:	c398                	sw	a4,0(a5)
D:\MCU_WorkSpace\IntegrationTest\mcu4in_IT\function_cpus\Drivers\source/hm_uart_hjj.c:423
	}

	// Receiver is disable
	if (RS485ConfigStruct->Rx_State == DISABLE)
  100f5a:	fd842783          	lw	a5,-40(s0)
  100f5e:	43dc                	lw	a5,4(a5)
  100f60:	e799                	bnez	a5,100f6e <UART_RS485Config+0xee>
D:\MCU_WorkSpace\IntegrationTest\mcu4in_IT\function_cpus\Drivers\source/hm_uart_hjj.c:425
	{
		tmp |= UART_RS485CTRL_RX_DIS;
  100f62:	fec42783          	lw	a5,-20(s0)
  100f66:	0027e793          	ori	a5,a5,2
  100f6a:	fef42623          	sw	a5,-20(s0)
D:\MCU_WorkSpace\IntegrationTest\mcu4in_IT\function_cpus\Drivers\source/hm_uart_hjj.c:429
	}
     
	// write back to RS485 control register
	*RS485CTRL = tmp & UART_RS485CTRL_BITMASK;
  100f6e:	fec42783          	lw	a5,-20(s0)
  100f72:	03f7f713          	andi	a4,a5,63
  100f76:	fe042783          	lw	a5,-32(s0)
  100f7a:	c398                	sw	a4,0(a5)
D:\MCU_WorkSpace\IntegrationTest\mcu4in_IT\function_cpus\Drivers\source/hm_uart_hjj.c:431

}
  100f7c:	0001                	nop
  100f7e:	5432                	lw	s0,44(sp)
  100f80:	6145                	addi	sp,sp,48
  100f82:	8082                	ret
  100f84:	00000013          	nop
  100f88:	00000013          	nop
  100f8c:	00000013          	nop

00100f90 <UART_RS485ReceiverCmd>:
UART_RS485ReceiverCmd():
D:\MCU_WorkSpace\IntegrationTest\mcu4in_IT\function_cpus\Drivers\source/hm_uart_hjj.c:442
 * 							- ENABLE: Enable this function.
 * 							- DISABLE: Disable this function.
 * @return		None
 **********************************************************************/
void UART_RS485ReceiverCmd(HM_UART_TypeDef *uartx, FunctionalState NewState)
{
  100f90:	1101                	addi	sp,sp,-32
  100f92:	ce22                	sw	s0,28(sp)
  100f94:	1000                	addi	s0,sp,32
  100f96:	fea42623          	sw	a0,-20(s0)
  100f9a:	feb42423          	sw	a1,-24(s0)
D:\MCU_WorkSpace\IntegrationTest\mcu4in_IT\function_cpus\Drivers\source/hm_uart_hjj.c:443
	if (NewState == ENABLE)
  100f9e:	fe842703          	lw	a4,-24(s0)
  100fa2:	4785                	li	a5,1
  100fa4:	00f71d63          	bne	a4,a5,100fbe <UART_RS485ReceiverCmd+0x2e>
D:\MCU_WorkSpace\IntegrationTest\mcu4in_IT\function_cpus\Drivers\source/hm_uart_hjj.c:445
	{
		uartx->RS485CTRL &= ~UART_RS485CTRL_RX_DIS;
  100fa8:	fec42783          	lw	a5,-20(s0)
  100fac:	0807a783          	lw	a5,128(a5)
  100fb0:	ffd7f713          	andi	a4,a5,-3
  100fb4:	fec42783          	lw	a5,-20(s0)
  100fb8:	08e7a023          	sw	a4,128(a5)
D:\MCU_WorkSpace\IntegrationTest\mcu4in_IT\function_cpus\Drivers\source/hm_uart_hjj.c:451
	}
	else
	{
		uartx->RS485CTRL |= UART_RS485CTRL_RX_DIS;
	}
}
  100fbc:	a819                	j	100fd2 <UART_RS485ReceiverCmd+0x42>
D:\MCU_WorkSpace\IntegrationTest\mcu4in_IT\function_cpus\Drivers\source/hm_uart_hjj.c:449
		uartx->RS485CTRL |= UART_RS485CTRL_RX_DIS;
  100fbe:	fec42783          	lw	a5,-20(s0)
  100fc2:	0807a783          	lw	a5,128(a5)
  100fc6:	0027e713          	ori	a4,a5,2
  100fca:	fec42783          	lw	a5,-20(s0)
  100fce:	08e7a023          	sw	a4,128(a5)
D:\MCU_WorkSpace\IntegrationTest\mcu4in_IT\function_cpus\Drivers\source/hm_uart_hjj.c:451
}
  100fd2:	0001                	nop
  100fd4:	4472                	lw	s0,28(sp)
  100fd6:	6105                	addi	sp,sp,32
  100fd8:	8082                	ret
  100fda:	00000013          	nop
  100fde:	0001                	nop

00100fe0 <UART_RS485Send>:
UART_RS485Send():
D:\MCU_WorkSpace\IntegrationTest\mcu4in_IT\function_cpus\Drivers\source/hm_uart_hjj.c:462
 * @param[in]	size		Size of data.
 * @param[in]	ParityStick	Parity Stick value, should be 0 or 1.
 * @return		None
 **********************************************************************/
void UART_RS485Send(HM_UART_TypeDef *uartx, uint8_t *pDatFrm,uint32_t size, uint8_t ParityStick)
{
  100fe0:	7179                	addi	sp,sp,-48
  100fe2:	d606                	sw	ra,44(sp)
  100fe4:	d422                	sw	s0,40(sp)
  100fe6:	1800                	addi	s0,sp,48
  100fe8:	fca42e23          	sw	a0,-36(s0)
  100fec:	fcb42c23          	sw	a1,-40(s0)
  100ff0:	fcc42a23          	sw	a2,-44(s0)
  100ff4:	87b6                	mv	a5,a3
  100ff6:	fcf409a3          	sb	a5,-45(s0)
D:\MCU_WorkSpace\IntegrationTest\mcu4in_IT\function_cpus\Drivers\source/hm_uart_hjj.c:465
	uint8_t tmp;

	if (ParityStick)
  100ffa:	fd344783          	lbu	a5,-45(s0)
  100ffe:	c3ad                	beqz	a5,101060 <UART_RS485Send+0x80>
D:\MCU_WorkSpace\IntegrationTest\mcu4in_IT\function_cpus\Drivers\source/hm_uart_hjj.c:467
	{
		tmp = uartx->MODE & UART_MODE_BITMASK;
  101000:	fdc42783          	lw	a5,-36(s0)
  101004:	43dc                	lw	a5,4(a5)
  101006:	fef407a3          	sb	a5,-17(s0)
D:\MCU_WorkSpace\IntegrationTest\mcu4in_IT\function_cpus\Drivers\source/hm_uart_hjj.c:468
		tmp &= ~(UART_MODE_PARITY_BITMASK);
  10100a:	fef44783          	lbu	a5,-17(s0)
  10100e:	fc77f793          	andi	a5,a5,-57
  101012:	fef407a3          	sb	a5,-17(s0)
D:\MCU_WorkSpace\IntegrationTest\mcu4in_IT\function_cpus\Drivers\source/hm_uart_hjj.c:469
		tmp|=UART_MODE_PARITY_F_1;
  101016:	fef44783          	lbu	a5,-17(s0)
  10101a:	0187e793          	ori	a5,a5,24
  10101e:	fef407a3          	sb	a5,-17(s0)
D:\MCU_WorkSpace\IntegrationTest\mcu4in_IT\function_cpus\Drivers\source/hm_uart_hjj.c:470
		uartx->MODE = tmp;
  101022:	fef44703          	lbu	a4,-17(s0)
  101026:	fdc42783          	lw	a5,-36(s0)
  10102a:	c3d8                	sw	a4,4(a5)
D:\MCU_WorkSpace\IntegrationTest\mcu4in_IT\function_cpus\Drivers\source/hm_uart_hjj.c:471
		UART_BlockPutChars(uartx, pDatFrm, size);
  10102c:	fd442603          	lw	a2,-44(s0)
  101030:	fd842583          	lw	a1,-40(s0)
  101034:	fdc42503          	lw	a0,-36(s0)
  101038:	3e61                	jal	100bd0 <UART_BlockPutChars>
D:\MCU_WorkSpace\IntegrationTest\mcu4in_IT\function_cpus\Drivers\source/hm_uart_hjj.c:472
		while(!(uartx->CSR & UART_CSR_TEMPTY_MASK));
  10103a:	0001                	nop
D:\MCU_WorkSpace\IntegrationTest\mcu4in_IT\function_cpus\Drivers\source/hm_uart_hjj.c:472 (discriminator 1)
  10103c:	fdc42783          	lw	a5,-36(s0)
  101040:	57dc                	lw	a5,44(a5)
  101042:	8ba1                	andi	a5,a5,8
  101044:	dfe5                	beqz	a5,10103c <UART_RS485Send+0x5c>
D:\MCU_WorkSpace\IntegrationTest\mcu4in_IT\function_cpus\Drivers\source/hm_uart_hjj.c:473
		tmp &= ~(UART_MODE_PARITY_BITMASK);
  101046:	fef44783          	lbu	a5,-17(s0)
  10104a:	fc77f793          	andi	a5,a5,-57
  10104e:	fef407a3          	sb	a5,-17(s0)
D:\MCU_WorkSpace\IntegrationTest\mcu4in_IT\function_cpus\Drivers\source/hm_uart_hjj.c:474
		tmp|=UART_MODE_PARITY_F_0;
  101052:	fef44783          	lbu	a5,-17(s0)
  101056:	0107e793          	ori	a5,a5,16
  10105a:	fef407a3          	sb	a5,-17(s0)
D:\MCU_WorkSpace\IntegrationTest\mcu4in_IT\function_cpus\Drivers\source/hm_uart_hjj.c:486
		uartx->MODE = tmp;
		UART_BlockPutChars(uartx, pDatFrm, size);
		while(!(uartx->CSR & UART_CSR_TEMPTY_MASK));
	}

}
  10105e:	a0a1                	j	1010a6 <UART_RS485Send+0xc6>
D:\MCU_WorkSpace\IntegrationTest\mcu4in_IT\function_cpus\Drivers\source/hm_uart_hjj.c:478
		tmp = uartx->MODE & UART_MODE_BITMASK;
  101060:	fdc42783          	lw	a5,-36(s0)
  101064:	43dc                	lw	a5,4(a5)
  101066:	fef407a3          	sb	a5,-17(s0)
D:\MCU_WorkSpace\IntegrationTest\mcu4in_IT\function_cpus\Drivers\source/hm_uart_hjj.c:479
		tmp &= ~(UART_MODE_PARITY_BITMASK);
  10106a:	fef44783          	lbu	a5,-17(s0)
  10106e:	fc77f793          	andi	a5,a5,-57
  101072:	fef407a3          	sb	a5,-17(s0)
D:\MCU_WorkSpace\IntegrationTest\mcu4in_IT\function_cpus\Drivers\source/hm_uart_hjj.c:480
		tmp|=UART_MODE_PARITY_F_0;
  101076:	fef44783          	lbu	a5,-17(s0)
  10107a:	0107e793          	ori	a5,a5,16
  10107e:	fef407a3          	sb	a5,-17(s0)
D:\MCU_WorkSpace\IntegrationTest\mcu4in_IT\function_cpus\Drivers\source/hm_uart_hjj.c:481
		uartx->MODE = tmp;
  101082:	fef44703          	lbu	a4,-17(s0)
  101086:	fdc42783          	lw	a5,-36(s0)
  10108a:	c3d8                	sw	a4,4(a5)
D:\MCU_WorkSpace\IntegrationTest\mcu4in_IT\function_cpus\Drivers\source/hm_uart_hjj.c:482
		UART_BlockPutChars(uartx, pDatFrm, size);
  10108c:	fd442603          	lw	a2,-44(s0)
  101090:	fd842583          	lw	a1,-40(s0)
  101094:	fdc42503          	lw	a0,-36(s0)
  101098:	3e25                	jal	100bd0 <UART_BlockPutChars>
D:\MCU_WorkSpace\IntegrationTest\mcu4in_IT\function_cpus\Drivers\source/hm_uart_hjj.c:483
		while(!(uartx->CSR & UART_CSR_TEMPTY_MASK));
  10109a:	0001                	nop
D:\MCU_WorkSpace\IntegrationTest\mcu4in_IT\function_cpus\Drivers\source/hm_uart_hjj.c:483 (discriminator 1)
  10109c:	fdc42783          	lw	a5,-36(s0)
  1010a0:	57dc                	lw	a5,44(a5)
  1010a2:	8ba1                	andi	a5,a5,8
  1010a4:	dfe5                	beqz	a5,10109c <UART_RS485Send+0xbc>
D:\MCU_WorkSpace\IntegrationTest\mcu4in_IT\function_cpus\Drivers\source/hm_uart_hjj.c:486
}
  1010a6:	0001                	nop
  1010a8:	50b2                	lw	ra,44(sp)
  1010aa:	5422                	lw	s0,40(sp)
  1010ac:	6145                	addi	sp,sp,48
  1010ae:	8082                	ret

001010b0 <UART_RS485SendSlvAddr>:
UART_RS485SendSlvAddr():
D:\MCU_WorkSpace\IntegrationTest\mcu4in_IT\function_cpus\Drivers\source/hm_uart_hjj.c:495
 * @param[in]	UARTx	LPC_UART1 (only)
 * @param[in]	SlvAddr Slave Address.
 * @return		None
 **********************************************************************/
void UART_RS485SendSlvAddr(HM_UART_TypeDef *uartx, uint8_t SlvAddr)
{
  1010b0:	1101                	addi	sp,sp,-32
  1010b2:	ce06                	sw	ra,28(sp)
  1010b4:	cc22                	sw	s0,24(sp)
  1010b6:	1000                	addi	s0,sp,32
  1010b8:	fea42623          	sw	a0,-20(s0)
  1010bc:	87ae                	mv	a5,a1
  1010be:	fef405a3          	sb	a5,-21(s0)
D:\MCU_WorkSpace\IntegrationTest\mcu4in_IT\function_cpus\Drivers\source/hm_uart_hjj.c:496
	UART_RS485Send(uartx, &SlvAddr, 1, 1);
  1010c2:	feb40793          	addi	a5,s0,-21
  1010c6:	4685                	li	a3,1
  1010c8:	4605                	li	a2,1
  1010ca:	85be                	mv	a1,a5
  1010cc:	fec42503          	lw	a0,-20(s0)
  1010d0:	3f01                	jal	100fe0 <UART_RS485Send>
D:\MCU_WorkSpace\IntegrationTest\mcu4in_IT\function_cpus\Drivers\source/hm_uart_hjj.c:497
}
  1010d2:	0001                	nop
  1010d4:	40f2                	lw	ra,28(sp)
  1010d6:	4462                	lw	s0,24(sp)
  1010d8:	6105                	addi	sp,sp,32
  1010da:	8082                	ret
  1010dc:	00000013          	nop

001010e0 <UART_RS485SendData>:
UART_RS485SendData():
D:\MCU_WorkSpace\IntegrationTest\mcu4in_IT\function_cpus\Drivers\source/hm_uart_hjj.c:507
 * @param[in]	pData Pointer to data to be sent.
 * @param[in]	size Size of data frame to be sent.
 * @return		None
 **********************************************************************/
void UART_RS485SendData(HM_UART_TypeDef *uartx, uint8_t *pData, uint32_t size)
{
  1010e0:	1101                	addi	sp,sp,-32
  1010e2:	ce06                	sw	ra,28(sp)
  1010e4:	cc22                	sw	s0,24(sp)
  1010e6:	1000                	addi	s0,sp,32
  1010e8:	fea42623          	sw	a0,-20(s0)
  1010ec:	feb42423          	sw	a1,-24(s0)
  1010f0:	fec42223          	sw	a2,-28(s0)
D:\MCU_WorkSpace\IntegrationTest\mcu4in_IT\function_cpus\Drivers\source/hm_uart_hjj.c:508
	UART_RS485Send(uartx, pData, size, 0);
  1010f4:	4681                	li	a3,0
  1010f6:	fe442603          	lw	a2,-28(s0)
  1010fa:	fe842583          	lw	a1,-24(s0)
  1010fe:	fec42503          	lw	a0,-20(s0)
  101102:	3df9                	jal	100fe0 <UART_RS485Send>
D:\MCU_WorkSpace\IntegrationTest\mcu4in_IT\function_cpus\Drivers\source/hm_uart_hjj.c:509
}
  101104:	0001                	nop
  101106:	40f2                	lw	ra,28(sp)
  101108:	4462                	lw	s0,24(sp)
  10110a:	6105                	addi	sp,sp,32
  10110c:	8082                	ret
	...

00101120 <SRAM_Init>:
SRAM_Init():
D:\MCU_WorkSpace\IntegrationTest\mcu4in_IT\function_cpus\common\src/context.c:4
#include "io_mcu.h"
#include "context.h"

void SRAM_Init(void) {
  101120:	1141                	addi	sp,sp,-16
  101122:	c622                	sw	s0,12(sp)
  101124:	0800                	addi	s0,sp,16
D:\MCU_WorkSpace\IntegrationTest\mcu4in_IT\function_cpus\common\src/context.c:5
  if (RD_RESTORE_FROM_CHECKER == 0) { // the first bootup
  101126:	410007b7          	lui	a5,0x41000
  10112a:	02078793          	addi	a5,a5,32 # 41000020 <__stack+0x20ed4020>
  10112e:	439c                	lw	a5,0(a5)
  101130:	eb89                	bnez	a5,101142 <SRAM_Init+0x22>
D:\MCU_WorkSpace\IntegrationTest\mcu4in_IT\function_cpus\common\src/context.c:6
    LOC_SRAM_OFF = 4;
  101132:	2012c7b7          	lui	a5,0x2012c
  101136:	4711                	li	a4,4
  101138:	c398                	sw	a4,0(a5)
D:\MCU_WorkSpace\IntegrationTest\mcu4in_IT\function_cpus\common\src/context.c:7
    COM_SRAM_OFF = 4;
  10113a:	440007b7          	lui	a5,0x44000
  10113e:	4711                	li	a4,4
  101140:	c398                	sw	a4,0(a5)
D:\MCU_WorkSpace\IntegrationTest\mcu4in_IT\function_cpus\common\src/context.c:9
  }
}
  101142:	0001                	nop
  101144:	4432                	lw	s0,12(sp)
  101146:	0141                	addi	sp,sp,16
  101148:	8082                	ret
  10114a:	00000013          	nop
  10114e:	0001                	nop

00101150 <GetLabelAddr>:
GetLabelAddr():
D:\MCU_WorkSpace\IntegrationTest\mcu4in_IT\function_cpus\common\src/context.c:11

void GetLabelAddr(unsigned int event_id, unsigned** plad){
  101150:	7179                	addi	sp,sp,-48
  101152:	d622                	sw	s0,44(sp)
  101154:	1800                	addi	s0,sp,48
  101156:	fca42e23          	sw	a0,-36(s0)
  10115a:	fcb42c23          	sw	a1,-40(s0)
D:\MCU_WorkSpace\IntegrationTest\mcu4in_IT\function_cpus\common\src/context.c:15
  // unsigned int event_id = OTHER_CPU1_EVENT_INDEX;
  extern char __label_start__[];
  extern char __label_end__[];
  unsigned pair_size = (__label_end__ - __label_start__) >> 3;
  10115e:	001037b7          	lui	a5,0x103
  101162:	40c78713          	addi	a4,a5,1036 # 10340c <__l_s_ram>
  101166:	001037b7          	lui	a5,0x103
  10116a:	3ac78793          	addi	a5,a5,940 # 1033ac <__Labels>
  10116e:	40f707b3          	sub	a5,a4,a5
  101172:	878d                	srai	a5,a5,0x3
  101174:	fef42423          	sw	a5,-24(s0)
D:\MCU_WorkSpace\IntegrationTest\mcu4in_IT\function_cpus\common\src/context.c:16
  if(event_id > pair_size){
  101178:	fdc42703          	lw	a4,-36(s0)
  10117c:	fe842783          	lw	a5,-24(s0)
  101180:	04e7eb63          	bltu	a5,a4,1011d6 <GetLabelAddr+0x86>
D:\MCU_WorkSpace\IntegrationTest\mcu4in_IT\function_cpus\common\src/context.c:20
    return;
  }

  unsigned* target_addr = (unsigned*)__label_start__;
  101184:	001037b7          	lui	a5,0x103
  101188:	3ac78793          	addi	a5,a5,940 # 1033ac <__Labels>
  10118c:	fef42623          	sw	a5,-20(s0)
D:\MCU_WorkSpace\IntegrationTest\mcu4in_IT\function_cpus\common\src/context.c:22
  // target_addr = target_addr + event_id * 2 + 1; // Be carefulevent_id in lst file isn't incremental.
  while(target_addr < (unsigned*)__label_end__) {
  101190:	a01d                	j	1011b6 <GetLabelAddr+0x66>
D:\MCU_WorkSpace\IntegrationTest\mcu4in_IT\function_cpus\common\src/context.c:23
    if(*target_addr == event_id){
  101192:	fec42783          	lw	a5,-20(s0)
  101196:	439c                	lw	a5,0(a5)
  101198:	fdc42703          	lw	a4,-36(s0)
  10119c:	00f71863          	bne	a4,a5,1011ac <GetLabelAddr+0x5c>
D:\MCU_WorkSpace\IntegrationTest\mcu4in_IT\function_cpus\common\src/context.c:24
      target_addr++;
  1011a0:	fec42783          	lw	a5,-20(s0)
  1011a4:	0791                	addi	a5,a5,4
  1011a6:	fef42623          	sw	a5,-20(s0)
D:\MCU_WorkSpace\IntegrationTest\mcu4in_IT\function_cpus\common\src/context.c:25
      break;
  1011aa:	a831                	j	1011c6 <GetLabelAddr+0x76>
D:\MCU_WorkSpace\IntegrationTest\mcu4in_IT\function_cpus\common\src/context.c:27
    }
    target_addr += 2;
  1011ac:	fec42783          	lw	a5,-20(s0)
  1011b0:	07a1                	addi	a5,a5,8
  1011b2:	fef42623          	sw	a5,-20(s0)
D:\MCU_WorkSpace\IntegrationTest\mcu4in_IT\function_cpus\common\src/context.c:22
  while(target_addr < (unsigned*)__label_end__) {
  1011b6:	fec42703          	lw	a4,-20(s0)
  1011ba:	001037b7          	lui	a5,0x103
  1011be:	40c78793          	addi	a5,a5,1036 # 10340c <__l_s_ram>
  1011c2:	fcf768e3          	bltu	a4,a5,101192 <GetLabelAddr+0x42>
D:\MCU_WorkSpace\IntegrationTest\mcu4in_IT\function_cpus\common\src/context.c:29
  }
  *plad = *(volatile unsigned *)target_addr;
  1011c6:	fec42783          	lw	a5,-20(s0)
  1011ca:	439c                	lw	a5,0(a5)
  1011cc:	873e                	mv	a4,a5
  1011ce:	fd842783          	lw	a5,-40(s0)
  1011d2:	c398                	sw	a4,0(a5)
  1011d4:	a011                	j	1011d8 <GetLabelAddr+0x88>
D:\MCU_WorkSpace\IntegrationTest\mcu4in_IT\function_cpus\common\src/context.c:17
    return;
  1011d6:	0001                	nop
D:\MCU_WorkSpace\IntegrationTest\mcu4in_IT\function_cpus\common\src/context.c:30
}
  1011d8:	5432                	lw	s0,44(sp)
  1011da:	6145                	addi	sp,sp,48
  1011dc:	8082                	ret
  1011de:	0001                	nop

001011e0 <pml_com_malloc>:
pml_com_malloc():
D:\MCU_WorkSpace\IntegrationTest\mcu4in_IT\function_cpus\common\src/context.c:32

unsigned pml_com_malloc(int length) {
  1011e0:	7179                	addi	sp,sp,-48
  1011e2:	d622                	sw	s0,44(sp)
  1011e4:	1800                	addi	s0,sp,48
  1011e6:	fca42e23          	sw	a0,-36(s0)
D:\MCU_WorkSpace\IntegrationTest\mcu4in_IT\function_cpus\common\src/context.c:33
  if (COM_SRAM_OFF + length > COM_SRAM_USRE_SIZE){
  1011ea:	440007b7          	lui	a5,0x44000
  1011ee:	4398                	lw	a4,0(a5)
  1011f0:	fdc42783          	lw	a5,-36(s0)
  1011f4:	973e                	add	a4,a4,a5
  1011f6:	67a1                	lui	a5,0x8
  1011f8:	00e7f463          	bgeu	a5,a4,101200 <pml_com_malloc+0x20>
D:\MCU_WorkSpace\IntegrationTest\mcu4in_IT\function_cpus\common\src/context.c:34
    return 0;
  1011fc:	4781                	li	a5,0
  1011fe:	a025                	j	101226 <pml_com_malloc+0x46>
D:\MCU_WorkSpace\IntegrationTest\mcu4in_IT\function_cpus\common\src/context.c:37
  }

  unsigned offset = COM_SRAM_OFF;
  101200:	440007b7          	lui	a5,0x44000
  101204:	439c                	lw	a5,0(a5)
  101206:	fef42623          	sw	a5,-20(s0)
D:\MCU_WorkSpace\IntegrationTest\mcu4in_IT\function_cpus\common\src/context.c:38
  COM_SRAM_OFF += length;
  10120a:	440007b7          	lui	a5,0x44000
  10120e:	4394                	lw	a3,0(a5)
  101210:	fdc42703          	lw	a4,-36(s0)
  101214:	440007b7          	lui	a5,0x44000
  101218:	9736                	add	a4,a4,a3
  10121a:	c398                	sw	a4,0(a5)
D:\MCU_WorkSpace\IntegrationTest\mcu4in_IT\function_cpus\common\src/context.c:40

  return (COM_SRAM_BASEADDR + offset);
  10121c:	fec42703          	lw	a4,-20(s0)
  101220:	440007b7          	lui	a5,0x44000
  101224:	97ba                	add	a5,a5,a4
D:\MCU_WorkSpace\IntegrationTest\mcu4in_IT\function_cpus\common\src/context.c:41
}
  101226:	853e                	mv	a0,a5
  101228:	5432                	lw	s0,44(sp)
  10122a:	6145                	addi	sp,sp,48
  10122c:	8082                	ret
  10122e:	0001                	nop

00101230 <pml_loc_malloc>:
pml_loc_malloc():
D:\MCU_WorkSpace\IntegrationTest\mcu4in_IT\function_cpus\common\src/context.c:43

unsigned pml_loc_malloc(int length) {
  101230:	7179                	addi	sp,sp,-48
  101232:	d622                	sw	s0,44(sp)
  101234:	1800                	addi	s0,sp,48
  101236:	fca42e23          	sw	a0,-36(s0)
D:\MCU_WorkSpace\IntegrationTest\mcu4in_IT\function_cpus\common\src/context.c:44
  if (LOC_SRAM_OFF + length > LOC_SRAM_USRE_SIZE){
  10123a:	2012c7b7          	lui	a5,0x2012c
  10123e:	4398                	lw	a4,0(a5)
  101240:	fdc42783          	lw	a5,-36(s0)
  101244:	973e                	add	a4,a4,a5
  101246:	6785                	lui	a5,0x1
  101248:	00e7f463          	bgeu	a5,a4,101250 <pml_loc_malloc+0x20>
D:\MCU_WorkSpace\IntegrationTest\mcu4in_IT\function_cpus\common\src/context.c:45
    return 0;
  10124c:	4781                	li	a5,0
  10124e:	a025                	j	101276 <pml_loc_malloc+0x46>
D:\MCU_WorkSpace\IntegrationTest\mcu4in_IT\function_cpus\common\src/context.c:48
  }

  unsigned offset = LOC_SRAM_OFF;
  101250:	2012c7b7          	lui	a5,0x2012c
  101254:	439c                	lw	a5,0(a5)
  101256:	fef42623          	sw	a5,-20(s0)
D:\MCU_WorkSpace\IntegrationTest\mcu4in_IT\function_cpus\common\src/context.c:49
  LOC_SRAM_OFF += length;
  10125a:	2012c7b7          	lui	a5,0x2012c
  10125e:	4394                	lw	a3,0(a5)
  101260:	fdc42703          	lw	a4,-36(s0)
  101264:	2012c7b7          	lui	a5,0x2012c
  101268:	9736                	add	a4,a4,a3
  10126a:	c398                	sw	a4,0(a5)
D:\MCU_WorkSpace\IntegrationTest\mcu4in_IT\function_cpus\common\src/context.c:51

  return (LOC_SRAM_BASEADDR + offset);
  10126c:	fec42703          	lw	a4,-20(s0)
  101270:	2012c7b7          	lui	a5,0x2012c
  101274:	97ba                	add	a5,a5,a4
D:\MCU_WorkSpace\IntegrationTest\mcu4in_IT\function_cpus\common\src/context.c:52
}
  101276:	853e                	mv	a0,a5
  101278:	5432                	lw	s0,44(sp)
  10127a:	6145                	addi	sp,sp,48
  10127c:	8082                	ret
  10127e:	0001                	nop

00101280 <pml_save_inc>:
pml_save_inc():
D:\MCU_WorkSpace\IntegrationTest\mcu4in_IT\function_cpus\common\src/context.c:54

void pml_save_inc(unsigned int* src, unsigned int* dest, unsigned int len){
  101280:	7179                	addi	sp,sp,-48
  101282:	d622                	sw	s0,44(sp)
  101284:	1800                	addi	s0,sp,48
  101286:	fca42e23          	sw	a0,-36(s0)
  10128a:	fcb42c23          	sw	a1,-40(s0)
  10128e:	fcc42a23          	sw	a2,-44(s0)
D:\MCU_WorkSpace\IntegrationTest\mcu4in_IT\function_cpus\common\src/context.c:55
  for (unsigned int i = 0; i < len; i++) {
  101292:	fe042623          	sw	zero,-20(s0)
  101296:	a035                	j	1012c2 <pml_save_inc+0x42>
D:\MCU_WorkSpace\IntegrationTest\mcu4in_IT\function_cpus\common\src/context.c:56 (discriminator 3)
    *dest = *src;
  101298:	fdc42783          	lw	a5,-36(s0)
  10129c:	4398                	lw	a4,0(a5)
  10129e:	fd842783          	lw	a5,-40(s0)
  1012a2:	c398                	sw	a4,0(a5)
D:\MCU_WorkSpace\IntegrationTest\mcu4in_IT\function_cpus\common\src/context.c:57 (discriminator 3)
    src++;
  1012a4:	fdc42783          	lw	a5,-36(s0)
  1012a8:	0791                	addi	a5,a5,4
  1012aa:	fcf42e23          	sw	a5,-36(s0)
D:\MCU_WorkSpace\IntegrationTest\mcu4in_IT\function_cpus\common\src/context.c:58 (discriminator 3)
    dest++;
  1012ae:	fd842783          	lw	a5,-40(s0)
  1012b2:	0791                	addi	a5,a5,4
  1012b4:	fcf42c23          	sw	a5,-40(s0)
D:\MCU_WorkSpace\IntegrationTest\mcu4in_IT\function_cpus\common\src/context.c:55 (discriminator 3)
  for (unsigned int i = 0; i < len; i++) {
  1012b8:	fec42783          	lw	a5,-20(s0)
  1012bc:	0785                	addi	a5,a5,1
  1012be:	fef42623          	sw	a5,-20(s0)
D:\MCU_WorkSpace\IntegrationTest\mcu4in_IT\function_cpus\common\src/context.c:55 (discriminator 1)
  1012c2:	fec42703          	lw	a4,-20(s0)
  1012c6:	fd442783          	lw	a5,-44(s0)
  1012ca:	fcf767e3          	bltu	a4,a5,101298 <pml_save_inc+0x18>
D:\MCU_WorkSpace\IntegrationTest\mcu4in_IT\function_cpus\common\src/context.c:60
  }
}
  1012ce:	0001                	nop
  1012d0:	5432                	lw	s0,44(sp)
  1012d2:	6145                	addi	sp,sp,48
  1012d4:	8082                	ret
  1012d6:	00000013          	nop
  1012da:	00000013          	nop
  1012de:	0001                	nop

001012e0 <pml_save_dec>:
pml_save_dec():
D:\MCU_WorkSpace\IntegrationTest\mcu4in_IT\function_cpus\common\src/context.c:62

void pml_save_dec(unsigned int* src, unsigned int* dest, unsigned int len){
  1012e0:	7179                	addi	sp,sp,-48
  1012e2:	d622                	sw	s0,44(sp)
  1012e4:	1800                	addi	s0,sp,48
  1012e6:	fca42e23          	sw	a0,-36(s0)
  1012ea:	fcb42c23          	sw	a1,-40(s0)
  1012ee:	fcc42a23          	sw	a2,-44(s0)
D:\MCU_WorkSpace\IntegrationTest\mcu4in_IT\function_cpus\common\src/context.c:63
  for (unsigned int i = 0; i < len; i++) {
  1012f2:	fe042623          	sw	zero,-20(s0)
  1012f6:	a035                	j	101322 <pml_save_dec+0x42>
D:\MCU_WorkSpace\IntegrationTest\mcu4in_IT\function_cpus\common\src/context.c:64 (discriminator 3)
    *dest = *src;
  1012f8:	fdc42783          	lw	a5,-36(s0)
  1012fc:	4398                	lw	a4,0(a5)
  1012fe:	fd842783          	lw	a5,-40(s0)
  101302:	c398                	sw	a4,0(a5)
D:\MCU_WorkSpace\IntegrationTest\mcu4in_IT\function_cpus\common\src/context.c:65 (discriminator 3)
    src--;
  101304:	fdc42783          	lw	a5,-36(s0)
  101308:	17f1                	addi	a5,a5,-4
  10130a:	fcf42e23          	sw	a5,-36(s0)
D:\MCU_WorkSpace\IntegrationTest\mcu4in_IT\function_cpus\common\src/context.c:66 (discriminator 3)
    dest--;
  10130e:	fd842783          	lw	a5,-40(s0)
  101312:	17f1                	addi	a5,a5,-4
  101314:	fcf42c23          	sw	a5,-40(s0)
D:\MCU_WorkSpace\IntegrationTest\mcu4in_IT\function_cpus\common\src/context.c:63 (discriminator 3)
  for (unsigned int i = 0; i < len; i++) {
  101318:	fec42783          	lw	a5,-20(s0)
  10131c:	0785                	addi	a5,a5,1
  10131e:	fef42623          	sw	a5,-20(s0)
D:\MCU_WorkSpace\IntegrationTest\mcu4in_IT\function_cpus\common\src/context.c:63 (discriminator 1)
  101322:	fec42703          	lw	a4,-20(s0)
  101326:	fd442783          	lw	a5,-44(s0)
  10132a:	fcf767e3          	bltu	a4,a5,1012f8 <pml_save_dec+0x18>
D:\MCU_WorkSpace\IntegrationTest\mcu4in_IT\function_cpus\common\src/context.c:68
  }
}
  10132e:	0001                	nop
  101330:	5432                	lw	s0,44(sp)
  101332:	6145                	addi	sp,sp,48
  101334:	8082                	ret
  101336:	00000013          	nop
  10133a:	00000013          	nop
  10133e:	0001                	nop

00101340 <pml_loc_save>:
pml_loc_save():
D:\MCU_WorkSpace\IntegrationTest\mcu4in_IT\function_cpus\common\src/context.c:70

void pml_loc_save(){
  101340:	1101                	addi	sp,sp,-32
  101342:	ce06                	sw	ra,28(sp)
  101344:	cc22                	sw	s0,24(sp)
  101346:	1000                	addi	s0,sp,32
D:\MCU_WorkSpace\IntegrationTest\mcu4in_IT\function_cpus\common\src/context.c:71
  volatile int* src = LOC_SRAM_BASEADDR;
  101348:	2012c7b7          	lui	a5,0x2012c
  10134c:	fef42623          	sw	a5,-20(s0)
D:\MCU_WorkSpace\IntegrationTest\mcu4in_IT\function_cpus\common\src/context.c:72
  volatile int* dest = LOC_SRAM_BASEADDR + LOC_SRAM_USRE_SIZE;
  101350:	2012d7b7          	lui	a5,0x2012d
  101354:	fef42423          	sw	a5,-24(s0)
D:\MCU_WorkSpace\IntegrationTest\mcu4in_IT\function_cpus\common\src/context.c:73
  unsigned int len = LOC_SRAM_USRE_SIZE >> 2;
  101358:	40000793          	li	a5,1024
  10135c:	fef42223          	sw	a5,-28(s0)
D:\MCU_WorkSpace\IntegrationTest\mcu4in_IT\function_cpus\common\src/context.c:74
  pml_save_inc(src, dest, len);
  101360:	fe442603          	lw	a2,-28(s0)
  101364:	fe842583          	lw	a1,-24(s0)
  101368:	fec42503          	lw	a0,-20(s0)
  10136c:	3f11                	jal	101280 <pml_save_inc>
D:\MCU_WorkSpace\IntegrationTest\mcu4in_IT\function_cpus\common\src/context.c:75
}
  10136e:	0001                	nop
  101370:	40f2                	lw	ra,28(sp)
  101372:	4462                	lw	s0,24(sp)
  101374:	6105                	addi	sp,sp,32
  101376:	8082                	ret
  101378:	00000013          	nop
  10137c:	00000013          	nop

00101380 <pml_loc_restore>:
pml_loc_restore():
D:\MCU_WorkSpace\IntegrationTest\mcu4in_IT\function_cpus\common\src/context.c:77

void pml_loc_restore() {
  101380:	1101                	addi	sp,sp,-32
  101382:	ce06                	sw	ra,28(sp)
  101384:	cc22                	sw	s0,24(sp)
  101386:	1000                	addi	s0,sp,32
D:\MCU_WorkSpace\IntegrationTest\mcu4in_IT\function_cpus\common\src/context.c:78
  volatile int* src = LOC_SRAM_BASEADDR + LOC_SRAM_USRE_SIZE;
  101388:	2012d7b7          	lui	a5,0x2012d
  10138c:	fef42623          	sw	a5,-20(s0)
D:\MCU_WorkSpace\IntegrationTest\mcu4in_IT\function_cpus\common\src/context.c:79
  volatile int* dest = LOC_SRAM_BASEADDR;
  101390:	2012c7b7          	lui	a5,0x2012c
  101394:	fef42423          	sw	a5,-24(s0)
D:\MCU_WorkSpace\IntegrationTest\mcu4in_IT\function_cpus\common\src/context.c:80
  unsigned int len = LOC_SRAM_USRE_SIZE >> 2;
  101398:	40000793          	li	a5,1024
  10139c:	fef42223          	sw	a5,-28(s0)
D:\MCU_WorkSpace\IntegrationTest\mcu4in_IT\function_cpus\common\src/context.c:81
  pml_save_inc(src, dest, len);
  1013a0:	fe442603          	lw	a2,-28(s0)
  1013a4:	fe842583          	lw	a1,-24(s0)
  1013a8:	fec42503          	lw	a0,-20(s0)
  1013ac:	3dd1                	jal	101280 <pml_save_inc>
D:\MCU_WorkSpace\IntegrationTest\mcu4in_IT\function_cpus\common\src/context.c:82
}
  1013ae:	0001                	nop
  1013b0:	40f2                	lw	ra,28(sp)
  1013b2:	4462                	lw	s0,24(sp)
  1013b4:	6105                	addi	sp,sp,32
  1013b6:	8082                	ret
  1013b8:	00000013          	nop
  1013bc:	00000013          	nop

001013c0 <pml_stack_save>:
pml_stack_save():
D:\MCU_WorkSpace\IntegrationTest\mcu4in_IT\function_cpus\common\src/context.c:84

void pml_stack_save() {                                                 
  1013c0:	1101                	addi	sp,sp,-32
  1013c2:	ce06                	sw	ra,28(sp)
  1013c4:	cc22                	sw	s0,24(sp)
  1013c6:	1000                	addi	s0,sp,32
D:\MCU_WorkSpace\IntegrationTest\mcu4in_IT\function_cpus\common\src/context.c:85
  volatile int* src = NULL;                         
  1013c8:	fe042623          	sw	zero,-20(s0)
D:\MCU_WorkSpace\IntegrationTest\mcu4in_IT\function_cpus\common\src/context.c:87
  extern char __stack[];                            
  src = __stack;                                    
  1013cc:	2012c7b7          	lui	a5,0x2012c
  1013d0:	00078793          	mv	a5,a5
  1013d4:	fef42623          	sw	a5,-20(s0)
D:\MCU_WorkSpace\IntegrationTest\mcu4in_IT\function_cpus\common\src/context.c:88
  src = src - 1;                                    
  1013d8:	fec42783          	lw	a5,-20(s0)
  1013dc:	17f1                	addi	a5,a5,-4
  1013de:	fef42623          	sw	a5,-20(s0)
D:\MCU_WorkSpace\IntegrationTest\mcu4in_IT\function_cpus\common\src/context.c:89
  volatile int* dest = STACK_SAVE_SRAM_ADDR;        
  1013e2:	201307b7          	lui	a5,0x20130
  1013e6:	80078793          	addi	a5,a5,-2048 # 2012f800 <__stack+0x3800>
  1013ea:	fef42423          	sw	a5,-24(s0)
D:\MCU_WorkSpace\IntegrationTest\mcu4in_IT\function_cpus\common\src/context.c:90
  dest = dest + (__STACK_SIZE >> 2) - 1;                    
  1013ee:	fe842783          	lw	a5,-24(s0)
  1013f2:	3fc78793          	addi	a5,a5,1020
  1013f6:	fef42423          	sw	a5,-24(s0)
D:\MCU_WorkSpace\IntegrationTest\mcu4in_IT\function_cpus\common\src/context.c:91
  unsigned int len = (unsigned int)__stack - CHK_POINT_SP;
  1013fa:	2012c7b7          	lui	a5,0x2012c
  1013fe:	00078713          	mv	a4,a5
  101402:	2012e7b7          	lui	a5,0x2012e
  101406:	439c                	lw	a5,0(a5)
  101408:	40f707b3          	sub	a5,a4,a5
  10140c:	fef42223          	sw	a5,-28(s0)
D:\MCU_WorkSpace\IntegrationTest\mcu4in_IT\function_cpus\common\src/context.c:92
  unsigned int off = (4 - (len % 4)) % 4;           
  101410:	fe442783          	lw	a5,-28(s0)
  101414:	40f007b3          	neg	a5,a5
  101418:	8b8d                	andi	a5,a5,3
  10141a:	fef42023          	sw	a5,-32(s0)
D:\MCU_WorkSpace\IntegrationTest\mcu4in_IT\function_cpus\common\src/context.c:93
  len = (len + off) >> 2;                           
  10141e:	fe442703          	lw	a4,-28(s0)
  101422:	fe042783          	lw	a5,-32(s0)
  101426:	97ba                	add	a5,a5,a4
  101428:	8389                	srli	a5,a5,0x2
  10142a:	fef42223          	sw	a5,-28(s0)
D:\MCU_WorkSpace\IntegrationTest\mcu4in_IT\function_cpus\common\src/context.c:94
  pml_save_dec(src, dest, len);                     
  10142e:	fe442603          	lw	a2,-28(s0)
  101432:	fe842583          	lw	a1,-24(s0)
  101436:	fec42503          	lw	a0,-20(s0)
  10143a:	355d                	jal	1012e0 <pml_save_dec>
D:\MCU_WorkSpace\IntegrationTest\mcu4in_IT\function_cpus\common\src/context.c:95
}
  10143c:	0001                	nop
  10143e:	40f2                	lw	ra,28(sp)
  101440:	4462                	lw	s0,24(sp)
  101442:	6105                	addi	sp,sp,32
  101444:	8082                	ret
  101446:	00000013          	nop
  10144a:	00000013          	nop
  10144e:	0001                	nop

00101450 <event_delay>:
event_delay():
D:\MCU_WorkSpace\IntegrationTest\mcu4in_IT\function_cpus\common\src/context.c:97

void event_delay() {
  101450:	1141                	addi	sp,sp,-16
  101452:	c622                	sw	s0,12(sp)
  101454:	0800                	addi	s0,sp,16
D:\MCU_WorkSpace\IntegrationTest\mcu4in_IT\function_cpus\common\src/context.c:98
  __asm volatile("nop");
  101456:	0001                	nop
D:\MCU_WorkSpace\IntegrationTest\mcu4in_IT\function_cpus\common\src/context.c:99
  __asm volatile("nop"); 
  101458:	0001                	nop
D:\MCU_WorkSpace\IntegrationTest\mcu4in_IT\function_cpus\common\src/context.c:100
  __asm volatile("nop"); 
  10145a:	0001                	nop
D:\MCU_WorkSpace\IntegrationTest\mcu4in_IT\function_cpus\common\src/context.c:101
  __asm volatile("nop"); 
  10145c:	0001                	nop
D:\MCU_WorkSpace\IntegrationTest\mcu4in_IT\function_cpus\common\src/context.c:102
  __asm volatile("nop"); 
  10145e:	0001                	nop
D:\MCU_WorkSpace\IntegrationTest\mcu4in_IT\function_cpus\common\src/context.c:103
  __asm volatile("nop"); 
  101460:	0001                	nop
D:\MCU_WorkSpace\IntegrationTest\mcu4in_IT\function_cpus\common\src/context.c:104
  __asm volatile("nop"); 
  101462:	0001                	nop
D:\MCU_WorkSpace\IntegrationTest\mcu4in_IT\function_cpus\common\src/context.c:105
  __asm volatile("nop"); 
  101464:	0001                	nop
D:\MCU_WorkSpace\IntegrationTest\mcu4in_IT\function_cpus\common\src/context.c:106
  __asm volatile("nop"); 
  101466:	0001                	nop
D:\MCU_WorkSpace\IntegrationTest\mcu4in_IT\function_cpus\common\src/context.c:107
  __asm volatile("nop"); // 10
  101468:	0001                	nop
D:\MCU_WorkSpace\IntegrationTest\mcu4in_IT\function_cpus\common\src/context.c:108
  __asm volatile("nop");
  10146a:	0001                	nop
D:\MCU_WorkSpace\IntegrationTest\mcu4in_IT\function_cpus\common\src/context.c:109
  __asm volatile("nop"); 
  10146c:	0001                	nop
D:\MCU_WorkSpace\IntegrationTest\mcu4in_IT\function_cpus\common\src/context.c:110
  __asm volatile("nop"); 
  10146e:	0001                	nop
D:\MCU_WorkSpace\IntegrationTest\mcu4in_IT\function_cpus\common\src/context.c:111
  __asm volatile("nop"); 
  101470:	0001                	nop
D:\MCU_WorkSpace\IntegrationTest\mcu4in_IT\function_cpus\common\src/context.c:112
  __asm volatile("nop"); 
  101472:	0001                	nop
D:\MCU_WorkSpace\IntegrationTest\mcu4in_IT\function_cpus\common\src/context.c:113
  __asm volatile("nop"); 
  101474:	0001                	nop
D:\MCU_WorkSpace\IntegrationTest\mcu4in_IT\function_cpus\common\src/context.c:114
  __asm volatile("nop"); 
  101476:	0001                	nop
D:\MCU_WorkSpace\IntegrationTest\mcu4in_IT\function_cpus\common\src/context.c:115
  __asm volatile("nop"); 
  101478:	0001                	nop
D:\MCU_WorkSpace\IntegrationTest\mcu4in_IT\function_cpus\common\src/context.c:116
  __asm volatile("nop"); 
  10147a:	0001                	nop
D:\MCU_WorkSpace\IntegrationTest\mcu4in_IT\function_cpus\common\src/context.c:117
  __asm volatile("nop"); // 20
  10147c:	0001                	nop
D:\MCU_WorkSpace\IntegrationTest\mcu4in_IT\function_cpus\common\src/context.c:118
  __asm volatile("nop");
  10147e:	0001                	nop
D:\MCU_WorkSpace\IntegrationTest\mcu4in_IT\function_cpus\common\src/context.c:119
  __asm volatile("nop"); 
  101480:	0001                	nop
D:\MCU_WorkSpace\IntegrationTest\mcu4in_IT\function_cpus\common\src/context.c:120
  __asm volatile("nop"); 
  101482:	0001                	nop
D:\MCU_WorkSpace\IntegrationTest\mcu4in_IT\function_cpus\common\src/context.c:121
  __asm volatile("nop"); 
  101484:	0001                	nop
D:\MCU_WorkSpace\IntegrationTest\mcu4in_IT\function_cpus\common\src/context.c:122
  __asm volatile("nop"); 
  101486:	0001                	nop
D:\MCU_WorkSpace\IntegrationTest\mcu4in_IT\function_cpus\common\src/context.c:123
  __asm volatile("nop"); 
  101488:	0001                	nop
D:\MCU_WorkSpace\IntegrationTest\mcu4in_IT\function_cpus\common\src/context.c:124
  __asm volatile("nop"); 
  10148a:	0001                	nop
D:\MCU_WorkSpace\IntegrationTest\mcu4in_IT\function_cpus\common\src/context.c:125
  __asm volatile("nop"); 
  10148c:	0001                	nop
D:\MCU_WorkSpace\IntegrationTest\mcu4in_IT\function_cpus\common\src/context.c:126
  __asm volatile("nop"); 
  10148e:	0001                	nop
D:\MCU_WorkSpace\IntegrationTest\mcu4in_IT\function_cpus\common\src/context.c:127
  __asm volatile("nop"); // 30
  101490:	0001                	nop
D:\MCU_WorkSpace\IntegrationTest\mcu4in_IT\function_cpus\common\src/context.c:128
}
  101492:	0001                	nop
  101494:	4432                	lw	s0,12(sp)
  101496:	0141                	addi	sp,sp,16
  101498:	8082                	ret
  10149a:	00000013          	nop
  10149e:	0001                	nop

001014a0 <TellSche>:
TellSche():
D:\MCU_WorkSpace\IntegrationTest\mcu4in_IT\function_cpus\common\src/context.c:130

void TellSche(unsigned k) {
  1014a0:	1101                	addi	sp,sp,-32
  1014a2:	ce06                	sw	ra,28(sp)
  1014a4:	cc22                	sw	s0,24(sp)
  1014a6:	1000                	addi	s0,sp,32
  1014a8:	fea42623          	sw	a0,-20(s0)
D:\MCU_WorkSpace\IntegrationTest\mcu4in_IT\function_cpus\common\src/context.c:131
  *(volatile unsigned *)(TEL_ADDR - 4) = k;
  1014ac:	2012f7b7          	lui	a5,0x2012f
  1014b0:	3fc78793          	addi	a5,a5,1020 # 2012f3fc <__stack+0x33fc>
  1014b4:	fec42703          	lw	a4,-20(s0)
  1014b8:	c398                	sw	a4,0(a5)
D:\MCU_WorkSpace\IntegrationTest\mcu4in_IT\function_cpus\common\src/context.c:132
  while (*(volatile unsigned *)(TEL_ADDR - 8) == 0){
  1014ba:	a019                	j	1014c0 <TellSche+0x20>
D:\MCU_WorkSpace\IntegrationTest\mcu4in_IT\function_cpus\common\src/context.c:133
    Delay(1);
  1014bc:	4505                	li	a0,1
  1014be:	28c9                	jal	101590 <Delay>
D:\MCU_WorkSpace\IntegrationTest\mcu4in_IT\function_cpus\common\src/context.c:132
  while (*(volatile unsigned *)(TEL_ADDR - 8) == 0){
  1014c0:	2012f7b7          	lui	a5,0x2012f
  1014c4:	3f878793          	addi	a5,a5,1016 # 2012f3f8 <__stack+0x33f8>
  1014c8:	439c                	lw	a5,0(a5)
  1014ca:	dbed                	beqz	a5,1014bc <TellSche+0x1c>
D:\MCU_WorkSpace\IntegrationTest\mcu4in_IT\function_cpus\common\src/context.c:135
  }
  *(volatile unsigned *)(TEL_ADDR - 8) = 0; //0: unused
  1014cc:	2012f7b7          	lui	a5,0x2012f
  1014d0:	3f878793          	addi	a5,a5,1016 # 2012f3f8 <__stack+0x33f8>
  1014d4:	0007a023          	sw	zero,0(a5)
D:\MCU_WorkSpace\IntegrationTest\mcu4in_IT\function_cpus\common\src/context.c:136
  Delay(2); // let the other cpus idle
  1014d8:	4509                	li	a0,2
  1014da:	285d                	jal	101590 <Delay>
D:\MCU_WorkSpace\IntegrationTest\mcu4in_IT\function_cpus\common\src/context.c:137
}
  1014dc:	0001                	nop
  1014de:	40f2                	lw	ra,28(sp)
  1014e0:	4462                	lw	s0,24(sp)
  1014e2:	6105                	addi	sp,sp,32
  1014e4:	8082                	ret
  1014e6:	00000013          	nop
  1014ea:	00000013          	nop
  1014ee:	0001                	nop

001014f0 <stack_restore_helper>:
stack_restore_helper():
D:\MCU_WorkSpace\IntegrationTest\mcu4in_IT\function_cpus\common\src/context.c:139

void stack_restore_helper(unsigned int result){
  1014f0:	7179                	addi	sp,sp,-48
  1014f2:	d606                	sw	ra,44(sp)
  1014f4:	d422                	sw	s0,40(sp)
  1014f6:	1800                	addi	s0,sp,48
  1014f8:	fca42e23          	sw	a0,-36(s0)
D:\MCU_WorkSpace\IntegrationTest\mcu4in_IT\function_cpus\common\src/context.c:140
  *(volatile unsigned *)(TEL_ADDR - 40) = result;
  1014fc:	2012f7b7          	lui	a5,0x2012f
  101500:	3d878793          	addi	a5,a5,984 # 2012f3d8 <__stack+0x33d8>
  101504:	fdc42703          	lw	a4,-36(s0)
  101508:	c398                	sw	a4,0(a5)
D:\MCU_WorkSpace\IntegrationTest\mcu4in_IT\function_cpus\common\src/context.c:142
  extern char __stack[];
  unsigned int len = (unsigned int)__stack - result;
  10150a:	2012c7b7          	lui	a5,0x2012c
  10150e:	00078713          	mv	a4,a5
  101512:	fdc42783          	lw	a5,-36(s0)
  101516:	40f707b3          	sub	a5,a4,a5
  10151a:	fef42623          	sw	a5,-20(s0)
D:\MCU_WorkSpace\IntegrationTest\mcu4in_IT\function_cpus\common\src/context.c:144

  volatile int* src = STACK_SAVE_SRAM_ADDR;
  10151e:	201307b7          	lui	a5,0x20130
  101522:	80078793          	addi	a5,a5,-2048 # 2012f800 <__stack+0x3800>
  101526:	fef42423          	sw	a5,-24(s0)
D:\MCU_WorkSpace\IntegrationTest\mcu4in_IT\function_cpus\common\src/context.c:145
  src = src + (__STACK_SIZE >> 2) - 1;
  10152a:	fe842783          	lw	a5,-24(s0)
  10152e:	3fc78793          	addi	a5,a5,1020
  101532:	fef42423          	sw	a5,-24(s0)
D:\MCU_WorkSpace\IntegrationTest\mcu4in_IT\function_cpus\common\src/context.c:147

  volatile int* dest = NULL;
  101536:	fe042223          	sw	zero,-28(s0)
D:\MCU_WorkSpace\IntegrationTest\mcu4in_IT\function_cpus\common\src/context.c:148
  dest = __stack;
  10153a:	2012c7b7          	lui	a5,0x2012c
  10153e:	00078793          	mv	a5,a5
  101542:	fef42223          	sw	a5,-28(s0)
D:\MCU_WorkSpace\IntegrationTest\mcu4in_IT\function_cpus\common\src/context.c:149
  dest = dest - 1;
  101546:	fe442783          	lw	a5,-28(s0)
  10154a:	17f1                	addi	a5,a5,-4
  10154c:	fef42223          	sw	a5,-28(s0)
D:\MCU_WorkSpace\IntegrationTest\mcu4in_IT\function_cpus\common\src/context.c:152

  
  unsigned int off = (4 - (len % 4)) % 4;                   
  101550:	fec42783          	lw	a5,-20(s0)
  101554:	40f007b3          	neg	a5,a5
  101558:	8b8d                	andi	a5,a5,3
  10155a:	fef42023          	sw	a5,-32(s0)
D:\MCU_WorkSpace\IntegrationTest\mcu4in_IT\function_cpus\common\src/context.c:153
  len = (len + off) >> 2;
  10155e:	fec42703          	lw	a4,-20(s0)
  101562:	fe042783          	lw	a5,-32(s0)
  101566:	97ba                	add	a5,a5,a4
  101568:	8389                	srli	a5,a5,0x2
  10156a:	fef42623          	sw	a5,-20(s0)
D:\MCU_WorkSpace\IntegrationTest\mcu4in_IT\function_cpus\common\src/context.c:155

  pml_save_dec(src, dest, len);                               
  10156e:	fec42603          	lw	a2,-20(s0)
  101572:	fe442583          	lw	a1,-28(s0)
  101576:	fe842503          	lw	a0,-24(s0)
  10157a:	339d                	jal	1012e0 <pml_save_dec>
D:\MCU_WorkSpace\IntegrationTest\mcu4in_IT\function_cpus\common\src/context.c:156
}
  10157c:	0001                	nop
  10157e:	50b2                	lw	ra,44(sp)
  101580:	5422                	lw	s0,40(sp)
  101582:	6145                	addi	sp,sp,48
  101584:	8082                	ret
	...

00101590 <Delay>:
Delay():
D:\MCU_WorkSpace\IntegrationTest\mcu4in_IT\function_cpus\common\src/delay.c:3
#include "delay.h"
//////////////////////////////////////////////FPGA
void Delay(volatile unsigned int temp) {
  101590:	7179                	addi	sp,sp,-48
  101592:	d622                	sw	s0,44(sp)
  101594:	1800                	addi	s0,sp,48
  101596:	fca42e23          	sw	a0,-36(s0)
D:\MCU_WorkSpace\IntegrationTest\mcu4in_IT\function_cpus\common\src/delay.c:6
  volatile unsigned int j;
  volatile unsigned int i;
  unsigned int ratio = 0;
  10159a:	fe042623          	sw	zero,-20(s0)
D:\MCU_WorkSpace\IntegrationTest\mcu4in_IT\function_cpus\common\src/delay.c:12
  #ifdef TARGET_MIPS
    ratio = 120;
#elif TARGET_ARM
    ratio = 380; // 3+(3+10*2400+7)*3000+6 = 72030009 = 72M cycle, clock = 100MHz, --> = 0.72s -> real = 1s why
#elif TARGET_RISCV
    ratio = 200;
  10159e:	0c800793          	li	a5,200
  1015a2:	fef42623          	sw	a5,-20(s0)
D:\MCU_WorkSpace\IntegrationTest\mcu4in_IT\function_cpus\common\src/delay.c:16
#endif
  // for (j = 0; j < 3000000; j++) {
  //   for (i = 0; i < temp; i++) {
  for (j = 0; j < 3000; j++) {
  1015a6:	fe042423          	sw	zero,-24(s0)
  1015aa:	a80d                	j	1015dc <Delay+0x4c>
D:\MCU_WorkSpace\IntegrationTest\mcu4in_IT\function_cpus\common\src/delay.c:17
    for (i = 0; i < ratio * temp; i++) {
  1015ac:	fe042223          	sw	zero,-28(s0)
  1015b0:	a039                	j	1015be <Delay+0x2e>
D:\MCU_WorkSpace\IntegrationTest\mcu4in_IT\function_cpus\common\src/delay.c:18 (discriminator 3)
      __asm volatile("nop");
  1015b2:	0001                	nop
D:\MCU_WorkSpace\IntegrationTest\mcu4in_IT\function_cpus\common\src/delay.c:17 (discriminator 3)
    for (i = 0; i < ratio * temp; i++) {
  1015b4:	fe442783          	lw	a5,-28(s0)
  1015b8:	0785                	addi	a5,a5,1
  1015ba:	fef42223          	sw	a5,-28(s0)
D:\MCU_WorkSpace\IntegrationTest\mcu4in_IT\function_cpus\common\src/delay.c:17 (discriminator 1)
  1015be:	fdc42703          	lw	a4,-36(s0)
  1015c2:	fec42783          	lw	a5,-20(s0)
  1015c6:	02f70733          	mul	a4,a4,a5
  1015ca:	fe442783          	lw	a5,-28(s0)
  1015ce:	fee7e2e3          	bltu	a5,a4,1015b2 <Delay+0x22>
D:\MCU_WorkSpace\IntegrationTest\mcu4in_IT\function_cpus\common\src/delay.c:16 (discriminator 2)
  for (j = 0; j < 3000; j++) {
  1015d2:	fe842783          	lw	a5,-24(s0)
  1015d6:	0785                	addi	a5,a5,1
  1015d8:	fef42423          	sw	a5,-24(s0)
D:\MCU_WorkSpace\IntegrationTest\mcu4in_IT\function_cpus\common\src/delay.c:16 (discriminator 1)
  1015dc:	fe842703          	lw	a4,-24(s0)
  1015e0:	6785                	lui	a5,0x1
  1015e2:	bb778793          	addi	a5,a5,-1097 # bb7 <Reset_Handler-0xff449>
  1015e6:	fce7f3e3          	bgeu	a5,a4,1015ac <Delay+0x1c>
D:\MCU_WorkSpace\IntegrationTest\mcu4in_IT\function_cpus\common\src/delay.c:21
    }
  }
}
  1015ea:	0001                	nop
  1015ec:	5432                	lw	s0,44(sp)
  1015ee:	6145                	addi	sp,sp,48
  1015f0:	8082                	ret
	...

00101600 <Resource_Init>:
Resource_Init():
D:\MCU_WorkSpace\IntegrationTest\mcu4in_IT\function_cpus\common\src/driver_common.c:3
#include "driver_common.h"
#include "delay.h"
void Resource_Init(void) {
  101600:	1141                	addi	sp,sp,-16
  101602:	c606                	sw	ra,12(sp)
  101604:	c422                	sw	s0,8(sp)
  101606:	0800                	addi	s0,sp,16
D:\MCU_WorkSpace\IntegrationTest\mcu4in_IT\function_cpus\common\src/driver_common.c:4
    if (RD_RESTORE_FROM_CHECKER == 0) {
  101608:	410007b7          	lui	a5,0x41000
  10160c:	02078793          	addi	a5,a5,32 # 41000020 <__stack+0x20ed4020>
  101610:	439c                	lw	a5,0(a5)
  101612:	ef91                	bnez	a5,10162e <Resource_Init+0x2e>
D:\MCU_WorkSpace\IntegrationTest\mcu4in_IT\function_cpus\common\src/driver_common.c:5
        BOOT_FINISH_FLAG = 1;
  101614:	410007b7          	lui	a5,0x41000
  101618:	06478793          	addi	a5,a5,100 # 41000064 <__stack+0x20ed4064>
  10161c:	4705                	li	a4,1
  10161e:	c398                	sw	a4,0(a5)
D:\MCU_WorkSpace\IntegrationTest\mcu4in_IT\function_cpus\common\src/driver_common.c:6
        while(START_APP_RESPONSE == 0){;}
  101620:	0001                	nop
D:\MCU_WorkSpace\IntegrationTest\mcu4in_IT\function_cpus\common\src/driver_common.c:6 (discriminator 1)
  101622:	410007b7          	lui	a5,0x41000
  101626:	06878793          	addi	a5,a5,104 # 41000068 <__stack+0x20ed4068>
  10162a:	439c                	lw	a5,0(a5)
  10162c:	dbfd                	beqz	a5,101622 <Resource_Init+0x22>
D:\MCU_WorkSpace\IntegrationTest\mcu4in_IT\function_cpus\common\src/driver_common.c:10
    }
    // Delay(5);

    Driver_Init();
  10162e:	2809                	jal	101640 <Driver_Init>
D:\MCU_WorkSpace\IntegrationTest\mcu4in_IT\function_cpus\common\src/driver_common.c:11
    IRQ_Init();
  101630:	2a45                	jal	1017e0 <IRQ_Init>
D:\MCU_WorkSpace\IntegrationTest\mcu4in_IT\function_cpus\common\src/driver_common.c:12
    SRAM_Init();
  101632:	34fd                	jal	101120 <SRAM_Init>
D:\MCU_WorkSpace\IntegrationTest\mcu4in_IT\function_cpus\common\src/driver_common.c:17
    // FIXME wait hardware solve it
#ifdef TARGET_MIPS
    main();
#endif
}
  101634:	0001                	nop
  101636:	40b2                	lw	ra,12(sp)
  101638:	4422                	lw	s0,8(sp)
  10163a:	0141                	addi	sp,sp,16
  10163c:	8082                	ret
  10163e:	0001                	nop

00101640 <Driver_Init>:
Driver_Init():
D:\MCU_WorkSpace\IntegrationTest\mcu4in_IT\function_cpus\common\src/driver_common.c:19

void Driver_Init(void){
  101640:	1141                	addi	sp,sp,-16
  101642:	c606                	sw	ra,12(sp)
  101644:	c422                	sw	s0,8(sp)
  101646:	0800                	addi	s0,sp,16
D:\MCU_WorkSpace\IntegrationTest\mcu4in_IT\function_cpus\common\src/driver_common.c:20
	if (RD_RESTORE_FROM_CHECKER == 0) {
  101648:	410007b7          	lui	a5,0x41000
  10164c:	02078793          	addi	a5,a5,32 # 41000020 <__stack+0x20ed4020>
  101650:	439c                	lw	a5,0(a5)
  101652:	e391                	bnez	a5,101656 <Driver_Init+0x16>
D:\MCU_WorkSpace\IntegrationTest\mcu4in_IT\function_cpus\common\src/driver_common.c:21
		uart_stdout_init();
  101654:	24f5                	jal	101940 <uart_stdout_init>
D:\MCU_WorkSpace\IntegrationTest\mcu4in_IT\function_cpus\common\src/driver_common.c:23
	}
  101656:	0001                	nop
  101658:	40b2                	lw	ra,12(sp)
  10165a:	4422                	lw	s0,8(sp)
  10165c:	0141                	addi	sp,sp,16
  10165e:	8082                	ret
	...

00101670 <save_context_handler>:
save_context_handler():
D:\MCU_WorkSpace\IntegrationTest\mcu4in_IT\function_cpus\common\src/irq.c:5
#include "plic.h"
#include "io_mcu.h"
#include "uart_stdout.h"

void save_context_handler() {
  101670:	1141                	addi	sp,sp,-16
  101672:	c606                	sw	ra,12(sp)
  101674:	c422                	sw	s0,8(sp)
  101676:	0800                	addi	s0,sp,16
D:\MCU_WorkSpace\IntegrationTest\mcu4in_IT\function_cpus\common\src/irq.c:6
  INT_CLR_EN = 0;
  101678:	410007b7          	lui	a5,0x41000
  10167c:	07c1                	addi	a5,a5,16
  10167e:	0007a023          	sw	zero,0(a5) # 41000000 <__stack+0x20ed4000>
D:\MCU_WorkSpace\IntegrationTest\mcu4in_IT\function_cpus\common\src/irq.c:8
  // uart_printf("\r\nsave context......");
  pml_stack_save();
  101682:	3b3d                	jal	1013c0 <pml_stack_save>
D:\MCU_WorkSpace\IntegrationTest\mcu4in_IT\function_cpus\common\src/irq.c:9
  pml_loc_save();
  101684:	3975                	jal	101340 <pml_loc_save>
D:\MCU_WorkSpace\IntegrationTest\mcu4in_IT\function_cpus\common\src/irq.c:11
  // uart_printf("end.\r\n");
  SAVE_CONTEXT_FINISH = 1;
  101686:	410007b7          	lui	a5,0x41000
  10168a:	07d1                	addi	a5,a5,20
  10168c:	4705                	li	a4,1
  10168e:	c398                	sw	a4,0(a5)
D:\MCU_WorkSpace\IntegrationTest\mcu4in_IT\function_cpus\common\src/irq.c:12
}
  101690:	0001                	nop
  101692:	40b2                	lw	ra,12(sp)
  101694:	4422                	lw	s0,8(sp)
  101696:	0141                	addi	sp,sp,16
  101698:	8082                	ret
  10169a:	00000013          	nop
  10169e:	0001                	nop

001016a0 <user_handle_helper>:
user_handle_helper():
D:\MCU_WorkSpace\IntegrationTest\mcu4in_IT\function_cpus\common\src/irq.c:16

// ################### vector-mode interrupt ###################
static int k = 0;
void user_handle_helper(unsigned int id) {
  1016a0:	7179                	addi	sp,sp,-48
  1016a2:	d606                	sw	ra,44(sp)
  1016a4:	d422                	sw	s0,40(sp)
  1016a6:	1800                	addi	s0,sp,48
  1016a8:	fca42e23          	sw	a0,-36(s0)
D:\MCU_WorkSpace\IntegrationTest\mcu4in_IT\function_cpus\common\src/irq.c:17
  unsigned int addr = USER_INT_CLR_ADDR + (id - 1) * USER_INT_CLR_STEP;
  1016ac:	fdc42703          	lw	a4,-36(s0)
  1016b0:	100007b7          	lui	a5,0x10000
  1016b4:	03f78793          	addi	a5,a5,63 # 1000003f <__l_s_ram+0xfefcc33>
  1016b8:	97ba                	add	a5,a5,a4
  1016ba:	078a                	slli	a5,a5,0x2
  1016bc:	fef42623          	sw	a5,-20(s0)
D:\MCU_WorkSpace\IntegrationTest\mcu4in_IT\function_cpus\common\src/irq.c:18
  *(unsigned int *)(addr) = 0x00;
  1016c0:	fec42783          	lw	a5,-20(s0)
  1016c4:	0007a023          	sw	zero,0(a5)
D:\MCU_WorkSpace\IntegrationTest\mcu4in_IT\function_cpus\common\src/irq.c:20
  
  uart_printf("[user%u_handle]\n", id);
  1016c8:	fdc42583          	lw	a1,-36(s0)
  1016cc:	001037b7          	lui	a5,0x103
  1016d0:	fc478513          	addi	a0,a5,-60 # 102fc4 <uart_cfg_20M+0x9c>
  1016d4:	26b1                	jal	101a20 <uart_printf>
D:\MCU_WorkSpace\IntegrationTest\mcu4in_IT\function_cpus\common\src/irq.c:21
  k++;
  1016d6:	201217b7          	lui	a5,0x20121
  1016da:	8907a783          	lw	a5,-1904(a5) # 20120890 <__e_ram_data_1>
  1016de:	00178713          	addi	a4,a5,1
  1016e2:	201217b7          	lui	a5,0x20121
  1016e6:	88e7a823          	sw	a4,-1904(a5) # 20120890 <__e_ram_data_1>
D:\MCU_WorkSpace\IntegrationTest\mcu4in_IT\function_cpus\common\src/irq.c:22
}
  1016ea:	0001                	nop
  1016ec:	50b2                	lw	ra,44(sp)
  1016ee:	5422                	lw	s0,40(sp)
  1016f0:	6145                	addi	sp,sp,48
  1016f2:	8082                	ret
  1016f4:	00000013          	nop
  1016f8:	00000013          	nop
  1016fc:	00000013          	nop

00101700 <user0_handler>:
user0_handler():
D:\MCU_WorkSpace\IntegrationTest\mcu4in_IT\function_cpus\common\src/irq.c:24

void user0_handler(void) { user_handle_helper(1); }
  101700:	1141                	addi	sp,sp,-16
  101702:	c606                	sw	ra,12(sp)
  101704:	c422                	sw	s0,8(sp)
  101706:	0800                	addi	s0,sp,16
  101708:	4505                	li	a0,1
  10170a:	3f59                	jal	1016a0 <user_handle_helper>
  10170c:	0001                	nop
  10170e:	40b2                	lw	ra,12(sp)
  101710:	4422                	lw	s0,8(sp)
  101712:	0141                	addi	sp,sp,16
  101714:	8082                	ret
  101716:	00000013          	nop
  10171a:	00000013          	nop
  10171e:	0001                	nop

00101720 <user1_handler>:
user1_handler():
D:\MCU_WorkSpace\IntegrationTest\mcu4in_IT\function_cpus\common\src/irq.c:25
void user1_handler(void) { user_handle_helper(2); }
  101720:	1141                	addi	sp,sp,-16
  101722:	c606                	sw	ra,12(sp)
  101724:	c422                	sw	s0,8(sp)
  101726:	0800                	addi	s0,sp,16
  101728:	4509                	li	a0,2
  10172a:	3f9d                	jal	1016a0 <user_handle_helper>
  10172c:	0001                	nop
  10172e:	40b2                	lw	ra,12(sp)
  101730:	4422                	lw	s0,8(sp)
  101732:	0141                	addi	sp,sp,16
  101734:	8082                	ret
  101736:	00000013          	nop
  10173a:	00000013          	nop
  10173e:	0001                	nop

00101740 <user2_handler>:
user2_handler():
D:\MCU_WorkSpace\IntegrationTest\mcu4in_IT\function_cpus\common\src/irq.c:26
void user2_handler(void) { user_handle_helper(3); }
  101740:	1141                	addi	sp,sp,-16
  101742:	c606                	sw	ra,12(sp)
  101744:	c422                	sw	s0,8(sp)
  101746:	0800                	addi	s0,sp,16
  101748:	450d                	li	a0,3
  10174a:	3f99                	jal	1016a0 <user_handle_helper>
  10174c:	0001                	nop
  10174e:	40b2                	lw	ra,12(sp)
  101750:	4422                	lw	s0,8(sp)
  101752:	0141                	addi	sp,sp,16
  101754:	8082                	ret
  101756:	00000013          	nop
  10175a:	00000013          	nop
  10175e:	0001                	nop

00101760 <user3_handler>:
user3_handler():
D:\MCU_WorkSpace\IntegrationTest\mcu4in_IT\function_cpus\common\src/irq.c:27
void user3_handler(void) { user_handle_helper(4); }
  101760:	1141                	addi	sp,sp,-16
  101762:	c606                	sw	ra,12(sp)
  101764:	c422                	sw	s0,8(sp)
  101766:	0800                	addi	s0,sp,16
  101768:	4511                	li	a0,4
  10176a:	3f1d                	jal	1016a0 <user_handle_helper>
  10176c:	0001                	nop
  10176e:	40b2                	lw	ra,12(sp)
  101770:	4422                	lw	s0,8(sp)
  101772:	0141                	addi	sp,sp,16
  101774:	8082                	ret
  101776:	00000013          	nop
  10177a:	00000013          	nop
  10177e:	0001                	nop

00101780 <user4_handler>:
user4_handler():
D:\MCU_WorkSpace\IntegrationTest\mcu4in_IT\function_cpus\common\src/irq.c:28
void user4_handler(void) { user_handle_helper(5); }
  101780:	1141                	addi	sp,sp,-16
  101782:	c606                	sw	ra,12(sp)
  101784:	c422                	sw	s0,8(sp)
  101786:	0800                	addi	s0,sp,16
  101788:	4515                	li	a0,5
  10178a:	3f19                	jal	1016a0 <user_handle_helper>
  10178c:	0001                	nop
  10178e:	40b2                	lw	ra,12(sp)
  101790:	4422                	lw	s0,8(sp)
  101792:	0141                	addi	sp,sp,16
  101794:	8082                	ret
  101796:	00000013          	nop
  10179a:	00000013          	nop
  10179e:	0001                	nop
user5_handler():
D:\MCU_WorkSpace\IntegrationTest\mcu4in_IT\function_cpus\common\src/irq.c:29
__attribute__((weak)) void user5_handler(void) { user_handle_helper(6); }
  1017a0:	1141                	addi	sp,sp,-16
  1017a2:	c606                	sw	ra,12(sp)
  1017a4:	c422                	sw	s0,8(sp)
  1017a6:	0800                	addi	s0,sp,16
  1017a8:	4519                	li	a0,6
  1017aa:	3ddd                	jal	1016a0 <user_handle_helper>
  1017ac:	0001                	nop
  1017ae:	40b2                	lw	ra,12(sp)
  1017b0:	4422                	lw	s0,8(sp)
  1017b2:	0141                	addi	sp,sp,16
  1017b4:	8082                	ret
user4_handler():
D:\MCU_WorkSpace\IntegrationTest\mcu4in_IT\function_cpus\common\src/irq.c:29
  1017b6:	00000013          	nop
  1017ba:	00000013          	nop
  1017be:	0001                	nop

001017c0 <user6_handler>:
user6_handler():
D:\MCU_WorkSpace\IntegrationTest\mcu4in_IT\function_cpus\common\src/irq.c:30
__attribute__((weak)) void user6_handler(void) { user_handle_helper(7); }
  1017c0:	1141                	addi	sp,sp,-16
  1017c2:	c606                	sw	ra,12(sp)
  1017c4:	c422                	sw	s0,8(sp)
  1017c6:	0800                	addi	s0,sp,16
  1017c8:	451d                	li	a0,7
  1017ca:	3dd9                	jal	1016a0 <user_handle_helper>
  1017cc:	0001                	nop
  1017ce:	40b2                	lw	ra,12(sp)
  1017d0:	4422                	lw	s0,8(sp)
  1017d2:	0141                	addi	sp,sp,16
  1017d4:	8082                	ret
  1017d6:	00000013          	nop
  1017da:	00000013          	nop
  1017de:	0001                	nop

001017e0 <IRQ_Init>:
IRQ_Init():
D:\MCU_WorkSpace\IntegrationTest\mcu4in_IT\function_cpus\common\src/irq.c:32

void IRQ_Init(void) {
  1017e0:	1101                	addi	sp,sp,-32
  1017e2:	ce06                	sw	ra,28(sp)
  1017e4:	cc22                	sw	s0,24(sp)
  1017e6:	1000                	addi	s0,sp,32
rv_enable_irq():
d:\mcu_workspace\integrationtest\mcu4in_it\function_cpus\riscv\include/plic_base.h:38
                     : "memory");                               \
    })

__STATIC_FORCEINLINE void rv_enable_irq(void)
{
    __RV_CSR_SET(CSR_MSTATUS, MSTATUS_MIE);
  1017e8:	40a1                	li	ra,8
  1017ea:	3000a073          	csrs	mstatus,ra
IRQ_Init():
D:\MCU_WorkSpace\IntegrationTest\mcu4in_IT\function_cpus\common\src/irq.c:47
  NVIC_SetPriority(PLIC_IRQ1, 0x7);
  NVIC_EnableIRQ(SAVE_CONTEXT_IRQ0);
  NVIC_EnableIRQ(PLIC_IRQ1);
#elif TARGET_RISCV
  rv_enable_irq();
  update_cliccfg();
  1017ee:	fc3fe0ef          	jal	ra,1007b0 <update_cliccfg>
D:\MCU_WorkSpace\IntegrationTest\mcu4in_IT\function_cpus\common\src/irq.c:48
  for (int i = 0; i < __CORE_INT_NUM; i++) {
  1017f2:	fe042623          	sw	zero,-20(s0)
  1017f6:	a811                	j	10180a <IRQ_Init+0x2a>
D:\MCU_WorkSpace\IntegrationTest\mcu4in_IT\function_cpus\common\src/irq.c:49 (discriminator 3)
    enable_irq(i);
  1017f8:	fec42503          	lw	a0,-20(s0)
  1017fc:	fe5fe0ef          	jal	ra,1007e0 <enable_irq>
D:\MCU_WorkSpace\IntegrationTest\mcu4in_IT\function_cpus\common\src/irq.c:48 (discriminator 3)
  for (int i = 0; i < __CORE_INT_NUM; i++) {
  101800:	fec42783          	lw	a5,-20(s0)
  101804:	0785                	addi	a5,a5,1
  101806:	fef42623          	sw	a5,-20(s0)
D:\MCU_WorkSpace\IntegrationTest\mcu4in_IT\function_cpus\common\src/irq.c:48 (discriminator 1)
  10180a:	fec42703          	lw	a4,-20(s0)
  10180e:	4785                	li	a5,1
  101810:	fee7d4e3          	bge	a5,a4,1017f8 <IRQ_Init+0x18>
D:\MCU_WorkSpace\IntegrationTest\mcu4in_IT\function_cpus\common\src/irq.c:53
  }
#endif

  PLIC_Init(__PLIC_INTNUM);
  101814:	04000513          	li	a0,64
  101818:	5a8010ef          	jal	ra,102dc0 <PLIC_Init>
D:\MCU_WorkSpace\IntegrationTest\mcu4in_IT\function_cpus\common\src/irq.c:54
  PLIC_Register_IRQ(PLIC_USER0_IRQn, 1, user0_handler);
  10181c:	001017b7          	lui	a5,0x101
  101820:	70078613          	addi	a2,a5,1792 # 101700 <user0_handler>
  101824:	4585                	li	a1,1
  101826:	4505                	li	a0,1
  101828:	438010ef          	jal	ra,102c60 <PLIC_Register_IRQ>
D:\MCU_WorkSpace\IntegrationTest\mcu4in_IT\function_cpus\common\src/irq.c:55
  PLIC_Register_IRQ(PLIC_USER1_IRQn, 1, user1_handler);
  10182c:	001017b7          	lui	a5,0x101
  101830:	72078613          	addi	a2,a5,1824 # 101720 <user1_handler>
  101834:	4585                	li	a1,1
  101836:	4509                	li	a0,2
  101838:	428010ef          	jal	ra,102c60 <PLIC_Register_IRQ>
D:\MCU_WorkSpace\IntegrationTest\mcu4in_IT\function_cpus\common\src/irq.c:56
  PLIC_Register_IRQ(PLIC_USER2_IRQn, 1, user2_handler);
  10183c:	001017b7          	lui	a5,0x101
  101840:	74078613          	addi	a2,a5,1856 # 101740 <user2_handler>
  101844:	4585                	li	a1,1
  101846:	450d                	li	a0,3
  101848:	418010ef          	jal	ra,102c60 <PLIC_Register_IRQ>
D:\MCU_WorkSpace\IntegrationTest\mcu4in_IT\function_cpus\common\src/irq.c:57
  PLIC_Register_IRQ(PLIC_USER3_IRQn, 1, user3_handler);
  10184c:	001017b7          	lui	a5,0x101
  101850:	76078613          	addi	a2,a5,1888 # 101760 <user3_handler>
  101854:	4585                	li	a1,1
  101856:	4511                	li	a0,4
  101858:	408010ef          	jal	ra,102c60 <PLIC_Register_IRQ>
D:\MCU_WorkSpace\IntegrationTest\mcu4in_IT\function_cpus\common\src/irq.c:58
  PLIC_Register_IRQ(PLIC_USER4_IRQn, 1, user4_handler);
  10185c:	001017b7          	lui	a5,0x101
  101860:	78078613          	addi	a2,a5,1920 # 101780 <user4_handler>
  101864:	4585                	li	a1,1
  101866:	4515                	li	a0,5
  101868:	3f8010ef          	jal	ra,102c60 <PLIC_Register_IRQ>
D:\MCU_WorkSpace\IntegrationTest\mcu4in_IT\function_cpus\common\src/irq.c:59
  PLIC_Register_IRQ(PLIC_USER5_IRQn, 2, user5_handler);
  10186c:	001027b7          	lui	a5,0x102
  101870:	7a078613          	addi	a2,a5,1952 # 1027a0 <user5_handler>
  101874:	4589                	li	a1,2
  101876:	4519                	li	a0,6
  101878:	3e8010ef          	jal	ra,102c60 <PLIC_Register_IRQ>
D:\MCU_WorkSpace\IntegrationTest\mcu4in_IT\function_cpus\common\src/irq.c:60
  PLIC_Register_IRQ(PLIC_USER6_IRQn, 3, user6_handler); // A larger number indicates a higher priority
  10187c:	001017b7          	lui	a5,0x101
  101880:	7c078613          	addi	a2,a5,1984 # 1017c0 <user6_handler>
  101884:	458d                	li	a1,3
  101886:	451d                	li	a0,7
  101888:	3d8010ef          	jal	ra,102c60 <PLIC_Register_IRQ>
D:\MCU_WorkSpace\IntegrationTest\mcu4in_IT\function_cpus\common\src/irq.c:61
}
  10188c:	0001                	nop
  10188e:	40f2                	lw	ra,28(sp)
  101890:	4462                	lw	s0,24(sp)
  101892:	6105                	addi	sp,sp,32
  101894:	8082                	ret
  101896:	00000013          	nop
  10189a:	00000013          	nop
  10189e:	0001                	nop

001018a0 <general_handle_trap>:
general_handle_trap():
D:\MCU_WorkSpace\IntegrationTest\mcu4in_IT\function_cpus\common\src/irq.c:121
  *time_s = temp / ratio;
  *time_ms = (temp - ratio * (*time_s)) * 1000 / ratio;
  *time_us = (temp - ratio * (*time_s) - ratio * (*time_ms) / 1000) * 1000000 / ratio;
}
#elif TARGET_RISCV
void general_handle_trap(unsigned int cause, unsigned int epc, unsigned int regs[32]) {
  1018a0:	7179                	addi	sp,sp,-48
  1018a2:	d606                	sw	ra,44(sp)
  1018a4:	d422                	sw	s0,40(sp)
  1018a6:	1800                	addi	s0,sp,48
  1018a8:	fca42e23          	sw	a0,-36(s0)
  1018ac:	fcb42c23          	sw	a1,-40(s0)
  1018b0:	fcc42a23          	sw	a2,-44(s0)
D:\MCU_WorkSpace\IntegrationTest\mcu4in_IT\function_cpus\common\src/irq.c:122
  if (cause >> 31 == 0) {
  1018b4:	fdc42783          	lw	a5,-36(s0)
  1018b8:	0207c263          	bltz	a5,1018dc <general_handle_trap+0x3c>
D:\MCU_WorkSpace\IntegrationTest\mcu4in_IT\function_cpus\common\src/irq.c:123
    PERROR("RISCV exception happended, cause = %x, epc = %x. Dead loop...\n", cause, epc);
  1018bc:	fd842703          	lw	a4,-40(s0)
  1018c0:	fdc42683          	lw	a3,-36(s0)
  1018c4:	07b00613          	li	a2,123
  1018c8:	001037b7          	lui	a5,0x103
  1018cc:	fd878593          	addi	a1,a5,-40 # 102fd8 <uart_cfg_20M+0xb0>
  1018d0:	001037b7          	lui	a5,0x103
  1018d4:	02478513          	addi	a0,a5,36 # 103024 <uart_cfg_20M+0xfc>
  1018d8:	22a1                	jal	101a20 <uart_printf>
D:\MCU_WorkSpace\IntegrationTest\mcu4in_IT\function_cpus\common\src/irq.c:124 (discriminator 1)
    while (1)
  1018da:	a001                	j	1018da <general_handle_trap+0x3a>
D:\MCU_WorkSpace\IntegrationTest\mcu4in_IT\function_cpus\common\src/irq.c:130
    {
      ;
    }
  }

  unsigned int id = cause & (0x00000FFF) - 16;
  1018dc:	fdc42703          	lw	a4,-36(s0)
  1018e0:	6785                	lui	a5,0x1
  1018e2:	17bd                	addi	a5,a5,-17
  1018e4:	8ff9                	and	a5,a5,a4
  1018e6:	fef42623          	sw	a5,-20(s0)
D:\MCU_WorkSpace\IntegrationTest\mcu4in_IT\function_cpus\common\src/irq.c:131
  if (id == 0) {
  1018ea:	fec42783          	lw	a5,-20(s0)
  1018ee:	e399                	bnez	a5,1018f4 <general_handle_trap+0x54>
D:\MCU_WorkSpace\IntegrationTest\mcu4in_IT\function_cpus\common\src/irq.c:132
    save_context_handler();
  1018f0:	3341                	jal	101670 <save_context_handler>
D:\MCU_WorkSpace\IntegrationTest\mcu4in_IT\function_cpus\common\src/irq.c:142
    while (1)
    {
      ;
    }
  }
}
  1018f2:	a81d                	j	101928 <general_handle_trap+0x88>
D:\MCU_WorkSpace\IntegrationTest\mcu4in_IT\function_cpus\common\src/irq.c:133
  } else if (id == 1) {
  1018f4:	fec42703          	lw	a4,-20(s0)
  1018f8:	4785                	li	a5,1
  1018fa:	00f71563          	bne	a4,a5,101904 <general_handle_trap+0x64>
D:\MCU_WorkSpace\IntegrationTest\mcu4in_IT\function_cpus\common\src/irq.c:134
    plic_handler();
  1018fe:	1c2010ef          	jal	ra,102ac0 <plic_handler>
D:\MCU_WorkSpace\IntegrationTest\mcu4in_IT\function_cpus\common\src/irq.c:142
}
  101902:	a01d                	j	101928 <general_handle_trap+0x88>
D:\MCU_WorkSpace\IntegrationTest\mcu4in_IT\function_cpus\common\src/irq.c:136
    PERROR("RISCV interrupt id illegal, cause = %x, epc = %x, id = %u. Dead loop...\n", cause, epc, id);
  101904:	fec42783          	lw	a5,-20(s0)
  101908:	fd842703          	lw	a4,-40(s0)
  10190c:	fdc42683          	lw	a3,-36(s0)
  101910:	08800613          	li	a2,136
  101914:	001035b7          	lui	a1,0x103
  101918:	fd858593          	addi	a1,a1,-40 # 102fd8 <uart_cfg_20M+0xb0>
  10191c:	00103537          	lui	a0,0x103
  101920:	07850513          	addi	a0,a0,120 # 103078 <uart_cfg_20M+0x150>
  101924:	28f5                	jal	101a20 <uart_printf>
D:\MCU_WorkSpace\IntegrationTest\mcu4in_IT\function_cpus\common\src/irq.c:137 (discriminator 2)
    while (1)
  101926:	a001                	j	101926 <general_handle_trap+0x86>
D:\MCU_WorkSpace\IntegrationTest\mcu4in_IT\function_cpus\common\src/irq.c:142
}
  101928:	50b2                	lw	ra,44(sp)
  10192a:	5422                	lw	s0,40(sp)
  10192c:	6145                	addi	sp,sp,48
  10192e:	8082                	ret
	...

00101940 <uart_stdout_init>:
uart_stdout_init():
D:\MCU_WorkSpace\IntegrationTest\mcu4in_IT\function_cpus\common\src/uart_stdout.c:10
#define UART0_TX_PIN				(0)
#define UART0_RX_PORT				(0)
#define UART0_RX_PIN				(1)

void uart_stdout_init(void)
{    
  101940:	1101                	addi	sp,sp,-32
  101942:	ce06                	sw	ra,28(sp)
  101944:	cc22                	sw	s0,24(sp)
  101946:	1000                	addi	s0,sp,32
D:\MCU_WorkSpace\IntegrationTest\mcu4in_IT\function_cpus\common\src/uart_stdout.c:11
	UART_InitTypeDef uart_init_cfg = {
  101948:	001037b7          	lui	a5,0x103
  10194c:	0d47a603          	lw	a2,212(a5) # 1030d4 <uart_cfg_20M+0x1ac>
  101950:	0d478713          	addi	a4,a5,212
  101954:	4354                	lw	a3,4(a4)
  101956:	0d478713          	addi	a4,a5,212
  10195a:	4718                	lw	a4,8(a4)
  10195c:	0d478793          	addi	a5,a5,212
  101960:	47dc                	lw	a5,12(a5)
  101962:	fec42023          	sw	a2,-32(s0)
  101966:	fed42223          	sw	a3,-28(s0)
  10196a:	fee42423          	sw	a4,-24(s0)
  10196e:	fef42623          	sw	a5,-20(s0)
D:\MCU_WorkSpace\IntegrationTest\mcu4in_IT\function_cpus\common\src/uart_stdout.c:27
			.ClockPrescalar8 = UART_CLOCK_PRESCALAR_DIS
	};

	//CLKPWR_ConfigPPWR(CLKPWR_PCONP_PCUART0,ENABLE);

	UART_Init(HM_UART0, &uart_init_cfg);
  101972:	fe040793          	addi	a5,s0,-32
  101976:	85be                	mv	a1,a5
  101978:	4000c537          	lui	a0,0x4000c
  10197c:	eb5fe0ef          	jal	ra,100830 <UART_Init>
D:\MCU_WorkSpace\IntegrationTest\mcu4in_IT\function_cpus\common\src/uart_stdout.c:28
}
  101980:	0001                	nop
  101982:	40f2                	lw	ra,28(sp)
  101984:	4462                	lw	s0,24(sp)
  101986:	6105                	addi	sp,sp,32
  101988:	8082                	ret
  10198a:	00000013          	nop
  10198e:	0001                	nop

00101990 <uart_putc>:
uart_putc():
D:\MCU_WorkSpace\IntegrationTest\mcu4in_IT\function_cpus\common\src/uart_stdout.c:38
	HM_UART0->TFIFO = ch;
	return ch;
}
#else
// #define uart_putc(data) { HM_UART0->TFIFO = (data);} // TODO just for debug, but is slow
void uart_putc(unsigned char data) {
  101990:	1101                	addi	sp,sp,-32
  101992:	ce06                	sw	ra,28(sp)
  101994:	cc22                	sw	s0,24(sp)
  101996:	1000                	addi	s0,sp,32
  101998:	87aa                	mv	a5,a0
  10199a:	fef407a3          	sb	a5,-17(s0)
D:\MCU_WorkSpace\IntegrationTest\mcu4in_IT\function_cpus\common\src/uart_stdout.c:39
	UART_WriteByte(HM_UART0, data);
  10199e:	fef44783          	lbu	a5,-17(s0)
  1019a2:	85be                	mv	a1,a5
  1019a4:	4000c537          	lui	a0,0x4000c
  1019a8:	b28ff0ef          	jal	ra,100cd0 <UART_WriteByte>
D:\MCU_WorkSpace\IntegrationTest\mcu4in_IT\function_cpus\common\src/uart_stdout.c:40
}
  1019ac:	0001                	nop
  1019ae:	40f2                	lw	ra,28(sp)
  1019b0:	4462                	lw	s0,24(sp)
  1019b2:	6105                	addi	sp,sp,32
  1019b4:	8082                	ret
  1019b6:	00000013          	nop
  1019ba:	00000013          	nop
  1019be:	0001                	nop

001019c0 <printn>:
printn():
D:\MCU_WorkSpace\IntegrationTest\mcu4in_IT\function_cpus\common\src/uart_stdout.c:45

static const char cmap[16] = "0123456789abcdef";

static void printn(unsigned n, unsigned bas)
{
  1019c0:	7179                	addi	sp,sp,-48
  1019c2:	d606                	sw	ra,44(sp)
  1019c4:	d422                	sw	s0,40(sp)
  1019c6:	1800                	addi	s0,sp,48
  1019c8:	fca42e23          	sw	a0,-36(s0)
  1019cc:	fcb42c23          	sw	a1,-40(s0)
D:\MCU_WorkSpace\IntegrationTest\mcu4in_IT\function_cpus\common\src/uart_stdout.c:48
	unsigned r;

	if ((r = n / bas) != 0)
  1019d0:	fdc42703          	lw	a4,-36(s0)
  1019d4:	fd842783          	lw	a5,-40(s0)
  1019d8:	02f757b3          	divu	a5,a4,a5
  1019dc:	fef42623          	sw	a5,-20(s0)
  1019e0:	fec42783          	lw	a5,-20(s0)
  1019e4:	c791                	beqz	a5,1019f0 <printn+0x30>
D:\MCU_WorkSpace\IntegrationTest\mcu4in_IT\function_cpus\common\src/uart_stdout.c:49
		printn(r, bas);
  1019e6:	fd842583          	lw	a1,-40(s0)
  1019ea:	fec42503          	lw	a0,-20(s0)
  1019ee:	3fc9                	jal	1019c0 <printn>
D:\MCU_WorkSpace\IntegrationTest\mcu4in_IT\function_cpus\common\src/uart_stdout.c:50
	uart_putc(cmap[n % bas]);
  1019f0:	fdc42703          	lw	a4,-36(s0)
  1019f4:	fd842783          	lw	a5,-40(s0)
  1019f8:	02f77733          	remu	a4,a4,a5
  1019fc:	001037b7          	lui	a5,0x103
  101a00:	0e478793          	addi	a5,a5,228 # 1030e4 <cmap>
  101a04:	97ba                	add	a5,a5,a4
  101a06:	0007c783          	lbu	a5,0(a5)
  101a0a:	853e                	mv	a0,a5
  101a0c:	3751                	jal	101990 <uart_putc>
D:\MCU_WorkSpace\IntegrationTest\mcu4in_IT\function_cpus\common\src/uart_stdout.c:51
}
  101a0e:	0001                	nop
  101a10:	50b2                	lw	ra,44(sp)
  101a12:	5422                	lw	s0,40(sp)
  101a14:	6145                	addi	sp,sp,48
  101a16:	8082                	ret
  101a18:	00000013          	nop
  101a1c:	00000013          	nop

00101a20 <uart_printf>:
uart_printf():
D:\MCU_WorkSpace\IntegrationTest\mcu4in_IT\function_cpus\common\src/uart_stdout.c:54

void uart_printf(const char *fmt, ...)
{
  101a20:	711d                	addi	sp,sp,-96
  101a22:	de06                	sw	ra,60(sp)
  101a24:	dc22                	sw	s0,56(sp)
  101a26:	0080                	addi	s0,sp,64
  101a28:	fca42623          	sw	a0,-52(s0)
  101a2c:	c04c                	sw	a1,4(s0)
  101a2e:	c410                	sw	a2,8(s0)
  101a30:	c454                	sw	a3,12(s0)
  101a32:	c818                	sw	a4,16(s0)
  101a34:	c85c                	sw	a5,20(s0)
  101a36:	01042c23          	sw	a6,24(s0)
  101a3a:	01142e23          	sw	a7,28(s0)
D:\MCU_WorkSpace\IntegrationTest\mcu4in_IT\function_cpus\common\src/uart_stdout.c:55
	char c=0, *s=NULL;
  101a3e:	fe0405a3          	sb	zero,-21(s0)
  101a42:	fe042623          	sw	zero,-20(s0)
D:\MCU_WorkSpace\IntegrationTest\mcu4in_IT\function_cpus\common\src/uart_stdout.c:56
	unsigned n=0;
  101a46:	fe042223          	sw	zero,-28(s0)
D:\MCU_WorkSpace\IntegrationTest\mcu4in_IT\function_cpus\common\src/uart_stdout.c:59

	va_list args;
	int t=0;
  101a4a:	fe042023          	sw	zero,-32(s0)
D:\MCU_WorkSpace\IntegrationTest\mcu4in_IT\function_cpus\common\src/uart_stdout.c:61

	va_start(args, fmt);
  101a4e:	02040793          	addi	a5,s0,32
  101a52:	1791                	addi	a5,a5,-28
  101a54:	fcf42e23          	sw	a5,-36(s0)
D:\MCU_WorkSpace\IntegrationTest\mcu4in_IT\function_cpus\common\src/uart_stdout.c:63

	while ((c = *fmt++) != '\0') 
  101a58:	a411                	j	101c5c <uart_printf+0x23c>
D:\MCU_WorkSpace\IntegrationTest\mcu4in_IT\function_cpus\common\src/uart_stdout.c:65
	{
		if (c != '%') 
  101a5a:	feb44703          	lbu	a4,-21(s0)
  101a5e:	02500793          	li	a5,37
  101a62:	00f70763          	beq	a4,a5,101a70 <uart_printf+0x50>
D:\MCU_WorkSpace\IntegrationTest\mcu4in_IT\function_cpus\common\src/uart_stdout.c:67
		{
			uart_putc(c);
  101a66:	feb44783          	lbu	a5,-21(s0)
  101a6a:	853e                	mv	a0,a5
  101a6c:	3715                	jal	101990 <uart_putc>
D:\MCU_WorkSpace\IntegrationTest\mcu4in_IT\function_cpus\common\src/uart_stdout.c:68
			continue;
  101a6e:	a2fd                	j	101c5c <uart_printf+0x23c>
D:\MCU_WorkSpace\IntegrationTest\mcu4in_IT\function_cpus\common\src/uart_stdout.c:71
		}

		switch (c = *fmt++) 
  101a70:	fcc42783          	lw	a5,-52(s0)
  101a74:	00178713          	addi	a4,a5,1
  101a78:	fce42623          	sw	a4,-52(s0)
  101a7c:	0007c783          	lbu	a5,0(a5)
  101a80:	fef405a3          	sb	a5,-21(s0)
  101a84:	feb44783          	lbu	a5,-21(s0)
  101a88:	fa878793          	addi	a5,a5,-88
  101a8c:	02000713          	li	a4,32
  101a90:	1af76863          	bltu	a4,a5,101c40 <uart_printf+0x220>
  101a94:	00279713          	slli	a4,a5,0x2
  101a98:	001037b7          	lui	a5,0x103
  101a9c:	0f478793          	addi	a5,a5,244 # 1030f4 <cmap+0x10>
  101aa0:	97ba                	add	a5,a5,a4
  101aa2:	439c                	lw	a5,0(a5)
  101aa4:	8782                	jr	a5
D:\MCU_WorkSpace\IntegrationTest\mcu4in_IT\function_cpus\common\src/uart_stdout.c:74
		{
			case 'o':
				t = va_arg(args, int);
  101aa6:	fdc42783          	lw	a5,-36(s0)
  101aaa:	00478713          	addi	a4,a5,4
  101aae:	fce42e23          	sw	a4,-36(s0)
  101ab2:	439c                	lw	a5,0(a5)
  101ab4:	fef42023          	sw	a5,-32(s0)
D:\MCU_WorkSpace\IntegrationTest\mcu4in_IT\function_cpus\common\src/uart_stdout.c:75
				printn(t, 8);
  101ab8:	fe042783          	lw	a5,-32(s0)
  101abc:	45a1                	li	a1,8
  101abe:	853e                	mv	a0,a5
  101ac0:	3701                	jal	1019c0 <printn>
D:\MCU_WorkSpace\IntegrationTest\mcu4in_IT\function_cpus\common\src/uart_stdout.c:76
				break;
  101ac2:	aa69                	j	101c5c <uart_printf+0x23c>
D:\MCU_WorkSpace\IntegrationTest\mcu4in_IT\function_cpus\common\src/uart_stdout.c:83
			case 'p':
			case 'u':
			case 'd':
			case 'i':
			case 'l':
				t = va_arg(args, int);
  101ac4:	fdc42783          	lw	a5,-36(s0)
  101ac8:	00478713          	addi	a4,a5,4
  101acc:	fce42e23          	sw	a4,-36(s0)
  101ad0:	439c                	lw	a5,0(a5)
  101ad2:	fef42023          	sw	a5,-32(s0)
D:\MCU_WorkSpace\IntegrationTest\mcu4in_IT\function_cpus\common\src/uart_stdout.c:84
				printn(t, 10);
  101ad6:	fe042783          	lw	a5,-32(s0)
  101ada:	45a9                	li	a1,10
  101adc:	853e                	mv	a0,a5
  101ade:	35cd                	jal	1019c0 <printn>
D:\MCU_WorkSpace\IntegrationTest\mcu4in_IT\function_cpus\common\src/uart_stdout.c:85
				break;
  101ae0:	aab5                	j	101c5c <uart_printf+0x23c>
D:\MCU_WorkSpace\IntegrationTest\mcu4in_IT\function_cpus\common\src/uart_stdout.c:89
			//        case 'h':
			case 'x':
			case 'X':
				n = va_arg(args, unsigned int);
  101ae2:	fdc42783          	lw	a5,-36(s0)
  101ae6:	00478713          	addi	a4,a5,4
  101aea:	fce42e23          	sw	a4,-36(s0)
  101aee:	439c                	lw	a5,0(a5)
  101af0:	fef42223          	sw	a5,-28(s0)
D:\MCU_WorkSpace\IntegrationTest\mcu4in_IT\function_cpus\common\src/uart_stdout.c:90
													if(n>>28)
  101af4:	fe442783          	lw	a5,-28(s0)
  101af8:	83f1                	srli	a5,a5,0x1c
  101afa:	cf91                	beqz	a5,101b16 <uart_printf+0xf6>
D:\MCU_WorkSpace\IntegrationTest\mcu4in_IT\function_cpus\common\src/uart_stdout.c:91
								 uart_putc(cmap[(n >> 28) & 0x0f]);
  101afc:	fe442783          	lw	a5,-28(s0)
  101b00:	01c7d713          	srli	a4,a5,0x1c
  101b04:	001037b7          	lui	a5,0x103
  101b08:	0e478793          	addi	a5,a5,228 # 1030e4 <cmap>
  101b0c:	97ba                	add	a5,a5,a4
  101b0e:	0007c783          	lbu	a5,0(a5)
  101b12:	853e                	mv	a0,a5
  101b14:	3db5                	jal	101990 <uart_putc>
D:\MCU_WorkSpace\IntegrationTest\mcu4in_IT\function_cpus\common\src/uart_stdout.c:92
													if(n>>24)
  101b16:	fe442783          	lw	a5,-28(s0)
  101b1a:	83e1                	srli	a5,a5,0x18
  101b1c:	cf99                	beqz	a5,101b3a <uart_printf+0x11a>
D:\MCU_WorkSpace\IntegrationTest\mcu4in_IT\function_cpus\common\src/uart_stdout.c:93
								uart_putc(cmap[(n >> 24) & 0x0f]);
  101b1e:	fe442783          	lw	a5,-28(s0)
  101b22:	83e1                	srli	a5,a5,0x18
  101b24:	00f7f713          	andi	a4,a5,15
  101b28:	001037b7          	lui	a5,0x103
  101b2c:	0e478793          	addi	a5,a5,228 # 1030e4 <cmap>
  101b30:	97ba                	add	a5,a5,a4
  101b32:	0007c783          	lbu	a5,0(a5)
  101b36:	853e                	mv	a0,a5
  101b38:	3da1                	jal	101990 <uart_putc>
D:\MCU_WorkSpace\IntegrationTest\mcu4in_IT\function_cpus\common\src/uart_stdout.c:94
													if(n>>20)
  101b3a:	fe442783          	lw	a5,-28(s0)
  101b3e:	83d1                	srli	a5,a5,0x14
  101b40:	cf99                	beqz	a5,101b5e <uart_printf+0x13e>
D:\MCU_WorkSpace\IntegrationTest\mcu4in_IT\function_cpus\common\src/uart_stdout.c:95
								uart_putc(cmap[(n >> 20) & 0x0f]);
  101b42:	fe442783          	lw	a5,-28(s0)
  101b46:	83d1                	srli	a5,a5,0x14
  101b48:	00f7f713          	andi	a4,a5,15
  101b4c:	001037b7          	lui	a5,0x103
  101b50:	0e478793          	addi	a5,a5,228 # 1030e4 <cmap>
  101b54:	97ba                	add	a5,a5,a4
  101b56:	0007c783          	lbu	a5,0(a5)
  101b5a:	853e                	mv	a0,a5
  101b5c:	3d15                	jal	101990 <uart_putc>
D:\MCU_WorkSpace\IntegrationTest\mcu4in_IT\function_cpus\common\src/uart_stdout.c:96
													if(n>>16)
  101b5e:	fe442783          	lw	a5,-28(s0)
  101b62:	83c1                	srli	a5,a5,0x10
  101b64:	cf99                	beqz	a5,101b82 <uart_printf+0x162>
D:\MCU_WorkSpace\IntegrationTest\mcu4in_IT\function_cpus\common\src/uart_stdout.c:97
								uart_putc(cmap[(n >> 16) & 0x0f]);
  101b66:	fe442783          	lw	a5,-28(s0)
  101b6a:	83c1                	srli	a5,a5,0x10
  101b6c:	00f7f713          	andi	a4,a5,15
  101b70:	001037b7          	lui	a5,0x103
  101b74:	0e478793          	addi	a5,a5,228 # 1030e4 <cmap>
  101b78:	97ba                	add	a5,a5,a4
  101b7a:	0007c783          	lbu	a5,0(a5)
  101b7e:	853e                	mv	a0,a5
  101b80:	3d01                	jal	101990 <uart_putc>
D:\MCU_WorkSpace\IntegrationTest\mcu4in_IT\function_cpus\common\src/uart_stdout.c:98
													if(n>>12)
  101b82:	fe442783          	lw	a5,-28(s0)
  101b86:	83b1                	srli	a5,a5,0xc
  101b88:	cf99                	beqz	a5,101ba6 <uart_printf+0x186>
D:\MCU_WorkSpace\IntegrationTest\mcu4in_IT\function_cpus\common\src/uart_stdout.c:99
								uart_putc(cmap[(n >> 12) & 0x0f]);
  101b8a:	fe442783          	lw	a5,-28(s0)
  101b8e:	83b1                	srli	a5,a5,0xc
  101b90:	00f7f713          	andi	a4,a5,15
  101b94:	001037b7          	lui	a5,0x103
  101b98:	0e478793          	addi	a5,a5,228 # 1030e4 <cmap>
  101b9c:	97ba                	add	a5,a5,a4
  101b9e:	0007c783          	lbu	a5,0(a5)
  101ba2:	853e                	mv	a0,a5
  101ba4:	33f5                	jal	101990 <uart_putc>
D:\MCU_WorkSpace\IntegrationTest\mcu4in_IT\function_cpus\common\src/uart_stdout.c:100
													if(n>>8)
  101ba6:	fe442783          	lw	a5,-28(s0)
  101baa:	83a1                	srli	a5,a5,0x8
  101bac:	cf99                	beqz	a5,101bca <uart_printf+0x1aa>
D:\MCU_WorkSpace\IntegrationTest\mcu4in_IT\function_cpus\common\src/uart_stdout.c:101
								uart_putc(cmap[(n >> 8) & 0x0f]);
  101bae:	fe442783          	lw	a5,-28(s0)
  101bb2:	83a1                	srli	a5,a5,0x8
  101bb4:	00f7f713          	andi	a4,a5,15
  101bb8:	001037b7          	lui	a5,0x103
  101bbc:	0e478793          	addi	a5,a5,228 # 1030e4 <cmap>
  101bc0:	97ba                	add	a5,a5,a4
  101bc2:	0007c783          	lbu	a5,0(a5)
  101bc6:	853e                	mv	a0,a5
  101bc8:	33e1                	jal	101990 <uart_putc>
D:\MCU_WorkSpace\IntegrationTest\mcu4in_IT\function_cpus\common\src/uart_stdout.c:102
													if(n>>4)
  101bca:	fe442783          	lw	a5,-28(s0)
  101bce:	8391                	srli	a5,a5,0x4
  101bd0:	cf99                	beqz	a5,101bee <uart_printf+0x1ce>
D:\MCU_WorkSpace\IntegrationTest\mcu4in_IT\function_cpus\common\src/uart_stdout.c:103
								uart_putc(cmap[(n >> 4) & 0x0f]);
  101bd2:	fe442783          	lw	a5,-28(s0)
  101bd6:	8391                	srli	a5,a5,0x4
  101bd8:	00f7f713          	andi	a4,a5,15
  101bdc:	001037b7          	lui	a5,0x103
  101be0:	0e478793          	addi	a5,a5,228 # 1030e4 <cmap>
  101be4:	97ba                	add	a5,a5,a4
  101be6:	0007c783          	lbu	a5,0(a5)
  101bea:	853e                	mv	a0,a5
  101bec:	3355                	jal	101990 <uart_putc>
D:\MCU_WorkSpace\IntegrationTest\mcu4in_IT\function_cpus\common\src/uart_stdout.c:104
				uart_putc(cmap[n & 0x0f]);
  101bee:	fe442783          	lw	a5,-28(s0)
  101bf2:	00f7f713          	andi	a4,a5,15
  101bf6:	001037b7          	lui	a5,0x103
  101bfa:	0e478793          	addi	a5,a5,228 # 1030e4 <cmap>
  101bfe:	97ba                	add	a5,a5,a4
  101c00:	0007c783          	lbu	a5,0(a5)
  101c04:	853e                	mv	a0,a5
  101c06:	3369                	jal	101990 <uart_putc>
D:\MCU_WorkSpace\IntegrationTest\mcu4in_IT\function_cpus\common\src/uart_stdout.c:105
				break;
  101c08:	a891                	j	101c5c <uart_printf+0x23c>
D:\MCU_WorkSpace\IntegrationTest\mcu4in_IT\function_cpus\common\src/uart_stdout.c:108

			case 's':
				s = va_arg(args, char *);
  101c0a:	fdc42783          	lw	a5,-36(s0)
  101c0e:	00478713          	addi	a4,a5,4
  101c12:	fce42e23          	sw	a4,-36(s0)
  101c16:	439c                	lw	a5,0(a5)
  101c18:	fef42623          	sw	a5,-20(s0)
D:\MCU_WorkSpace\IntegrationTest\mcu4in_IT\function_cpus\common\src/uart_stdout.c:109
				for (; *s != '\0'; ++s)
  101c1c:	a821                	j	101c34 <uart_printf+0x214>
D:\MCU_WorkSpace\IntegrationTest\mcu4in_IT\function_cpus\common\src/uart_stdout.c:111 (discriminator 2)
				{	
					uart_putc(*s);
  101c1e:	fec42783          	lw	a5,-20(s0)
  101c22:	0007c783          	lbu	a5,0(a5)
  101c26:	853e                	mv	a0,a5
  101c28:	33a5                	jal	101990 <uart_putc>
D:\MCU_WorkSpace\IntegrationTest\mcu4in_IT\function_cpus\common\src/uart_stdout.c:109 (discriminator 2)
				for (; *s != '\0'; ++s)
  101c2a:	fec42783          	lw	a5,-20(s0)
  101c2e:	0785                	addi	a5,a5,1
  101c30:	fef42623          	sw	a5,-20(s0)
D:\MCU_WorkSpace\IntegrationTest\mcu4in_IT\function_cpus\common\src/uart_stdout.c:109 (discriminator 1)
  101c34:	fec42783          	lw	a5,-20(s0)
  101c38:	0007c783          	lbu	a5,0(a5)
  101c3c:	f3ed                	bnez	a5,101c1e <uart_printf+0x1fe>
D:\MCU_WorkSpace\IntegrationTest\mcu4in_IT\function_cpus\common\src/uart_stdout.c:113
				}
				break;
  101c3e:	a839                	j	101c5c <uart_printf+0x23c>
D:\MCU_WorkSpace\IntegrationTest\mcu4in_IT\function_cpus\common\src/uart_stdout.c:116

			default:
				c = va_arg(args, int);
  101c40:	fdc42783          	lw	a5,-36(s0)
  101c44:	00478713          	addi	a4,a5,4
  101c48:	fce42e23          	sw	a4,-36(s0)
  101c4c:	439c                	lw	a5,0(a5)
  101c4e:	fef405a3          	sb	a5,-21(s0)
D:\MCU_WorkSpace\IntegrationTest\mcu4in_IT\function_cpus\common\src/uart_stdout.c:117
				uart_putc(c);
  101c52:	feb44783          	lbu	a5,-21(s0)
  101c56:	853e                	mv	a0,a5
  101c58:	3b25                	jal	101990 <uart_putc>
D:\MCU_WorkSpace\IntegrationTest\mcu4in_IT\function_cpus\common\src/uart_stdout.c:118
				continue;
  101c5a:	0001                	nop
D:\MCU_WorkSpace\IntegrationTest\mcu4in_IT\function_cpus\common\src/uart_stdout.c:63
	while ((c = *fmt++) != '\0') 
  101c5c:	fcc42783          	lw	a5,-52(s0)
  101c60:	00178713          	addi	a4,a5,1
  101c64:	fce42623          	sw	a4,-52(s0)
  101c68:	0007c783          	lbu	a5,0(a5)
  101c6c:	fef405a3          	sb	a5,-21(s0)
  101c70:	feb44783          	lbu	a5,-21(s0)
  101c74:	de0793e3          	bnez	a5,101a5a <uart_printf+0x3a>
D:\MCU_WorkSpace\IntegrationTest\mcu4in_IT\function_cpus\common\src/uart_stdout.c:122
		}
	}
	va_end(args);
}
  101c78:	0001                	nop
  101c7a:	50f2                	lw	ra,60(sp)
  101c7c:	5462                	lw	s0,56(sp)
  101c7e:	6125                	addi	sp,sp,96
  101c80:	8082                	ret
	...

00101c90 <TestLabel>:
TestLabel():
D:\MCU_WorkSpace\IntegrationTest\mcu4in_IT\function_cpus\application/main.c:35
  kIncAccCnt = 2, 
  kIncRectify = 3, 
  kIncMax 
} IncStrategyTypes;

void TestLabel() {
  101c90:	7179                	addi	sp,sp,-48
  101c92:	d606                	sw	ra,44(sp)
  101c94:	d422                	sw	s0,40(sp)
  101c96:	1800                	addi	s0,sp,48
D:\MCU_WorkSpace\IntegrationTest\mcu4in_IT\function_cpus\application/main.c:36
  int i = 0;
  101c98:	fe042623          	sw	zero,-20(s0)
D:\MCU_WorkSpace\IntegrationTest\mcu4in_IT\function_cpus\application/main.c:37
  int t = 0;
  101c9c:	fe042423          	sw	zero,-24(s0)
D:\MCU_WorkSpace\IntegrationTest\mcu4in_IT\function_cpus\application/main.c:38
  i = 1;
  101ca0:	4785                	li	a5,1
  101ca2:	fef42623          	sw	a5,-20(s0)
D:\MCU_WorkSpace\IntegrationTest\mcu4in_IT\function_cpus\application/main.c:40

  EVENT_END_WITH_LABEL(0);
  101ca6:	fe042223          	sw	zero,-28(s0)
  101caa:	fe440793          	addi	a5,s0,-28
  101cae:	853e                	mv	a0,a5
  101cb0:	df8fe0ef          	jal	ra,1002a8 <pml_get_sp>
  101cb4:	2012e7b7          	lui	a5,0x2012e
  101cb8:	fe442703          	lw	a4,-28(s0)
  101cbc:	c398                	sw	a4,0(a5)
  101cbe:	410007b7          	lui	a5,0x41000
  101cc2:	03478793          	addi	a5,a5,52 # 41000034 <__stack+0x20ed4034>
  101cc6:	0007a023          	sw	zero,0(a5)
  101cca:	410007b7          	lui	a5,0x41000
  101cce:	07f1                	addi	a5,a5,28
  101cd0:	4705                	li	a4,1
  101cd2:	c398                	sw	a4,0(a5)
  101cd4:	f7cff0ef          	jal	ra,101450 <event_delay>
D:\MCU_WorkSpace\IntegrationTest\mcu4in_IT\function_cpus\application/main.c:41
  i = 2;
  101cd8:	4789                	li	a5,2
  101cda:	fef42623          	sw	a5,-20(s0)
D:\MCU_WorkSpace\IntegrationTest\mcu4in_IT\function_cpus\application/main.c:42
  uart_printf("\r\n%d",i);
  101cde:	fec42583          	lw	a1,-20(s0)
  101ce2:	001037b7          	lui	a5,0x103
  101ce6:	17878513          	addi	a0,a5,376 # 103178 <cmap+0x94>
  101cea:	3b1d                	jal	101a20 <uart_printf>
D:\MCU_WorkSpace\IntegrationTest\mcu4in_IT\function_cpus\application/main.c:44

  EVENT_END_WITH_LABEL(1);
  101cec:	fe042023          	sw	zero,-32(s0)
  101cf0:	fe040793          	addi	a5,s0,-32
  101cf4:	853e                	mv	a0,a5
  101cf6:	db2fe0ef          	jal	ra,1002a8 <pml_get_sp>
  101cfa:	2012e7b7          	lui	a5,0x2012e
  101cfe:	fe042703          	lw	a4,-32(s0)
  101d02:	c398                	sw	a4,0(a5)
  101d04:	410007b7          	lui	a5,0x41000
  101d08:	03478793          	addi	a5,a5,52 # 41000034 <__stack+0x20ed4034>
  101d0c:	4705                	li	a4,1
  101d0e:	c398                	sw	a4,0(a5)
  101d10:	410007b7          	lui	a5,0x41000
  101d14:	07f1                	addi	a5,a5,28
  101d16:	4705                	li	a4,1
  101d18:	c398                	sw	a4,0(a5)
  101d1a:	f36ff0ef          	jal	ra,101450 <event_delay>
D:\MCU_WorkSpace\IntegrationTest\mcu4in_IT\function_cpus\application/main.c:45
  i = i+1;
  101d1e:	fec42783          	lw	a5,-20(s0)
  101d22:	0785                	addi	a5,a5,1
  101d24:	fef42623          	sw	a5,-20(s0)
D:\MCU_WorkSpace\IntegrationTest\mcu4in_IT\function_cpus\application/main.c:46
  uart_printf("%d",i);
  101d28:	fec42583          	lw	a1,-20(s0)
  101d2c:	001037b7          	lui	a5,0x103
  101d30:	18078513          	addi	a0,a5,384 # 103180 <cmap+0x9c>
  101d34:	31f5                	jal	101a20 <uart_printf>
D:\MCU_WorkSpace\IntegrationTest\mcu4in_IT\function_cpus\application/main.c:48

  if (t == 0) {
  101d36:	fe842783          	lw	a5,-24(s0)
  101d3a:	e785                	bnez	a5,101d62 <TestLabel+0xd2>
D:\MCU_WorkSpace\IntegrationTest\mcu4in_IT\function_cpus\application/main.c:49
    t = 1;
  101d3c:	4785                	li	a5,1
  101d3e:	fef42423          	sw	a5,-24(s0)
D:\MCU_WorkSpace\IntegrationTest\mcu4in_IT\function_cpus\application/main.c:50
    unsigned* lad = NULL;
  101d42:	fc042e23          	sw	zero,-36(s0)
D:\MCU_WorkSpace\IntegrationTest\mcu4in_IT\function_cpus\application/main.c:51
    GetLabelAddr(EVENT_INDEX, &lad);
  101d46:	410007b7          	lui	a5,0x41000
  101d4a:	03478793          	addi	a5,a5,52 # 41000034 <__stack+0x20ed4034>
  101d4e:	439c                	lw	a5,0(a5)
  101d50:	fdc40713          	addi	a4,s0,-36
  101d54:	85ba                	mv	a1,a4
  101d56:	853e                	mv	a0,a5
  101d58:	bf8ff0ef          	jal	ra,101150 <GetLabelAddr>
D:\MCU_WorkSpace\IntegrationTest\mcu4in_IT\function_cpus\application/main.c:52
    goto *lad;
  101d5c:	fdc42783          	lw	a5,-36(s0)
  101d60:	8782                	jr	a5
D:\MCU_WorkSpace\IntegrationTest\mcu4in_IT\function_cpus\application/main.c:55
  }
  
  i = 5;
  101d62:	4795                	li	a5,5
  101d64:	fef42623          	sw	a5,-20(s0)
D:\MCU_WorkSpace\IntegrationTest\mcu4in_IT\function_cpus\application/main.c:56
  uart_printf("%d",i);
  101d68:	fec42583          	lw	a1,-20(s0)
  101d6c:	001037b7          	lui	a5,0x103
  101d70:	18078513          	addi	a0,a5,384 # 103180 <cmap+0x9c>
  101d74:	3175                	jal	101a20 <uart_printf>
D:\MCU_WorkSpace\IntegrationTest\mcu4in_IT\function_cpus\application/main.c:59
  // uart_printf("\r\n2345<----- Label Test passed if and only if the print were the same!\r\n");
  // uart_printf("**** chk_pass_cnt = %d, %d, %d  ****\r\n", S0_CHK_PASS_CNT, S1_CHK_PASS_CNT, S2_CHK_PASS_CNT);
}
  101d76:	0001                	nop
  101d78:	50b2                	lw	ra,44(sp)
  101d7a:	5422                	lw	s0,40(sp)
  101d7c:	6145                	addi	sp,sp,48
  101d7e:	8082                	ret

00101d80 <TestSaveByCtrl>:
TestSaveByCtrl():
D:\MCU_WorkSpace\IntegrationTest\mcu4in_IT\function_cpus\application/main.c:61

void TestSaveByCtrl() {
  101d80:	1101                	addi	sp,sp,-32
  101d82:	ce06                	sw	ra,28(sp)
  101d84:	cc22                	sw	s0,24(sp)
  101d86:	1000                	addi	s0,sp,32
D:\MCU_WorkSpace\IntegrationTest\mcu4in_IT\function_cpus\application/main.c:62
  unsigned int i = 0;
  101d88:	fe042623          	sw	zero,-20(s0)
D:\MCU_WorkSpace\IntegrationTest\mcu4in_IT\function_cpus\application/main.c:63
  Delay(3);                   // wait sche_cpu control save
  101d8c:	450d                	li	a0,3
  101d8e:	803ff0ef          	jal	ra,101590 <Delay>
D:\MCU_WorkSpace\IntegrationTest\mcu4in_IT\function_cpus\application/main.c:64
  i = i + 3;
  101d92:	fec42783          	lw	a5,-20(s0)
  101d96:	078d                	addi	a5,a5,3
  101d98:	fef42623          	sw	a5,-20(s0)
D:\MCU_WorkSpace\IntegrationTest\mcu4in_IT\function_cpus\application/main.c:65
  uart_printf("%u", i);
  101d9c:	fec42583          	lw	a1,-20(s0)
  101da0:	001037b7          	lui	a5,0x103
  101da4:	18478513          	addi	a0,a5,388 # 103184 <cmap+0xa0>
  101da8:	39a5                	jal	101a20 <uart_printf>
D:\MCU_WorkSpace\IntegrationTest\mcu4in_IT\function_cpus\application/main.c:66
  EVENT_END_WITH_LABEL(2);
  101daa:	fe042423          	sw	zero,-24(s0)
  101dae:	fe840793          	addi	a5,s0,-24
  101db2:	853e                	mv	a0,a5
  101db4:	cf4fe0ef          	jal	ra,1002a8 <pml_get_sp>
  101db8:	2012e7b7          	lui	a5,0x2012e
  101dbc:	fe842703          	lw	a4,-24(s0)
  101dc0:	c398                	sw	a4,0(a5)
  101dc2:	410007b7          	lui	a5,0x41000
  101dc6:	03478793          	addi	a5,a5,52 # 41000034 <__stack+0x20ed4034>
  101dca:	4709                	li	a4,2
  101dcc:	c398                	sw	a4,0(a5)
  101dce:	410007b7          	lui	a5,0x41000
  101dd2:	07f1                	addi	a5,a5,28
  101dd4:	4705                	li	a4,1
  101dd6:	c398                	sw	a4,0(a5)
  101dd8:	e78ff0ef          	jal	ra,101450 <event_delay>
D:\MCU_WorkSpace\IntegrationTest\mcu4in_IT\function_cpus\application/main.c:68

  Delay(3);
  101ddc:	450d                	li	a0,3
  101dde:	fb2ff0ef          	jal	ra,101590 <Delay>
D:\MCU_WorkSpace\IntegrationTest\mcu4in_IT\function_cpus\application/main.c:69
  i = i + 3;
  101de2:	fec42783          	lw	a5,-20(s0)
  101de6:	078d                	addi	a5,a5,3
  101de8:	fef42623          	sw	a5,-20(s0)
D:\MCU_WorkSpace\IntegrationTest\mcu4in_IT\function_cpus\application/main.c:70
  uart_printf("%u", i);
  101dec:	fec42583          	lw	a1,-20(s0)
  101df0:	001037b7          	lui	a5,0x103
  101df4:	18478513          	addi	a0,a5,388 # 103184 <cmap+0xa0>
  101df8:	3125                	jal	101a20 <uart_printf>
D:\MCU_WorkSpace\IntegrationTest\mcu4in_IT\function_cpus\application/main.c:71
  EVENT_END_WITH_LABEL(3);
  101dfa:	fe042223          	sw	zero,-28(s0)
  101dfe:	fe440793          	addi	a5,s0,-28
  101e02:	853e                	mv	a0,a5
  101e04:	ca4fe0ef          	jal	ra,1002a8 <pml_get_sp>
  101e08:	2012e7b7          	lui	a5,0x2012e
  101e0c:	fe442703          	lw	a4,-28(s0)
  101e10:	c398                	sw	a4,0(a5)
  101e12:	410007b7          	lui	a5,0x41000
  101e16:	03478793          	addi	a5,a5,52 # 41000034 <__stack+0x20ed4034>
  101e1a:	470d                	li	a4,3
  101e1c:	c398                	sw	a4,0(a5)
  101e1e:	410007b7          	lui	a5,0x41000
  101e22:	07f1                	addi	a5,a5,28
  101e24:	4705                	li	a4,1
  101e26:	c398                	sw	a4,0(a5)
  101e28:	e28ff0ef          	jal	ra,101450 <event_delay>
D:\MCU_WorkSpace\IntegrationTest\mcu4in_IT\function_cpus\application/main.c:73

  Delay(3);
  101e2c:	450d                	li	a0,3
  101e2e:	f62ff0ef          	jal	ra,101590 <Delay>
D:\MCU_WorkSpace\IntegrationTest\mcu4in_IT\function_cpus\application/main.c:74
  i = i + 3;
  101e32:	fec42783          	lw	a5,-20(s0)
  101e36:	078d                	addi	a5,a5,3
  101e38:	fef42623          	sw	a5,-20(s0)
D:\MCU_WorkSpace\IntegrationTest\mcu4in_IT\function_cpus\application/main.c:75
  uart_printf("%u", i);
  101e3c:	fec42583          	lw	a1,-20(s0)
  101e40:	001037b7          	lui	a5,0x103
  101e44:	18478513          	addi	a0,a5,388 # 103184 <cmap+0xa0>
  101e48:	3ee1                	jal	101a20 <uart_printf>
D:\MCU_WorkSpace\IntegrationTest\mcu4in_IT\function_cpus\application/main.c:77
  // uart_printf("\r\nSaveByCtrl Test passed if and only if the save context interrupts were triggered twice!\r\n");
}
  101e4a:	0001                	nop
  101e4c:	40f2                	lw	ra,28(sp)
  101e4e:	4462                	lw	s0,24(sp)
  101e50:	6105                	addi	sp,sp,32
  101e52:	8082                	ret
  101e54:	00000013          	nop
  101e58:	00000013          	nop
  101e5c:	00000013          	nop

00101e60 <TestSaveByFunc>:
TestSaveByFunc():
D:\MCU_WorkSpace\IntegrationTest\mcu4in_IT\function_cpus\application/main.c:79

void TestSaveByFunc() {
  101e60:	1101                	addi	sp,sp,-32
  101e62:	ce06                	sw	ra,28(sp)
  101e64:	cc22                	sw	s0,24(sp)
  101e66:	1000                	addi	s0,sp,32
D:\MCU_WorkSpace\IntegrationTest\mcu4in_IT\function_cpus\application/main.c:80
  unsigned int i = 0;
  101e68:	fe042623          	sw	zero,-20(s0)
D:\MCU_WorkSpace\IntegrationTest\mcu4in_IT\function_cpus\application/main.c:81
  uart_printf("%u", i);
  101e6c:	fec42583          	lw	a1,-20(s0)
  101e70:	001037b7          	lui	a5,0x103
  101e74:	18478513          	addi	a0,a5,388 # 103184 <cmap+0xa0>
  101e78:	3665                	jal	101a20 <uart_printf>
D:\MCU_WorkSpace\IntegrationTest\mcu4in_IT\function_cpus\application/main.c:83

  SAVE_CONTEXT = 1; // Func CPU save context after event_end
  101e7a:	410007b7          	lui	a5,0x41000
  101e7e:	04078793          	addi	a5,a5,64 # 41000040 <__stack+0x20ed4040>
  101e82:	4705                	li	a4,1
  101e84:	c398                	sw	a4,0(a5)
D:\MCU_WorkSpace\IntegrationTest\mcu4in_IT\function_cpus\application/main.c:84
  i = i + 3;
  101e86:	fec42783          	lw	a5,-20(s0)
  101e8a:	078d                	addi	a5,a5,3
  101e8c:	fef42623          	sw	a5,-20(s0)
D:\MCU_WorkSpace\IntegrationTest\mcu4in_IT\function_cpus\application/main.c:85
  uart_printf("%u", i);
  101e90:	fec42583          	lw	a1,-20(s0)
  101e94:	001037b7          	lui	a5,0x103
  101e98:	18478513          	addi	a0,a5,388 # 103184 <cmap+0xa0>
  101e9c:	3651                	jal	101a20 <uart_printf>
D:\MCU_WorkSpace\IntegrationTest\mcu4in_IT\function_cpus\application/main.c:86
  EVENT_END_WITH_LABEL(4);
  101e9e:	fe042423          	sw	zero,-24(s0)
  101ea2:	fe840793          	addi	a5,s0,-24
  101ea6:	853e                	mv	a0,a5
  101ea8:	c00fe0ef          	jal	ra,1002a8 <pml_get_sp>
  101eac:	2012e7b7          	lui	a5,0x2012e
  101eb0:	fe842703          	lw	a4,-24(s0)
  101eb4:	c398                	sw	a4,0(a5)
  101eb6:	410007b7          	lui	a5,0x41000
  101eba:	03478793          	addi	a5,a5,52 # 41000034 <__stack+0x20ed4034>
  101ebe:	4711                	li	a4,4
  101ec0:	c398                	sw	a4,0(a5)
  101ec2:	410007b7          	lui	a5,0x41000
  101ec6:	07f1                	addi	a5,a5,28
  101ec8:	4705                	li	a4,1
  101eca:	c398                	sw	a4,0(a5)
  101ecc:	d84ff0ef          	jal	ra,101450 <event_delay>
D:\MCU_WorkSpace\IntegrationTest\mcu4in_IT\function_cpus\application/main.c:88

  for (i=i+1; i < 17; i++) {
  101ed0:	fec42783          	lw	a5,-20(s0)
  101ed4:	0785                	addi	a5,a5,1
  101ed6:	fef42623          	sw	a5,-20(s0)
  101eda:	a885                	j	101f4a <TestSaveByFunc+0xea>
D:\MCU_WorkSpace\IntegrationTest\mcu4in_IT\function_cpus\application/main.c:89
    uart_printf("%u", i);
  101edc:	fec42583          	lw	a1,-20(s0)
  101ee0:	001037b7          	lui	a5,0x103
  101ee4:	18478513          	addi	a0,a5,388 # 103184 <cmap+0xa0>
  101ee8:	3e25                	jal	101a20 <uart_printf>
D:\MCU_WorkSpace\IntegrationTest\mcu4in_IT\function_cpus\application/main.c:90
    if (i % 3 == 0) {
  101eea:	fec42703          	lw	a4,-20(s0)
  101eee:	478d                	li	a5,3
  101ef0:	02f777b3          	remu	a5,a4,a5
  101ef4:	e799                	bnez	a5,101f02 <TestSaveByFunc+0xa2>
D:\MCU_WorkSpace\IntegrationTest\mcu4in_IT\function_cpus\application/main.c:91
      SAVE_CONTEXT = 1;
  101ef6:	410007b7          	lui	a5,0x41000
  101efa:	04078793          	addi	a5,a5,64 # 41000040 <__stack+0x20ed4040>
  101efe:	4705                	li	a4,1
  101f00:	c398                	sw	a4,0(a5)
D:\MCU_WorkSpace\IntegrationTest\mcu4in_IT\function_cpus\application/main.c:93
    }
    if (i % 5 == 0) {
  101f02:	fec42703          	lw	a4,-20(s0)
  101f06:	4795                	li	a5,5
  101f08:	02f777b3          	remu	a5,a4,a5
  101f0c:	eb95                	bnez	a5,101f40 <TestSaveByFunc+0xe0>
D:\MCU_WorkSpace\IntegrationTest\mcu4in_IT\function_cpus\application/main.c:94
      EVENT_END_WITH_LABEL(5);
  101f0e:	fe042223          	sw	zero,-28(s0)
  101f12:	fe440793          	addi	a5,s0,-28
  101f16:	853e                	mv	a0,a5
  101f18:	b90fe0ef          	jal	ra,1002a8 <pml_get_sp>
  101f1c:	2012e7b7          	lui	a5,0x2012e
  101f20:	fe442703          	lw	a4,-28(s0)
  101f24:	c398                	sw	a4,0(a5)
  101f26:	410007b7          	lui	a5,0x41000
  101f2a:	03478793          	addi	a5,a5,52 # 41000034 <__stack+0x20ed4034>
  101f2e:	4715                	li	a4,5
  101f30:	c398                	sw	a4,0(a5)
  101f32:	410007b7          	lui	a5,0x41000
  101f36:	07f1                	addi	a5,a5,28
  101f38:	4705                	li	a4,1
  101f3a:	c398                	sw	a4,0(a5)
  101f3c:	d14ff0ef          	jal	ra,101450 <event_delay>
D:\MCU_WorkSpace\IntegrationTest\mcu4in_IT\function_cpus\application/main.c:88 (discriminator 2)
  for (i=i+1; i < 17; i++) {
  101f40:	fec42783          	lw	a5,-20(s0)
  101f44:	0785                	addi	a5,a5,1
  101f46:	fef42623          	sw	a5,-20(s0)
D:\MCU_WorkSpace\IntegrationTest\mcu4in_IT\function_cpus\application/main.c:88 (discriminator 1)
  101f4a:	fec42703          	lw	a4,-20(s0)
  101f4e:	47c1                	li	a5,16
  101f50:	f8e7f6e3          	bgeu	a5,a4,101edc <TestSaveByFunc+0x7c>
D:\MCU_WorkSpace\IntegrationTest\mcu4in_IT\function_cpus\application/main.c:98
    }
  }
  // uart_printf("\r\nSaveByFunc Test passed if and only if the save context interrupts were triggered thrice!\r\n");
}
  101f54:	0001                	nop
  101f56:	40f2                	lw	ra,28(sp)
  101f58:	4462                	lw	s0,24(sp)
  101f5a:	6105                	addi	sp,sp,32
  101f5c:	8082                	ret
  101f5e:	0001                	nop

00101f60 <TestLocMalloc>:
TestLocMalloc():
D:\MCU_WorkSpace\IntegrationTest\mcu4in_IT\function_cpus\application/main.c:100

void TestLocMalloc() {
  101f60:	7179                	addi	sp,sp,-48
  101f62:	d606                	sw	ra,44(sp)
  101f64:	d422                	sw	s0,40(sp)
  101f66:	1800                	addi	s0,sp,48
D:\MCU_WorkSpace\IntegrationTest\mcu4in_IT\function_cpus\application/main.c:101
  int* local = (int*)pml_loc_malloc(sizeof(int));
  101f68:	4511                	li	a0,4
  101f6a:	ac6ff0ef          	jal	ra,101230 <pml_loc_malloc>
  101f6e:	87aa                	mv	a5,a0
  101f70:	fef42223          	sw	a5,-28(s0)
D:\MCU_WorkSpace\IntegrationTest\mcu4in_IT\function_cpus\application/main.c:102
  *local = 100;
  101f74:	fe442783          	lw	a5,-28(s0)
  101f78:	06400713          	li	a4,100
  101f7c:	c398                	sw	a4,0(a5)
D:\MCU_WorkSpace\IntegrationTest\mcu4in_IT\function_cpus\application/main.c:103
  uart_printf("0-*local=%d!\r\n", *local);
  101f7e:	fe442783          	lw	a5,-28(s0)
  101f82:	439c                	lw	a5,0(a5)
  101f84:	85be                	mv	a1,a5
  101f86:	001037b7          	lui	a5,0x103
  101f8a:	18878513          	addi	a0,a5,392 # 103188 <cmap+0xa4>
  101f8e:	3c49                	jal	101a20 <uart_printf>
D:\MCU_WorkSpace\IntegrationTest\mcu4in_IT\function_cpus\application/main.c:104
  int t = 0;
  101f90:	fe042023          	sw	zero,-32(s0)
D:\MCU_WorkSpace\IntegrationTest\mcu4in_IT\function_cpus\application/main.c:106

  EVENT_END_WITH_LABEL(6);
  101f94:	fc042e23          	sw	zero,-36(s0)
  101f98:	fdc40793          	addi	a5,s0,-36
  101f9c:	853e                	mv	a0,a5
  101f9e:	b0afe0ef          	jal	ra,1002a8 <pml_get_sp>
  101fa2:	2012e7b7          	lui	a5,0x2012e
  101fa6:	fdc42703          	lw	a4,-36(s0)
  101faa:	c398                	sw	a4,0(a5)
  101fac:	410007b7          	lui	a5,0x41000
  101fb0:	03478793          	addi	a5,a5,52 # 41000034 <__stack+0x20ed4034>
  101fb4:	4719                	li	a4,6
  101fb6:	c398                	sw	a4,0(a5)
  101fb8:	410007b7          	lui	a5,0x41000
  101fbc:	07f1                	addi	a5,a5,28
  101fbe:	4705                	li	a4,1
  101fc0:	c398                	sw	a4,0(a5)
  101fc2:	c8eff0ef          	jal	ra,101450 <event_delay>
D:\MCU_WorkSpace\IntegrationTest\mcu4in_IT\function_cpus\application/main.c:107
  for (int i = 0; i < 10; i++) {
  101fc6:	fe042623          	sw	zero,-20(s0)
  101fca:	a831                	j	101fe6 <TestLocMalloc+0x86>
D:\MCU_WorkSpace\IntegrationTest\mcu4in_IT\function_cpus\application/main.c:108 (discriminator 3)
    *local = *local - 1;
  101fcc:	fe442783          	lw	a5,-28(s0)
  101fd0:	439c                	lw	a5,0(a5)
  101fd2:	fff78713          	addi	a4,a5,-1 # 40ffffff <__stack+0x20ed3fff>
  101fd6:	fe442783          	lw	a5,-28(s0)
  101fda:	c398                	sw	a4,0(a5)
D:\MCU_WorkSpace\IntegrationTest\mcu4in_IT\function_cpus\application/main.c:107 (discriminator 3)
  for (int i = 0; i < 10; i++) {
  101fdc:	fec42783          	lw	a5,-20(s0)
  101fe0:	0785                	addi	a5,a5,1
  101fe2:	fef42623          	sw	a5,-20(s0)
D:\MCU_WorkSpace\IntegrationTest\mcu4in_IT\function_cpus\application/main.c:107 (discriminator 1)
  101fe6:	fec42703          	lw	a4,-20(s0)
  101fea:	47a5                	li	a5,9
  101fec:	fee7d0e3          	bge	a5,a4,101fcc <TestLocMalloc+0x6c>
D:\MCU_WorkSpace\IntegrationTest\mcu4in_IT\function_cpus\application/main.c:110
  }
  uart_printf("6-*local=%d!\r\n", *local);
  101ff0:	fe442783          	lw	a5,-28(s0)
  101ff4:	439c                	lw	a5,0(a5)
  101ff6:	85be                	mv	a1,a5
  101ff8:	001037b7          	lui	a5,0x103
  101ffc:	19878513          	addi	a0,a5,408 # 103198 <cmap+0xb4>
  102000:	3405                	jal	101a20 <uart_printf>
D:\MCU_WorkSpace\IntegrationTest\mcu4in_IT\function_cpus\application/main.c:112

  EVENT_END_WITH_LABEL(7);
  102002:	fc042c23          	sw	zero,-40(s0)
  102006:	fd840793          	addi	a5,s0,-40
  10200a:	853e                	mv	a0,a5
  10200c:	a9cfe0ef          	jal	ra,1002a8 <pml_get_sp>
  102010:	2012e7b7          	lui	a5,0x2012e
  102014:	fd842703          	lw	a4,-40(s0)
  102018:	c398                	sw	a4,0(a5)
  10201a:	410007b7          	lui	a5,0x41000
  10201e:	03478793          	addi	a5,a5,52 # 41000034 <__stack+0x20ed4034>
  102022:	471d                	li	a4,7
  102024:	c398                	sw	a4,0(a5)
  102026:	410007b7          	lui	a5,0x41000
  10202a:	07f1                	addi	a5,a5,28
  10202c:	4705                	li	a4,1
  10202e:	c398                	sw	a4,0(a5)
  102030:	c20ff0ef          	jal	ra,101450 <event_delay>
D:\MCU_WorkSpace\IntegrationTest\mcu4in_IT\function_cpus\application/main.c:113
  for (int i = 0; i < 10; i++) {
  102034:	fe042423          	sw	zero,-24(s0)
  102038:	a831                	j	102054 <TestLocMalloc+0xf4>
D:\MCU_WorkSpace\IntegrationTest\mcu4in_IT\function_cpus\application/main.c:114 (discriminator 3)
    *local = *local - 1;
  10203a:	fe442783          	lw	a5,-28(s0)
  10203e:	439c                	lw	a5,0(a5)
  102040:	fff78713          	addi	a4,a5,-1 # 40ffffff <__stack+0x20ed3fff>
  102044:	fe442783          	lw	a5,-28(s0)
  102048:	c398                	sw	a4,0(a5)
D:\MCU_WorkSpace\IntegrationTest\mcu4in_IT\function_cpus\application/main.c:113 (discriminator 3)
  for (int i = 0; i < 10; i++) {
  10204a:	fe842783          	lw	a5,-24(s0)
  10204e:	0785                	addi	a5,a5,1
  102050:	fef42423          	sw	a5,-24(s0)
D:\MCU_WorkSpace\IntegrationTest\mcu4in_IT\function_cpus\application/main.c:113 (discriminator 1)
  102054:	fe842703          	lw	a4,-24(s0)
  102058:	47a5                	li	a5,9
  10205a:	fee7d0e3          	bge	a5,a4,10203a <TestLocMalloc+0xda>
D:\MCU_WorkSpace\IntegrationTest\mcu4in_IT\function_cpus\application/main.c:116
  }
  uart_printf("7-*local=%d!\r\n", *local);
  10205e:	fe442783          	lw	a5,-28(s0)
  102062:	439c                	lw	a5,0(a5)
  102064:	85be                	mv	a1,a5
  102066:	001037b7          	lui	a5,0x103
  10206a:	1a878513          	addi	a0,a5,424 # 1031a8 <cmap+0xc4>
  10206e:	3a4d                	jal	101a20 <uart_printf>
D:\MCU_WorkSpace\IntegrationTest\mcu4in_IT\function_cpus\application/main.c:118

  if (t == 0) {
  102070:	fe042783          	lw	a5,-32(s0)
  102074:	eb9d                	bnez	a5,1020aa <TestLocMalloc+0x14a>
D:\MCU_WorkSpace\IntegrationTest\mcu4in_IT\function_cpus\application/main.c:119
    t = 1;
  102076:	4785                	li	a5,1
  102078:	fef42023          	sw	a5,-32(s0)
D:\MCU_WorkSpace\IntegrationTest\mcu4in_IT\function_cpus\application/main.c:120
    pml_loc_restore();
  10207c:	b04ff0ef          	jal	ra,101380 <pml_loc_restore>
D:\MCU_WorkSpace\IntegrationTest\mcu4in_IT\function_cpus\application/main.c:122
    // uart_printf("7-restored!\r\n");
    RESTORE_FINISH = 0x1;
  102080:	410007b7          	lui	a5,0x41000
  102084:	07e1                	addi	a5,a5,24
  102086:	4705                	li	a4,1
  102088:	c398                	sw	a4,0(a5)
D:\MCU_WorkSpace\IntegrationTest\mcu4in_IT\function_cpus\application/main.c:124
    // uart_printf("7-restore finished!\r\n");
    unsigned* lad = NULL;
  10208a:	fc042a23          	sw	zero,-44(s0)
D:\MCU_WorkSpace\IntegrationTest\mcu4in_IT\function_cpus\application/main.c:125
    GetLabelAddr(LAST_PASS_EVENT_INDEX, &lad);
  10208e:	410007b7          	lui	a5,0x41000
  102092:	03c78793          	addi	a5,a5,60 # 4100003c <__stack+0x20ed403c>
  102096:	439c                	lw	a5,0(a5)
  102098:	fd440713          	addi	a4,s0,-44
  10209c:	85ba                	mv	a1,a4
  10209e:	853e                	mv	a0,a5
  1020a0:	8b0ff0ef          	jal	ra,101150 <GetLabelAddr>
D:\MCU_WorkSpace\IntegrationTest\mcu4in_IT\function_cpus\application/main.c:127
    // uart_printf("id=%d, addr=%x,%x!\r\n", LAST_PASS_EVENT_INDEX, lad, *lad);
    goto *lad;
  1020a4:	fd442783          	lw	a5,-44(s0)
  1020a8:	8782                	jr	a5
D:\MCU_WorkSpace\IntegrationTest\mcu4in_IT\function_cpus\application/main.c:130
  }

  *local = *local - 1;
  1020aa:	fe442783          	lw	a5,-28(s0)
  1020ae:	439c                	lw	a5,0(a5)
  1020b0:	fff78713          	addi	a4,a5,-1
  1020b4:	fe442783          	lw	a5,-28(s0)
  1020b8:	c398                	sw	a4,0(a5)
D:\MCU_WorkSpace\IntegrationTest\mcu4in_IT\function_cpus\application/main.c:131
  uart_printf("9-*local=%d!\r\n", *local);
  1020ba:	fe442783          	lw	a5,-28(s0)
  1020be:	439c                	lw	a5,0(a5)
  1020c0:	85be                	mv	a1,a5
  1020c2:	001037b7          	lui	a5,0x103
  1020c6:	1b878513          	addi	a0,a5,440 # 1031b8 <cmap+0xd4>
  1020ca:	957ff0ef          	jal	ra,101a20 <uart_printf>
D:\MCU_WorkSpace\IntegrationTest\mcu4in_IT\function_cpus\application/main.c:132
  if (*local == 79) {
  1020ce:	fe442783          	lw	a5,-28(s0)
  1020d2:	4398                	lw	a4,0(a5)
  1020d4:	04f00793          	li	a5,79
  1020d8:	00f71963          	bne	a4,a5,1020ea <TestLocMalloc+0x18a>
D:\MCU_WorkSpace\IntegrationTest\mcu4in_IT\function_cpus\application/main.c:133
    uart_printf("SRAM LocMalloc Test Passed!\r\n");
  1020dc:	001037b7          	lui	a5,0x103
  1020e0:	1c878513          	addi	a0,a5,456 # 1031c8 <cmap+0xe4>
  1020e4:	93dff0ef          	jal	ra,101a20 <uart_printf>
D:\MCU_WorkSpace\IntegrationTest\mcu4in_IT\function_cpus\application/main.c:137
  } else {
    uart_printf("SRAM LocMalloc Test Failed, chk_pass_cnt = %d, %d, %d!!!\r\n", S0_CHK_PASS_CNT, S1_CHK_PASS_CNT, S2_CHK_PASS_CNT);
  }
}
  1020e8:	a805                	j	102118 <TestLocMalloc+0x1b8>
D:\MCU_WorkSpace\IntegrationTest\mcu4in_IT\function_cpus\application/main.c:135
    uart_printf("SRAM LocMalloc Test Failed, chk_pass_cnt = %d, %d, %d!!!\r\n", S0_CHK_PASS_CNT, S1_CHK_PASS_CNT, S2_CHK_PASS_CNT);
  1020ea:	410007b7          	lui	a5,0x41000
  1020ee:	04878793          	addi	a5,a5,72 # 41000048 <__stack+0x20ed4048>
  1020f2:	4398                	lw	a4,0(a5)
  1020f4:	410007b7          	lui	a5,0x41000
  1020f8:	04c78793          	addi	a5,a5,76 # 4100004c <__stack+0x20ed404c>
  1020fc:	4390                	lw	a2,0(a5)
  1020fe:	410007b7          	lui	a5,0x41000
  102102:	05078793          	addi	a5,a5,80 # 41000050 <__stack+0x20ed4050>
  102106:	439c                	lw	a5,0(a5)
  102108:	86be                	mv	a3,a5
  10210a:	85ba                	mv	a1,a4
  10210c:	001037b7          	lui	a5,0x103
  102110:	1e878513          	addi	a0,a5,488 # 1031e8 <cmap+0x104>
  102114:	90dff0ef          	jal	ra,101a20 <uart_printf>
D:\MCU_WorkSpace\IntegrationTest\mcu4in_IT\function_cpus\application/main.c:137
}
  102118:	0001                	nop
  10211a:	50b2                	lw	ra,44(sp)
  10211c:	5422                	lw	s0,40(sp)
  10211e:	6145                	addi	sp,sp,48
  102120:	8082                	ret
  102122:	0001                	nop
  102124:	00000013          	nop
  102128:	00000013          	nop
  10212c:	00000013          	nop

00102130 <TestSRAM>:
TestSRAM():
D:\MCU_WorkSpace\IntegrationTest\mcu4in_IT\function_cpus\application/main.c:139

void TestSRAM() {
  102130:	7179                	addi	sp,sp,-48
  102132:	d606                	sw	ra,44(sp)
  102134:	d422                	sw	s0,40(sp)
  102136:	1800                	addi	s0,sp,48
D:\MCU_WorkSpace\IntegrationTest\mcu4in_IT\function_cpus\application/main.c:140
  unsigned int results = 1;
  102138:	4785                	li	a5,1
  10213a:	fef42623          	sw	a5,-20(s0)
D:\MCU_WorkSpace\IntegrationTest\mcu4in_IT\function_cpus\application/main.c:142

  unsigned int sram_data = 0;
  10213e:	fe042423          	sw	zero,-24(s0)
D:\MCU_WorkSpace\IntegrationTest\mcu4in_IT\function_cpus\application/main.c:143
  unsigned int sram_data_new = 0;
  102142:	fe042223          	sw	zero,-28(s0)
D:\MCU_WorkSpace\IntegrationTest\mcu4in_IT\function_cpus\application/main.c:145

  unsigned target_addr = 0;
  102146:	fe042023          	sw	zero,-32(s0)
D:\MCU_WorkSpace\IntegrationTest\mcu4in_IT\function_cpus\application/main.c:146
  unsigned addr_offset = 0;
  10214a:	fc042e23          	sw	zero,-36(s0)
D:\MCU_WorkSpace\IntegrationTest\mcu4in_IT\function_cpus\application/main.c:149
  do{
    //--------------------- Test the start of contextSRAM
    addr_offset = 4; // HJJ the first word fixed as offset while malloc
  10214e:	4791                	li	a5,4
  102150:	fcf42e23          	sw	a5,-36(s0)
D:\MCU_WorkSpace\IntegrationTest\mcu4in_IT\function_cpus\application/main.c:150
    target_addr = LOC_SRAM_BASEADDR + addr_offset;
  102154:	fdc42703          	lw	a4,-36(s0)
  102158:	2012c7b7          	lui	a5,0x2012c
  10215c:	97ba                	add	a5,a5,a4
  10215e:	fef42023          	sw	a5,-32(s0)
D:\MCU_WorkSpace\IntegrationTest\mcu4in_IT\function_cpus\application/main.c:151
    sram_data = (*(volatile unsigned *)target_addr);
  102162:	fe042783          	lw	a5,-32(s0)
  102166:	439c                	lw	a5,0(a5)
  102168:	fef42423          	sw	a5,-24(s0)
D:\MCU_WorkSpace\IntegrationTest\mcu4in_IT\function_cpus\application/main.c:159
#endif
#ifdef TARGET_ARM
    results = (sram_data == 345) ? results : 1002;
#endif
#ifdef TARGET_RISCV
    results = (sram_data == 567) ? results : 1003;
  10216c:	fe842703          	lw	a4,-24(s0)
  102170:	23700793          	li	a5,567
  102174:	00f71563          	bne	a4,a5,10217e <TestSRAM+0x4e>
D:\MCU_WorkSpace\IntegrationTest\mcu4in_IT\function_cpus\application/main.c:159 (discriminator 1)
  102178:	fec42783          	lw	a5,-20(s0)
  10217c:	a019                	j	102182 <TestSRAM+0x52>
D:\MCU_WorkSpace\IntegrationTest\mcu4in_IT\function_cpus\application/main.c:159 (discriminator 2)
  10217e:	3eb00793          	li	a5,1003
D:\MCU_WorkSpace\IntegrationTest\mcu4in_IT\function_cpus\application/main.c:159 (discriminator 4)
  102182:	fef42623          	sw	a5,-20(s0)
D:\MCU_WorkSpace\IntegrationTest\mcu4in_IT\function_cpus\application/main.c:161 (discriminator 4)
#endif
    (*(volatile unsigned *)target_addr) = 666;
  102186:	fe042783          	lw	a5,-32(s0)
  10218a:	29a00713          	li	a4,666
  10218e:	c398                	sw	a4,0(a5)
D:\MCU_WorkSpace\IntegrationTest\mcu4in_IT\function_cpus\application/main.c:162 (discriminator 4)
    sram_data_new = (*(volatile unsigned *)target_addr);
  102190:	fe042783          	lw	a5,-32(s0)
  102194:	439c                	lw	a5,0(a5)
  102196:	fef42223          	sw	a5,-28(s0)
D:\MCU_WorkSpace\IntegrationTest\mcu4in_IT\function_cpus\application/main.c:163 (discriminator 4)
    results = (sram_data_new == 666) ? results : 1004;
  10219a:	fe442703          	lw	a4,-28(s0)
  10219e:	29a00793          	li	a5,666
  1021a2:	00f71563          	bne	a4,a5,1021ac <TestSRAM+0x7c>
D:\MCU_WorkSpace\IntegrationTest\mcu4in_IT\function_cpus\application/main.c:163 (discriminator 1)
  1021a6:	fec42783          	lw	a5,-20(s0)
  1021aa:	a019                	j	1021b0 <TestSRAM+0x80>
D:\MCU_WorkSpace\IntegrationTest\mcu4in_IT\function_cpus\application/main.c:163 (discriminator 2)
  1021ac:	3ec00793          	li	a5,1004
D:\MCU_WorkSpace\IntegrationTest\mcu4in_IT\function_cpus\application/main.c:163 (discriminator 4)
  1021b0:	fef42623          	sw	a5,-20(s0)
D:\MCU_WorkSpace\IntegrationTest\mcu4in_IT\function_cpus\application/main.c:164 (discriminator 4)
    if (results != 1){
  1021b4:	fec42703          	lw	a4,-20(s0)
  1021b8:	4785                	li	a5,1
  1021ba:	14f71463          	bne	a4,a5,102302 <TestSRAM+0x1d2>
D:\MCU_WorkSpace\IntegrationTest\mcu4in_IT\function_cpus\application/main.c:169
      break;
    }

    //--------------------- Test the end of contextSRAM
    addr_offset = LOC_SRAM_SIZE - 4;
  1021be:	6791                	lui	a5,0x4
  1021c0:	17f1                	addi	a5,a5,-4
  1021c2:	fcf42e23          	sw	a5,-36(s0)
D:\MCU_WorkSpace\IntegrationTest\mcu4in_IT\function_cpus\application/main.c:170
    target_addr = LOC_SRAM_BASEADDR + addr_offset;
  1021c6:	fdc42703          	lw	a4,-36(s0)
  1021ca:	2012c7b7          	lui	a5,0x2012c
  1021ce:	97ba                	add	a5,a5,a4
  1021d0:	fef42023          	sw	a5,-32(s0)
D:\MCU_WorkSpace\IntegrationTest\mcu4in_IT\function_cpus\application/main.c:171
    sram_data = (*(volatile unsigned *)target_addr);
  1021d4:	fe042783          	lw	a5,-32(s0)
  1021d8:	439c                	lw	a5,0(a5)
  1021da:	fef42423          	sw	a5,-24(s0)
D:\MCU_WorkSpace\IntegrationTest\mcu4in_IT\function_cpus\application/main.c:179
  #endif
  #ifdef TARGET_ARM
    results = (sram_data == 456) ? results : 1006;
  #endif
  #ifdef TARGET_RISCV
    results = (sram_data == 678) ? results : 1007;
  1021de:	fe842703          	lw	a4,-24(s0)
  1021e2:	2a600793          	li	a5,678
  1021e6:	00f71563          	bne	a4,a5,1021f0 <TestSRAM+0xc0>
D:\MCU_WorkSpace\IntegrationTest\mcu4in_IT\function_cpus\application/main.c:179 (discriminator 1)
  1021ea:	fec42783          	lw	a5,-20(s0)
  1021ee:	a019                	j	1021f4 <TestSRAM+0xc4>
D:\MCU_WorkSpace\IntegrationTest\mcu4in_IT\function_cpus\application/main.c:179 (discriminator 2)
  1021f0:	3ef00793          	li	a5,1007
D:\MCU_WorkSpace\IntegrationTest\mcu4in_IT\function_cpus\application/main.c:179 (discriminator 4)
  1021f4:	fef42623          	sw	a5,-20(s0)
D:\MCU_WorkSpace\IntegrationTest\mcu4in_IT\function_cpus\application/main.c:181 (discriminator 4)
  #endif
    (*(volatile unsigned *)target_addr) = 777;
  1021f8:	fe042783          	lw	a5,-32(s0)
  1021fc:	30900713          	li	a4,777
  102200:	c398                	sw	a4,0(a5)
D:\MCU_WorkSpace\IntegrationTest\mcu4in_IT\function_cpus\application/main.c:182 (discriminator 4)
    sram_data_new = (*(volatile unsigned *)target_addr);
  102202:	fe042783          	lw	a5,-32(s0)
  102206:	439c                	lw	a5,0(a5)
  102208:	fef42223          	sw	a5,-28(s0)
D:\MCU_WorkSpace\IntegrationTest\mcu4in_IT\function_cpus\application/main.c:183 (discriminator 4)
    results = (sram_data_new == 777) ? results : 1008;
  10220c:	fe442703          	lw	a4,-28(s0)
  102210:	30900793          	li	a5,777
  102214:	00f71563          	bne	a4,a5,10221e <TestSRAM+0xee>
D:\MCU_WorkSpace\IntegrationTest\mcu4in_IT\function_cpus\application/main.c:183 (discriminator 1)
  102218:	fec42783          	lw	a5,-20(s0)
  10221c:	a019                	j	102222 <TestSRAM+0xf2>
D:\MCU_WorkSpace\IntegrationTest\mcu4in_IT\function_cpus\application/main.c:183 (discriminator 2)
  10221e:	3f000793          	li	a5,1008
D:\MCU_WorkSpace\IntegrationTest\mcu4in_IT\function_cpus\application/main.c:183 (discriminator 4)
  102222:	fef42623          	sw	a5,-20(s0)
D:\MCU_WorkSpace\IntegrationTest\mcu4in_IT\function_cpus\application/main.c:184 (discriminator 4)
    if (results != 1){
  102226:	fec42703          	lw	a4,-20(s0)
  10222a:	4785                	li	a5,1
  10222c:	0cf71d63          	bne	a4,a5,102306 <TestSRAM+0x1d6>
D:\MCU_WorkSpace\IntegrationTest\mcu4in_IT\function_cpus\application/main.c:189
      break;
    }

    //--------------------- Test the start of CommonSRAM
    addr_offset = 4;
  102230:	4791                	li	a5,4
  102232:	fcf42e23          	sw	a5,-36(s0)
D:\MCU_WorkSpace\IntegrationTest\mcu4in_IT\function_cpus\application/main.c:190
    target_addr = COM_SRAM_BASEADDR + addr_offset;
  102236:	fdc42703          	lw	a4,-36(s0)
  10223a:	440007b7          	lui	a5,0x44000
  10223e:	97ba                	add	a5,a5,a4
  102240:	fef42023          	sw	a5,-32(s0)
D:\MCU_WorkSpace\IntegrationTest\mcu4in_IT\function_cpus\application/main.c:191
    sram_data = (*(volatile unsigned *)target_addr);
  102244:	fe042783          	lw	a5,-32(s0)
  102248:	439c                	lw	a5,0(a5)
  10224a:	fef42423          	sw	a5,-24(s0)
D:\MCU_WorkSpace\IntegrationTest\mcu4in_IT\function_cpus\application/main.c:192
    results = (sram_data == 789) ? results : 1009;
  10224e:	fe842703          	lw	a4,-24(s0)
  102252:	31500793          	li	a5,789
  102256:	00f71563          	bne	a4,a5,102260 <TestSRAM+0x130>
D:\MCU_WorkSpace\IntegrationTest\mcu4in_IT\function_cpus\application/main.c:192 (discriminator 1)
  10225a:	fec42783          	lw	a5,-20(s0)
  10225e:	a019                	j	102264 <TestSRAM+0x134>
D:\MCU_WorkSpace\IntegrationTest\mcu4in_IT\function_cpus\application/main.c:192 (discriminator 2)
  102260:	3f100793          	li	a5,1009
D:\MCU_WorkSpace\IntegrationTest\mcu4in_IT\function_cpus\application/main.c:192 (discriminator 4)
  102264:	fef42623          	sw	a5,-20(s0)
D:\MCU_WorkSpace\IntegrationTest\mcu4in_IT\function_cpus\application/main.c:193 (discriminator 4)
    (*(volatile unsigned *)target_addr) = 888;
  102268:	fe042783          	lw	a5,-32(s0)
  10226c:	37800713          	li	a4,888
  102270:	c398                	sw	a4,0(a5)
D:\MCU_WorkSpace\IntegrationTest\mcu4in_IT\function_cpus\application/main.c:194 (discriminator 4)
    sram_data_new = (*(volatile unsigned *)target_addr);
  102272:	fe042783          	lw	a5,-32(s0)
  102276:	439c                	lw	a5,0(a5)
  102278:	fef42223          	sw	a5,-28(s0)
D:\MCU_WorkSpace\IntegrationTest\mcu4in_IT\function_cpus\application/main.c:195 (discriminator 4)
    results = (sram_data_new == 888) ? results : 1010;
  10227c:	fe442703          	lw	a4,-28(s0)
  102280:	37800793          	li	a5,888
  102284:	00f71563          	bne	a4,a5,10228e <TestSRAM+0x15e>
D:\MCU_WorkSpace\IntegrationTest\mcu4in_IT\function_cpus\application/main.c:195 (discriminator 1)
  102288:	fec42783          	lw	a5,-20(s0)
  10228c:	a019                	j	102292 <TestSRAM+0x162>
D:\MCU_WorkSpace\IntegrationTest\mcu4in_IT\function_cpus\application/main.c:195 (discriminator 2)
  10228e:	3f200793          	li	a5,1010
D:\MCU_WorkSpace\IntegrationTest\mcu4in_IT\function_cpus\application/main.c:195 (discriminator 4)
  102292:	fef42623          	sw	a5,-20(s0)
D:\MCU_WorkSpace\IntegrationTest\mcu4in_IT\function_cpus\application/main.c:199 (discriminator 4)
    // uart_printf("the start of CommonSRAM: %d --> %d. \r\n", sram_data, sram_data_new);

    //--------------------- Test the end of CommonSRAM
    addr_offset = COM_SRAM_SIZE - 4;
  102296:	000207b7          	lui	a5,0x20
  10229a:	17f1                	addi	a5,a5,-4
  10229c:	fcf42e23          	sw	a5,-36(s0)
D:\MCU_WorkSpace\IntegrationTest\mcu4in_IT\function_cpus\application/main.c:200 (discriminator 4)
    target_addr = COM_SRAM_BASEADDR + addr_offset;
  1022a0:	fdc42703          	lw	a4,-36(s0)
  1022a4:	440007b7          	lui	a5,0x44000
  1022a8:	97ba                	add	a5,a5,a4
  1022aa:	fef42023          	sw	a5,-32(s0)
D:\MCU_WorkSpace\IntegrationTest\mcu4in_IT\function_cpus\application/main.c:201 (discriminator 4)
    sram_data = (*(volatile unsigned *)target_addr);
  1022ae:	fe042783          	lw	a5,-32(s0)
  1022b2:	439c                	lw	a5,0(a5)
  1022b4:	fef42423          	sw	a5,-24(s0)
D:\MCU_WorkSpace\IntegrationTest\mcu4in_IT\function_cpus\application/main.c:202 (discriminator 4)
    results = (sram_data == 890) ? results : 1011;
  1022b8:	fe842703          	lw	a4,-24(s0)
  1022bc:	37a00793          	li	a5,890
  1022c0:	00f71563          	bne	a4,a5,1022ca <TestSRAM+0x19a>
D:\MCU_WorkSpace\IntegrationTest\mcu4in_IT\function_cpus\application/main.c:202 (discriminator 1)
  1022c4:	fec42783          	lw	a5,-20(s0)
  1022c8:	a019                	j	1022ce <TestSRAM+0x19e>
D:\MCU_WorkSpace\IntegrationTest\mcu4in_IT\function_cpus\application/main.c:202 (discriminator 2)
  1022ca:	3f300793          	li	a5,1011
D:\MCU_WorkSpace\IntegrationTest\mcu4in_IT\function_cpus\application/main.c:202 (discriminator 4)
  1022ce:	fef42623          	sw	a5,-20(s0)
D:\MCU_WorkSpace\IntegrationTest\mcu4in_IT\function_cpus\application/main.c:203 (discriminator 4)
    (*(volatile unsigned *)target_addr) = 999;
  1022d2:	fe042783          	lw	a5,-32(s0)
  1022d6:	3e700713          	li	a4,999
  1022da:	c398                	sw	a4,0(a5)
D:\MCU_WorkSpace\IntegrationTest\mcu4in_IT\function_cpus\application/main.c:204 (discriminator 4)
    sram_data_new = (*(volatile unsigned *)target_addr);
  1022dc:	fe042783          	lw	a5,-32(s0)
  1022e0:	439c                	lw	a5,0(a5)
  1022e2:	fef42223          	sw	a5,-28(s0)
D:\MCU_WorkSpace\IntegrationTest\mcu4in_IT\function_cpus\application/main.c:205 (discriminator 4)
    results = (sram_data_new == 999) ? results : 1012;
  1022e6:	fe442703          	lw	a4,-28(s0)
  1022ea:	3e700793          	li	a5,999
  1022ee:	00f71563          	bne	a4,a5,1022f8 <TestSRAM+0x1c8>
D:\MCU_WorkSpace\IntegrationTest\mcu4in_IT\function_cpus\application/main.c:205 (discriminator 1)
  1022f2:	fec42783          	lw	a5,-20(s0)
  1022f6:	a019                	j	1022fc <TestSRAM+0x1cc>
D:\MCU_WorkSpace\IntegrationTest\mcu4in_IT\function_cpus\application/main.c:205 (discriminator 2)
  1022f8:	3f400793          	li	a5,1012
D:\MCU_WorkSpace\IntegrationTest\mcu4in_IT\function_cpus\application/main.c:205 (discriminator 4)
  1022fc:	fef42623          	sw	a5,-20(s0)
D:\MCU_WorkSpace\IntegrationTest\mcu4in_IT\function_cpus\application/main.c:208 (discriminator 4)
    // uart_printf("the   end of CommonSRAM: %d --> %d. \r\n", sram_data, sram_data_new);

    break;
  102300:	a021                	j	102308 <TestSRAM+0x1d8>
D:\MCU_WorkSpace\IntegrationTest\mcu4in_IT\function_cpus\application/main.c:165
      break;
  102302:	0001                	nop
  102304:	a011                	j	102308 <TestSRAM+0x1d8>
D:\MCU_WorkSpace\IntegrationTest\mcu4in_IT\function_cpus\application/main.c:185
      break;
  102306:	0001                	nop
D:\MCU_WorkSpace\IntegrationTest\mcu4in_IT\function_cpus\application/main.c:211
  } while(1);

  if (results == 1) {
  102308:	fec42703          	lw	a4,-20(s0)
  10230c:	4785                	li	a5,1
  10230e:	00f71963          	bne	a4,a5,102320 <TestSRAM+0x1f0>
D:\MCU_WorkSpace\IntegrationTest\mcu4in_IT\function_cpus\application/main.c:212
    uart_printf("SRAM Test Passed!\r\n");
  102312:	001037b7          	lui	a5,0x103
  102316:	22478513          	addi	a0,a5,548 # 103224 <cmap+0x140>
  10231a:	f06ff0ef          	jal	ra,101a20 <uart_printf>
D:\MCU_WorkSpace\IntegrationTest\mcu4in_IT\function_cpus\application/main.c:216
  } else {
    uart_printf("SRAM Test Failed, errCode=%d!!!\r\n", results);
  }
}
  10231e:	a809                	j	102330 <TestSRAM+0x200>
D:\MCU_WorkSpace\IntegrationTest\mcu4in_IT\function_cpus\application/main.c:214
    uart_printf("SRAM Test Failed, errCode=%d!!!\r\n", results);
  102320:	fec42583          	lw	a1,-20(s0)
  102324:	001037b7          	lui	a5,0x103
  102328:	23878513          	addi	a0,a5,568 # 103238 <cmap+0x154>
  10232c:	ef4ff0ef          	jal	ra,101a20 <uart_printf>
D:\MCU_WorkSpace\IntegrationTest\mcu4in_IT\function_cpus\application/main.c:216
}
  102330:	0001                	nop
  102332:	50b2                	lw	ra,44(sp)
  102334:	5422                	lw	s0,40(sp)
  102336:	6145                	addi	sp,sp,48
  102338:	8082                	ret
  10233a:	00000013          	nop
  10233e:	0001                	nop

00102340 <TestCPUVary>:
TestCPUVary():
D:\MCU_WorkSpace\IntegrationTest\mcu4in_IT\function_cpus\application/main.c:238
   {"kVarySelect, @ABCDEFGHIJ!\n"},
   {"kVarySelect, @1234567890!\n"}
  }
};

void TestCPUVary(const VaryStrategyTypes strategy, const unsigned scenario) {
  102340:	7139                	addi	sp,sp,-64
  102342:	de06                	sw	ra,60(sp)
  102344:	dc22                	sw	s0,56(sp)
  102346:	0080                	addi	s0,sp,64
  102348:	fca42623          	sw	a0,-52(s0)
  10234c:	fcb42423          	sw	a1,-56(s0)
D:\MCU_WorkSpace\IntegrationTest\mcu4in_IT\function_cpus\application/main.c:239
  int t = 0;
  102350:	fe042623          	sw	zero,-20(s0)
D:\MCU_WorkSpace\IntegrationTest\mcu4in_IT\function_cpus\application/main.c:240
  if (RD_RESTORE_FROM_CHECKER == 1) {
  102354:	410007b7          	lui	a5,0x41000
  102358:	02078793          	addi	a5,a5,32 # 41000020 <__stack+0x20ed4020>
  10235c:	4398                	lw	a4,0(a5)
  10235e:	4785                	li	a5,1
  102360:	06f71263          	bne	a4,a5,1023c4 <TestCPUVary+0x84>
D:\MCU_WorkSpace\IntegrationTest\mcu4in_IT\function_cpus\application/main.c:241
    if (ALL_CPU_ERROR == 1) {
  102364:	410007b7          	lui	a5,0x41000
  102368:	03878793          	addi	a5,a5,56 # 41000038 <__stack+0x20ed4038>
  10236c:	4398                	lw	a4,0(a5)
  10236e:	4785                	li	a5,1
  102370:	06f71b63          	bne	a4,a5,1023e6 <TestCPUVary+0xa6>
D:\MCU_WorkSpace\IntegrationTest\mcu4in_IT\function_cpus\application/main.c:242
      pml_stack_restore();
  102374:	f55fd0ef          	jal	ra,1002c8 <pml_stack_restore>
D:\MCU_WorkSpace\IntegrationTest\mcu4in_IT\function_cpus\application/main.c:243
      pml_loc_restore();
  102378:	808ff0ef          	jal	ra,101380 <pml_loc_restore>
D:\MCU_WorkSpace\IntegrationTest\mcu4in_IT\function_cpus\application/main.c:244
      t = 1;
  10237c:	4785                	li	a5,1
  10237e:	fef42623          	sw	a5,-20(s0)
D:\MCU_WorkSpace\IntegrationTest\mcu4in_IT\function_cpus\application/main.c:245
      RESTORE_FINISH = 0x1;
  102382:	410007b7          	lui	a5,0x41000
  102386:	07e1                	addi	a5,a5,24
  102388:	4705                	li	a4,1
  10238a:	c398                	sw	a4,0(a5)
D:\MCU_WorkSpace\IntegrationTest\mcu4in_IT\function_cpus\application/main.c:246
      unsigned* lad = NULL;
  10238c:	fe042223          	sw	zero,-28(s0)
D:\MCU_WorkSpace\IntegrationTest\mcu4in_IT\function_cpus\application/main.c:247
      uart_printf("li = %d\n", LAST_PASS_EVENT_INDEX);
  102390:	410007b7          	lui	a5,0x41000
  102394:	03c78793          	addi	a5,a5,60 # 4100003c <__stack+0x20ed403c>
  102398:	439c                	lw	a5,0(a5)
  10239a:	85be                	mv	a1,a5
  10239c:	001037b7          	lui	a5,0x103
  1023a0:	25c78513          	addi	a0,a5,604 # 10325c <cmap+0x178>
  1023a4:	e7cff0ef          	jal	ra,101a20 <uart_printf>
D:\MCU_WorkSpace\IntegrationTest\mcu4in_IT\function_cpus\application/main.c:248
      GetLabelAddr(LAST_PASS_EVENT_INDEX, &lad);
  1023a8:	410007b7          	lui	a5,0x41000
  1023ac:	03c78793          	addi	a5,a5,60 # 4100003c <__stack+0x20ed403c>
  1023b0:	439c                	lw	a5,0(a5)
  1023b2:	fe440713          	addi	a4,s0,-28
  1023b6:	85ba                	mv	a1,a4
  1023b8:	853e                	mv	a0,a5
  1023ba:	d97fe0ef          	jal	ra,101150 <GetLabelAddr>
D:\MCU_WorkSpace\IntegrationTest\mcu4in_IT\function_cpus\application/main.c:249
      goto *lad;
  1023be:	fe442783          	lw	a5,-28(s0)
  1023c2:	8782                	jr	a5
D:\MCU_WorkSpace\IntegrationTest\mcu4in_IT\function_cpus\application/main.c:251
    }
  } else if (CTRL_RST_FLAG == 1)
  1023c4:	410007b7          	lui	a5,0x41000
  1023c8:	05878793          	addi	a5,a5,88 # 41000058 <__stack+0x20ed4058>
  1023cc:	4398                	lw	a4,0(a5)
  1023ce:	4785                	li	a5,1
  1023d0:	00f71b63          	bne	a4,a5,1023e6 <TestCPUVary+0xa6>
D:\MCU_WorkSpace\IntegrationTest\mcu4in_IT\function_cpus\application/main.c:253
  {
    t = 1;
  1023d4:	4785                	li	a5,1
  1023d6:	fef42623          	sw	a5,-20(s0)
D:\MCU_WorkSpace\IntegrationTest\mcu4in_IT\function_cpus\application/main.c:254
    CTRL_RST_FLAG = 0;
  1023da:	410007b7          	lui	a5,0x41000
  1023de:	05878793          	addi	a5,a5,88 # 41000058 <__stack+0x20ed4058>
  1023e2:	0007a023          	sw	zero,0(a5)
D:\MCU_WorkSpace\IntegrationTest\mcu4in_IT\function_cpus\application/main.c:257
  }

  int* local = (int*)pml_loc_malloc(sizeof(int));
  1023e6:	4511                	li	a0,4
  1023e8:	e49fe0ef          	jal	ra,101230 <pml_loc_malloc>
  1023ec:	87aa                	mv	a5,a0
  1023ee:	fef42423          	sw	a5,-24(s0)
D:\MCU_WorkSpace\IntegrationTest\mcu4in_IT\function_cpus\application/main.c:258
  *local = 100;
  1023f2:	fe842783          	lw	a5,-24(s0)
  1023f6:	06400713          	li	a4,100
  1023fa:	c398                	sw	a4,0(a5)
D:\MCU_WorkSpace\IntegrationTest\mcu4in_IT\function_cpus\application/main.c:259
  uart_printf("o:%u\r\n", *local);
  1023fc:	fe842783          	lw	a5,-24(s0)
  102400:	439c                	lw	a5,0(a5)
  102402:	85be                	mv	a1,a5
  102404:	001037b7          	lui	a5,0x103
  102408:	26878513          	addi	a0,a5,616 # 103268 <cmap+0x184>
  10240c:	e14ff0ef          	jal	ra,101a20 <uart_printf>
D:\MCU_WorkSpace\IntegrationTest\mcu4in_IT\function_cpus\application/main.c:260
  EVENT_END_WITH_LABEL(8);
  102410:	fe042023          	sw	zero,-32(s0)
  102414:	fe040793          	addi	a5,s0,-32
  102418:	853e                	mv	a0,a5
  10241a:	e8ffd0ef          	jal	ra,1002a8 <pml_get_sp>
  10241e:	2012e7b7          	lui	a5,0x2012e
  102422:	fe042703          	lw	a4,-32(s0)
  102426:	c398                	sw	a4,0(a5)
  102428:	410007b7          	lui	a5,0x41000
  10242c:	03478793          	addi	a5,a5,52 # 41000034 <__stack+0x20ed4034>
  102430:	4721                	li	a4,8
  102432:	c398                	sw	a4,0(a5)
  102434:	410007b7          	lui	a5,0x41000
  102438:	07f1                	addi	a5,a5,28
  10243a:	4705                	li	a4,1
  10243c:	c398                	sw	a4,0(a5)
  10243e:	812ff0ef          	jal	ra,101450 <event_delay>
D:\MCU_WorkSpace\IntegrationTest\mcu4in_IT\function_cpus\application/main.c:262

  *local = *local - 10;
  102442:	fe842783          	lw	a5,-24(s0)
  102446:	439c                	lw	a5,0(a5)
  102448:	ff678713          	addi	a4,a5,-10 # 40fffff6 <__stack+0x20ed3ff6>
  10244c:	fe842783          	lw	a5,-24(s0)
  102450:	c398                	sw	a4,0(a5)
D:\MCU_WorkSpace\IntegrationTest\mcu4in_IT\function_cpus\application/main.c:263
  EVENT_END_WITH_LABEL(9);
  102452:	fc042e23          	sw	zero,-36(s0)
  102456:	fdc40793          	addi	a5,s0,-36
  10245a:	853e                	mv	a0,a5
  10245c:	e4dfd0ef          	jal	ra,1002a8 <pml_get_sp>
  102460:	2012e7b7          	lui	a5,0x2012e
  102464:	fdc42703          	lw	a4,-36(s0)
  102468:	c398                	sw	a4,0(a5)
  10246a:	410007b7          	lui	a5,0x41000
  10246e:	03478793          	addi	a5,a5,52 # 41000034 <__stack+0x20ed4034>
  102472:	4725                	li	a4,9
  102474:	c398                	sw	a4,0(a5)
  102476:	410007b7          	lui	a5,0x41000
  10247a:	07f1                	addi	a5,a5,28
  10247c:	4705                	li	a4,1
  10247e:	c398                	sw	a4,0(a5)
  102480:	fd1fe0ef          	jal	ra,101450 <event_delay>
D:\MCU_WorkSpace\IntegrationTest\mcu4in_IT\function_cpus\application/main.c:264
  if (t == 0) {
  102484:	fec42783          	lw	a5,-20(s0)
  102488:	eb85                	bnez	a5,1024b8 <TestCPUVary+0x178>
D:\MCU_WorkSpace\IntegrationTest\mcu4in_IT\function_cpus\application/main.c:272
#endif
#ifdef TARGET_ARM
    uart_printf(varyMsg[strategy][1]);
#endif
#ifdef TARGET_RISCV
    uart_printf(varyMsg[strategy][2]);
  10248a:	fcc42703          	lw	a4,-52(s0)
  10248e:	12c00793          	li	a5,300
  102492:	02f707b3          	mul	a5,a4,a5
  102496:	0c878713          	addi	a4,a5,200 # 410000c8 <__stack+0x20ed40c8>
  10249a:	201207b7          	lui	a5,0x20120
  10249e:	0c078793          	addi	a5,a5,192 # 201200c0 <varyMsg>
  1024a2:	97ba                	add	a5,a5,a4
  1024a4:	853e                	mv	a0,a5
  1024a6:	d7aff0ef          	jal	ra,101a20 <uart_printf>
D:\MCU_WorkSpace\IntegrationTest\mcu4in_IT\function_cpus\application/main.c:274
#endif
    uart_printf("\n**** Not reset but select!   ****\n");
  1024aa:	001037b7          	lui	a5,0x103
  1024ae:	27078513          	addi	a0,a5,624 # 103270 <cmap+0x18c>
  1024b2:	d6eff0ef          	jal	ra,101a20 <uart_printf>
  1024b6:	a039                	j	1024c4 <TestCPUVary+0x184>
D:\MCU_WorkSpace\IntegrationTest\mcu4in_IT\function_cpus\application/main.c:276
  } else {
    uart_printf("Reboot...end!\n");
  1024b8:	001037b7          	lui	a5,0x103
  1024bc:	29478513          	addi	a0,a5,660 # 103294 <cmap+0x1b0>
  1024c0:	d60ff0ef          	jal	ra,101a20 <uart_printf>
D:\MCU_WorkSpace\IntegrationTest\mcu4in_IT\function_cpus\application/main.c:279
  }

  *local = *local - 10;
  1024c4:	fe842783          	lw	a5,-24(s0)
  1024c8:	439c                	lw	a5,0(a5)
  1024ca:	ff678713          	addi	a4,a5,-10
  1024ce:	fe842783          	lw	a5,-24(s0)
  1024d2:	c398                	sw	a4,0(a5)
D:\MCU_WorkSpace\IntegrationTest\mcu4in_IT\function_cpus\application/main.c:280
  uart_printf("r:%d\r\n", *local);
  1024d4:	fe842783          	lw	a5,-24(s0)
  1024d8:	439c                	lw	a5,0(a5)
  1024da:	85be                	mv	a1,a5
  1024dc:	001037b7          	lui	a5,0x103
  1024e0:	2a478513          	addi	a0,a5,676 # 1032a4 <cmap+0x1c0>
  1024e4:	d3cff0ef          	jal	ra,101a20 <uart_printf>
D:\MCU_WorkSpace\IntegrationTest\mcu4in_IT\function_cpus\application/main.c:282

  uart_printf("**** chk_pass_cnt = %d, %d, %d  ****\n", S0_CHK_PASS_CNT, S1_CHK_PASS_CNT, S2_CHK_PASS_CNT);
  1024e8:	410007b7          	lui	a5,0x41000
  1024ec:	04878793          	addi	a5,a5,72 # 41000048 <__stack+0x20ed4048>
  1024f0:	4398                	lw	a4,0(a5)
  1024f2:	410007b7          	lui	a5,0x41000
  1024f6:	04c78793          	addi	a5,a5,76 # 4100004c <__stack+0x20ed404c>
  1024fa:	4390                	lw	a2,0(a5)
  1024fc:	410007b7          	lui	a5,0x41000
  102500:	05078793          	addi	a5,a5,80 # 41000050 <__stack+0x20ed4050>
  102504:	439c                	lw	a5,0(a5)
  102506:	86be                	mv	a3,a5
  102508:	85ba                	mv	a1,a4
  10250a:	001037b7          	lui	a5,0x103
  10250e:	2ac78513          	addi	a0,a5,684 # 1032ac <cmap+0x1c8>
  102512:	d0eff0ef          	jal	ra,101a20 <uart_printf>
D:\MCU_WorkSpace\IntegrationTest\mcu4in_IT\function_cpus\application/main.c:283
  if (scenario == 1) {
  102516:	fc842703          	lw	a4,-56(s0)
  10251a:	4785                	li	a5,1
  10251c:	00f71563          	bne	a4,a5,102526 <TestCPUVary+0x1e6>
D:\MCU_WorkSpace\IntegrationTest\mcu4in_IT\function_cpus\application/main.c:284
    TestUARTSimpleIRQ(HM_UART0);
  102520:	4000c537          	lui	a0,0x4000c
  102524:	24f5                	jal	102810 <TestUARTSimpleIRQ>
D:\MCU_WorkSpace\IntegrationTest\mcu4in_IT\function_cpus\application/main.c:286
  }
}
  102526:	0001                	nop
  102528:	50f2                	lw	ra,60(sp)
  10252a:	5462                	lw	s0,56(sp)
  10252c:	6121                	addi	sp,sp,64
  10252e:	8082                	ret

00102530 <TestOneCPUErr>:
TestOneCPUErr():
D:\MCU_WorkSpace\IntegrationTest\mcu4in_IT\function_cpus\application/main.c:303
  },
  {{"kIncRectify, @abcdefghijk!\n"},
   {"kIncRectify, @12345678901!\n"}
  }
};
void TestOneCPUErr(const FunctionCPUID id, const IncStrategyTypes strategy, const unsigned int scenario) {
  102530:	7139                	addi	sp,sp,-64
  102532:	de06                	sw	ra,60(sp)
  102534:	dc22                	sw	s0,56(sp)
  102536:	0080                	addi	s0,sp,64
  102538:	fca42623          	sw	a0,-52(s0)
  10253c:	fcb42423          	sw	a1,-56(s0)
  102540:	fcc42223          	sw	a2,-60(s0)
D:\MCU_WorkSpace\IntegrationTest\mcu4in_IT\function_cpus\application/main.c:304
  if (RD_RESTORE_FROM_CHECKER == 1) {
  102544:	410007b7          	lui	a5,0x41000
  102548:	02078793          	addi	a5,a5,32 # 41000020 <__stack+0x20ed4020>
  10254c:	4398                	lw	a4,0(a5)
  10254e:	4785                	li	a5,1
  102550:	06f71b63          	bne	a4,a5,1025c6 <TestOneCPUErr+0x96>
D:\MCU_WorkSpace\IntegrationTest\mcu4in_IT\function_cpus\application/main.c:305
    if (ALL_CPU_ERROR == 0) {  // one cpu err
  102554:	410007b7          	lui	a5,0x41000
  102558:	03878793          	addi	a5,a5,56 # 41000038 <__stack+0x20ed4038>
  10255c:	439c                	lw	a5,0(a5)
  10255e:	e7a5                	bnez	a5,1025c6 <TestOneCPUErr+0x96>
D:\MCU_WorkSpace\IntegrationTest\mcu4in_IT\function_cpus\application/main.c:307
      // TellSche(1);
      pml_stack_restore();
  102560:	d69fd0ef          	jal	ra,1002c8 <pml_stack_restore>
D:\MCU_WorkSpace\IntegrationTest\mcu4in_IT\function_cpus\application/main.c:309
      // pml_reg_restore();
      pml_loc_restore();
  102564:	e1dfe0ef          	jal	ra,101380 <pml_loc_restore>
D:\MCU_WorkSpace\IntegrationTest\mcu4in_IT\function_cpus\application/main.c:311
      
      RESTORE_FINISH = 0x1;
  102568:	410007b7          	lui	a5,0x41000
  10256c:	07e1                	addi	a5,a5,24
  10256e:	4705                	li	a4,1
  102570:	c398                	sw	a4,0(a5)
D:\MCU_WorkSpace\IntegrationTest\mcu4in_IT\function_cpus\application/main.c:314
      
      while (1) {
        if (OTHER_CPU1_EVENT_END && OTHER_CPU2_EVENT_END) {
  102572:	410007b7          	lui	a5,0x41000
  102576:	02478793          	addi	a5,a5,36 # 41000024 <__stack+0x20ed4024>
  10257a:	439c                	lw	a5,0(a5)
  10257c:	dbfd                	beqz	a5,102572 <TestOneCPUErr+0x42>
D:\MCU_WorkSpace\IntegrationTest\mcu4in_IT\function_cpus\application/main.c:314 (discriminator 1)
  10257e:	410007b7          	lui	a5,0x41000
  102582:	02878793          	addi	a5,a5,40 # 41000028 <__stack+0x20ed4028>
  102586:	439c                	lw	a5,0(a5)
  102588:	d7ed                	beqz	a5,102572 <TestOneCPUErr+0x42>
D:\MCU_WorkSpace\IntegrationTest\mcu4in_IT\function_cpus\application/main.c:315
          if (OTHER_CPU1_EVENT_INDEX == OTHER_CPU2_EVENT_INDEX) {
  10258a:	410007b7          	lui	a5,0x41000
  10258e:	02c78793          	addi	a5,a5,44 # 4100002c <__stack+0x20ed402c>
  102592:	4398                	lw	a4,0(a5)
  102594:	410007b7          	lui	a5,0x41000
  102598:	03078793          	addi	a5,a5,48 # 41000030 <__stack+0x20ed4030>
  10259c:	439c                	lw	a5,0(a5)
  10259e:	00f70363          	beq	a4,a5,1025a4 <TestOneCPUErr+0x74>
D:\MCU_WorkSpace\IntegrationTest\mcu4in_IT\function_cpus\application/main.c:314
        if (OTHER_CPU1_EVENT_END && OTHER_CPU2_EVENT_END) {
  1025a2:	bfc1                	j	102572 <TestOneCPUErr+0x42>
D:\MCU_WorkSpace\IntegrationTest\mcu4in_IT\function_cpus\application/main.c:316
            break;
  1025a4:	0001                	nop
D:\MCU_WorkSpace\IntegrationTest\mcu4in_IT\function_cpus\application/main.c:321
          }
        }
      }

      unsigned* lad = NULL;
  1025a6:	fe042223          	sw	zero,-28(s0)
D:\MCU_WorkSpace\IntegrationTest\mcu4in_IT\function_cpus\application/main.c:322
      GetLabelAddr(OTHER_CPU1_EVENT_INDEX, &lad);
  1025aa:	410007b7          	lui	a5,0x41000
  1025ae:	02c78793          	addi	a5,a5,44 # 4100002c <__stack+0x20ed402c>
  1025b2:	439c                	lw	a5,0(a5)
  1025b4:	fe440713          	addi	a4,s0,-28
  1025b8:	85ba                	mv	a1,a4
  1025ba:	853e                	mv	a0,a5
  1025bc:	b95fe0ef          	jal	ra,101150 <GetLabelAddr>
D:\MCU_WorkSpace\IntegrationTest\mcu4in_IT\function_cpus\application/main.c:327
      // Delay(1);
      // *(volatile unsigned *)(TEL_ADDR - 12) = OTHER_CPU1_EVENT_INDEX;
      // *(volatile unsigned *)(TEL_ADDR - 16) = lad;
      // TellSche(3);
      goto *lad;
  1025c0:	fe442783          	lw	a5,-28(s0)
  1025c4:	8782                	jr	a5
D:\MCU_WorkSpace\IntegrationTest\mcu4in_IT\function_cpus\application/main.c:331
    } 
  }
  
  int* common = (int*)pml_com_malloc(sizeof(int));
  1025c6:	4511                	li	a0,4
  1025c8:	c19fe0ef          	jal	ra,1011e0 <pml_com_malloc>
  1025cc:	87aa                	mv	a5,a0
  1025ce:	fef42623          	sw	a5,-20(s0)
D:\MCU_WorkSpace\IntegrationTest\mcu4in_IT\function_cpus\application/main.c:332
  *common = 1000;
  1025d2:	fec42783          	lw	a5,-20(s0)
  1025d6:	3e800713          	li	a4,1000
  1025da:	c398                	sw	a4,0(a5)
D:\MCU_WorkSpace\IntegrationTest\mcu4in_IT\function_cpus\application/main.c:333
  int* local = (int*)pml_loc_malloc(sizeof(int));
  1025dc:	4511                	li	a0,4
  1025de:	c53fe0ef          	jal	ra,101230 <pml_loc_malloc>
  1025e2:	87aa                	mv	a5,a0
  1025e4:	fef42423          	sw	a5,-24(s0)
D:\MCU_WorkSpace\IntegrationTest\mcu4in_IT\function_cpus\application/main.c:334
  *local = 99;
  1025e8:	fe842783          	lw	a5,-24(s0)
  1025ec:	06300713          	li	a4,99
  1025f0:	c398                	sw	a4,0(a5)
D:\MCU_WorkSpace\IntegrationTest\mcu4in_IT\function_cpus\application/main.c:335
  uart_printf("o:%d,%d\r\n", *common, *local);
  1025f2:	fec42783          	lw	a5,-20(s0)
  1025f6:	4398                	lw	a4,0(a5)
  1025f8:	fe842783          	lw	a5,-24(s0)
  1025fc:	439c                	lw	a5,0(a5)
  1025fe:	863e                	mv	a2,a5
  102600:	85ba                	mv	a1,a4
  102602:	001037b7          	lui	a5,0x103
  102606:	2d478513          	addi	a0,a5,724 # 1032d4 <cmap+0x1f0>
  10260a:	c16ff0ef          	jal	ra,101a20 <uart_printf>
D:\MCU_WorkSpace\IntegrationTest\mcu4in_IT\function_cpus\application/main.c:338

  // triple modular redundancy
  *common = *common - 10;
  10260e:	fec42783          	lw	a5,-20(s0)
  102612:	439c                	lw	a5,0(a5)
  102614:	ff678713          	addi	a4,a5,-10
  102618:	fec42783          	lw	a5,-20(s0)
  10261c:	c398                	sw	a4,0(a5)
D:\MCU_WorkSpace\IntegrationTest\mcu4in_IT\function_cpus\application/main.c:339
  *local = *local - 10;
  10261e:	fe842783          	lw	a5,-24(s0)
  102622:	439c                	lw	a5,0(a5)
  102624:	ff678713          	addi	a4,a5,-10
  102628:	fe842783          	lw	a5,-24(s0)
  10262c:	c398                	sw	a4,0(a5)
D:\MCU_WorkSpace\IntegrationTest\mcu4in_IT\function_cpus\application/main.c:340
  EVENT_END_WITH_LABEL(10);
  10262e:	fe042023          	sw	zero,-32(s0)
  102632:	fe040793          	addi	a5,s0,-32
  102636:	853e                	mv	a0,a5
  102638:	c71fd0ef          	jal	ra,1002a8 <pml_get_sp>
  10263c:	2012e7b7          	lui	a5,0x2012e
  102640:	fe042703          	lw	a4,-32(s0)
  102644:	c398                	sw	a4,0(a5)
  102646:	410007b7          	lui	a5,0x41000
  10264a:	03478793          	addi	a5,a5,52 # 41000034 <__stack+0x20ed4034>
  10264e:	4729                	li	a4,10
  102650:	c398                	sw	a4,0(a5)
  102652:	410007b7          	lui	a5,0x41000
  102656:	07f1                	addi	a5,a5,28
  102658:	4705                	li	a4,1
  10265a:	c398                	sw	a4,0(a5)
  10265c:	df5fe0ef          	jal	ra,101450 <event_delay>
D:\MCU_WorkSpace\IntegrationTest\mcu4in_IT\function_cpus\application/main.c:350
#endif
#ifdef TARGET_ARM
    uart_printf(incMsg[strategy][id == kCPU1]);
#endif
#ifdef TARGET_RISCV
    uart_printf(incMsg[strategy][id == kCPU2]);
  102660:	fcc42783          	lw	a5,-52(s0)
  102664:	17f9                	addi	a5,a5,-2
  102666:	0017b793          	seqz	a5,a5
  10266a:	0ff7f793          	andi	a5,a5,255
  10266e:	873e                	mv	a4,a5
  102670:	06400793          	li	a5,100
  102674:	02f70733          	mul	a4,a4,a5
  102678:	fc842683          	lw	a3,-56(s0)
  10267c:	0c800793          	li	a5,200
  102680:	02f687b3          	mul	a5,a3,a5
  102684:	973e                	add	a4,a4,a5
  102686:	201207b7          	lui	a5,0x20120
  10268a:	57078793          	addi	a5,a5,1392 # 20120570 <incMsg>
  10268e:	97ba                	add	a5,a5,a4
  102690:	853e                	mv	a0,a5
  102692:	b8eff0ef          	jal	ra,101a20 <uart_printf>
D:\MCU_WorkSpace\IntegrationTest\mcu4in_IT\function_cpus\application/main.c:354
#endif

  // dual modular redundancy
  *common = *common - *local;
  102696:	fec42783          	lw	a5,-20(s0)
  10269a:	4398                	lw	a4,0(a5)
  10269c:	fe842783          	lw	a5,-24(s0)
  1026a0:	439c                	lw	a5,0(a5)
  1026a2:	8f1d                	sub	a4,a4,a5
  1026a4:	fec42783          	lw	a5,-20(s0)
  1026a8:	c398                	sw	a4,0(a5)
D:\MCU_WorkSpace\IntegrationTest\mcu4in_IT\function_cpus\application/main.c:356
  // *local = *local - 1;  // 2cpu-mode, change *local will cause the err cpu's value different below.
  uart_printf("chk_pass_cnt=%d,%d,%d\r\n", S0_CHK_PASS_CNT, S1_CHK_PASS_CNT, S2_CHK_PASS_CNT);
  1026aa:	410007b7          	lui	a5,0x41000
  1026ae:	04878793          	addi	a5,a5,72 # 41000048 <__stack+0x20ed4048>
  1026b2:	4398                	lw	a4,0(a5)
  1026b4:	410007b7          	lui	a5,0x41000
  1026b8:	04c78793          	addi	a5,a5,76 # 4100004c <__stack+0x20ed404c>
  1026bc:	4390                	lw	a2,0(a5)
  1026be:	410007b7          	lui	a5,0x41000
  1026c2:	05078793          	addi	a5,a5,80 # 41000050 <__stack+0x20ed4050>
  1026c6:	439c                	lw	a5,0(a5)
  1026c8:	86be                	mv	a3,a5
  1026ca:	85ba                	mv	a1,a4
  1026cc:	001037b7          	lui	a5,0x103
  1026d0:	2e078513          	addi	a0,a5,736 # 1032e0 <cmap+0x1fc>
  1026d4:	b4cff0ef          	jal	ra,101a20 <uart_printf>
D:\MCU_WorkSpace\IntegrationTest\mcu4in_IT\function_cpus\application/main.c:359
  
  // wait for the failed cpu recovering
  Delay(5);
  1026d8:	4515                	li	a0,5
  1026da:	eb7fe0ef          	jal	ra,101590 <Delay>
D:\MCU_WorkSpace\IntegrationTest\mcu4in_IT\function_cpus\application/main.c:360
  EVENT_END_WITH_LABEL(11);
  1026de:	fc042e23          	sw	zero,-36(s0)
  1026e2:	fdc40793          	addi	a5,s0,-36
  1026e6:	853e                	mv	a0,a5
  1026e8:	bc1fd0ef          	jal	ra,1002a8 <pml_get_sp>
  1026ec:	2012e7b7          	lui	a5,0x2012e
  1026f0:	fdc42703          	lw	a4,-36(s0)
  1026f4:	c398                	sw	a4,0(a5)
  1026f6:	410007b7          	lui	a5,0x41000
  1026fa:	03478793          	addi	a5,a5,52 # 41000034 <__stack+0x20ed4034>
  1026fe:	472d                	li	a4,11
  102700:	c398                	sw	a4,0(a5)
  102702:	410007b7          	lui	a5,0x41000
  102706:	07f1                	addi	a5,a5,28
  102708:	4705                	li	a4,1
  10270a:	c398                	sw	a4,0(a5)
  10270c:	d45fe0ef          	jal	ra,101450 <event_delay>
D:\MCU_WorkSpace\IntegrationTest\mcu4in_IT\function_cpus\application/main.c:363
  
  // If recovered, here should be equal; otherwise, wait more time.
  uart_printf("chk_pass_cnt=%d,%d,%d\r\n", S0_CHK_PASS_CNT, S1_CHK_PASS_CNT, S2_CHK_PASS_CNT);
  102710:	410007b7          	lui	a5,0x41000
  102714:	04878793          	addi	a5,a5,72 # 41000048 <__stack+0x20ed4048>
  102718:	4398                	lw	a4,0(a5)
  10271a:	410007b7          	lui	a5,0x41000
  10271e:	04c78793          	addi	a5,a5,76 # 4100004c <__stack+0x20ed404c>
  102722:	4390                	lw	a2,0(a5)
  102724:	410007b7          	lui	a5,0x41000
  102728:	05078793          	addi	a5,a5,80 # 41000050 <__stack+0x20ed4050>
  10272c:	439c                	lw	a5,0(a5)
  10272e:	86be                	mv	a3,a5
  102730:	85ba                	mv	a1,a4
  102732:	001037b7          	lui	a5,0x103
  102736:	2e078513          	addi	a0,a5,736 # 1032e0 <cmap+0x1fc>
  10273a:	ae6ff0ef          	jal	ra,101a20 <uart_printf>
D:\MCU_WorkSpace\IntegrationTest\mcu4in_IT\function_cpus\application/main.c:365
  
  *common = *common - 10;
  10273e:	fec42783          	lw	a5,-20(s0)
  102742:	439c                	lw	a5,0(a5)
  102744:	ff678713          	addi	a4,a5,-10
  102748:	fec42783          	lw	a5,-20(s0)
  10274c:	c398                	sw	a4,0(a5)
D:\MCU_WorkSpace\IntegrationTest\mcu4in_IT\function_cpus\application/main.c:366
  *local = *local - 10;
  10274e:	fe842783          	lw	a5,-24(s0)
  102752:	439c                	lw	a5,0(a5)
  102754:	ff678713          	addi	a4,a5,-10
  102758:	fe842783          	lw	a5,-24(s0)
  10275c:	c398                	sw	a4,0(a5)
D:\MCU_WorkSpace\IntegrationTest\mcu4in_IT\function_cpus\application/main.c:367
  uart_printf("r:%d,%d\r\n", *common, *local); // 891,79
  10275e:	fec42783          	lw	a5,-20(s0)
  102762:	4398                	lw	a4,0(a5)
  102764:	fe842783          	lw	a5,-24(s0)
  102768:	439c                	lw	a5,0(a5)
  10276a:	863e                	mv	a2,a5
  10276c:	85ba                	mv	a1,a4
  10276e:	001037b7          	lui	a5,0x103
  102772:	2f878513          	addi	a0,a5,760 # 1032f8 <cmap+0x214>
  102776:	aaaff0ef          	jal	ra,101a20 <uart_printf>
D:\MCU_WorkSpace\IntegrationTest\mcu4in_IT\function_cpus\application/main.c:369

  if (scenario == 1) {
  10277a:	fc442703          	lw	a4,-60(s0)
  10277e:	4785                	li	a5,1
  102780:	00f71563          	bne	a4,a5,10278a <TestOneCPUErr+0x25a>
D:\MCU_WorkSpace\IntegrationTest\mcu4in_IT\function_cpus\application/main.c:370
    TestUARTSimpleIRQ(HM_UART0);
  102784:	4000c537          	lui	a0,0x4000c
  102788:	2061                	jal	102810 <TestUARTSimpleIRQ>
D:\MCU_WorkSpace\IntegrationTest\mcu4in_IT\function_cpus\application/main.c:372
  }
}
  10278a:	0001                	nop
  10278c:	50f2                	lw	ra,60(sp)
  10278e:	5462                	lw	s0,56(sp)
  102790:	6121                	addi	sp,sp,64
  102792:	8082                	ret
  102794:	00000013          	nop
  102798:	00000013          	nop
  10279c:	00000013          	nop

001027a0 <user5_handler>:
user5_handler():
D:\MCU_WorkSpace\IntegrationTest\mcu4in_IT\function_cpus\application/main.c:377

static HM_UART_TypeDef* target_uart = NULL;
char uart_buffer_received = 0;

void user5_handler(void) {
  1027a0:	1141                	addi	sp,sp,-16
  1027a2:	c606                	sw	ra,12(sp)
  1027a4:	c422                	sw	s0,8(sp)
  1027a6:	0800                	addi	s0,sp,16
D:\MCU_WorkSpace\IntegrationTest\mcu4in_IT\function_cpus\application/main.c:378
  if (UART_GetIntState(target_uart, UART_INT_RTRIG_MASK)) {
  1027a8:	201217b7          	lui	a5,0x20121
  1027ac:	8987a783          	lw	a5,-1896(a5) # 20120898 <target_uart>
  1027b0:	4585                	li	a1,1
  1027b2:	853e                	mv	a0,a5
  1027b4:	decfe0ef          	jal	ra,100da0 <UART_GetIntState>
  1027b8:	87aa                	mv	a5,a0
  1027ba:	cf9d                	beqz	a5,1027f8 <user5_handler+0x58>
D:\MCU_WorkSpace\IntegrationTest\mcu4in_IT\function_cpus\application/main.c:379
		uart_buffer_received = UART_PollGetChar(target_uart);
  1027bc:	201217b7          	lui	a5,0x20121
  1027c0:	8987a783          	lw	a5,-1896(a5) # 20120898 <target_uart>
  1027c4:	853e                	mv	a0,a5
  1027c6:	c8afe0ef          	jal	ra,100c50 <UART_PollGetChar>
  1027ca:	87aa                	mv	a5,a0
  1027cc:	0ff7f713          	andi	a4,a5,255
  1027d0:	201217b7          	lui	a5,0x20121
  1027d4:	88e78a23          	sb	a4,-1900(a5) # 20120894 <uart_buffer_received>
D:\MCU_WorkSpace\IntegrationTest\mcu4in_IT\function_cpus\application/main.c:380
		uart_printf("uart(%x) rx get user input: %c!\r\n", target_uart, uart_buffer_received);
  1027d8:	201217b7          	lui	a5,0x20121
  1027dc:	8987a703          	lw	a4,-1896(a5) # 20120898 <target_uart>
  1027e0:	201217b7          	lui	a5,0x20121
  1027e4:	8947c783          	lbu	a5,-1900(a5) # 20120894 <uart_buffer_received>
  1027e8:	863e                	mv	a2,a5
  1027ea:	85ba                	mv	a1,a4
  1027ec:	001037b7          	lui	a5,0x103
  1027f0:	30478513          	addi	a0,a5,772 # 103304 <cmap+0x220>
  1027f4:	a2cff0ef          	jal	ra,101a20 <uart_printf>
D:\MCU_WorkSpace\IntegrationTest\mcu4in_IT\function_cpus\application/main.c:382
	}
}
  1027f8:	0001                	nop
  1027fa:	40b2                	lw	ra,12(sp)
  1027fc:	4422                	lw	s0,8(sp)
  1027fe:	0141                	addi	sp,sp,16
  102800:	8082                	ret
  102802:	0001                	nop
  102804:	00000013          	nop
  102808:	00000013          	nop
  10280c:	00000013          	nop

00102810 <TestUARTSimpleIRQ>:
TestUARTSimpleIRQ():
D:\MCU_WorkSpace\IntegrationTest\mcu4in_IT\function_cpus\application/main.c:384

void TestUARTSimpleIRQ(const HM_UART_TypeDef* uartx) {
  102810:	7179                	addi	sp,sp,-48
  102812:	d606                	sw	ra,44(sp)
  102814:	d422                	sw	s0,40(sp)
  102816:	1800                	addi	s0,sp,48
  102818:	fca42e23          	sw	a0,-36(s0)
D:\MCU_WorkSpace\IntegrationTest\mcu4in_IT\function_cpus\application/main.c:385
  if (uartx != HM_UART0 && uartx != HM_UART1){
  10281c:	fdc42703          	lw	a4,-36(s0)
  102820:	4000c7b7          	lui	a5,0x4000c
  102824:	02f70163          	beq	a4,a5,102846 <TestUARTSimpleIRQ+0x36>
D:\MCU_WorkSpace\IntegrationTest\mcu4in_IT\function_cpus\application/main.c:385 (discriminator 1)
  102828:	fdc42703          	lw	a4,-36(s0)
  10282c:	4000d7b7          	lui	a5,0x4000d
  102830:	00f70b63          	beq	a4,a5,102846 <TestUARTSimpleIRQ+0x36>
D:\MCU_WorkSpace\IntegrationTest\mcu4in_IT\function_cpus\application/main.c:386
    uart_printf("User IRQ Test by UART(%x)_Tx is not configured, please used UART0 or UART1.", uartx);
  102834:	fdc42583          	lw	a1,-36(s0)
  102838:	001037b7          	lui	a5,0x103
  10283c:	32878513          	addi	a0,a5,808 # 103328 <cmap+0x244>
  102840:	9e0ff0ef          	jal	ra,101a20 <uart_printf>
  102844:	a8a5                	j	1028bc <TestUARTSimpleIRQ+0xac>
D:\MCU_WorkSpace\IntegrationTest\mcu4in_IT\function_cpus\application/main.c:392
    return;
  }

  // Delay(1); // wait the previous print finish

  target_uart = uartx;
  102846:	201217b7          	lui	a5,0x20121
  10284a:	fdc42703          	lw	a4,-36(s0)
  10284e:	88e7ac23          	sw	a4,-1896(a5) # 20120898 <target_uart>
D:\MCU_WorkSpace\IntegrationTest\mcu4in_IT\function_cpus\application/main.c:394

  UART_InitTypeDef uart_init_cfg = {
  102852:	001037b7          	lui	a5,0x103
  102856:	3807a603          	lw	a2,896(a5) # 103380 <cmap+0x29c>
  10285a:	38078713          	addi	a4,a5,896
  10285e:	4354                	lw	a3,4(a4)
  102860:	38078713          	addi	a4,a5,896
  102864:	4718                	lw	a4,8(a4)
  102866:	38078793          	addi	a5,a5,896
  10286a:	47dc                	lw	a5,12(a5)
  10286c:	fec42023          	sw	a2,-32(s0)
  102870:	fed42223          	sw	a3,-28(s0)
  102874:	fee42423          	sw	a4,-24(s0)
  102878:	fef42623          	sw	a5,-20(s0)
D:\MCU_WorkSpace\IntegrationTest\mcu4in_IT\function_cpus\application/main.c:407
			.IrdaMode = UART_DEFAULT_MODE,
			.ChannelMode = UART_NORMAL_CHANNEL,
			.ClockSelect = UART_SEL_APB_CLOCK,
			.ClockPrescalar8 = UART_CLOCK_PRESCALAR_DIS
	};
  UART_Init(target_uart, &uart_init_cfg);
  10287c:	201217b7          	lui	a5,0x20121
  102880:	8987a783          	lw	a5,-1896(a5) # 20120898 <target_uart>
  102884:	fe040713          	addi	a4,s0,-32
  102888:	85ba                	mv	a1,a4
  10288a:	853e                	mv	a0,a5
  10288c:	fa5fd0ef          	jal	ra,100830 <UART_Init>
D:\MCU_WorkSpace\IntegrationTest\mcu4in_IT\function_cpus\application/main.c:409

  UART_RfifoTrigger(target_uart, 1);
  102890:	201217b7          	lui	a5,0x20121
  102894:	8987a783          	lw	a5,-1896(a5) # 20120898 <target_uart>
  102898:	4585                	li	a1,1
  10289a:	853e                	mv	a0,a5
  10289c:	d64fe0ef          	jal	ra,100e00 <UART_RfifoTrigger>
D:\MCU_WorkSpace\IntegrationTest\mcu4in_IT\function_cpus\application/main.c:410
  UART_EnableInt(target_uart, UART_INT_RTRIG_MASK);
  1028a0:	201217b7          	lui	a5,0x20121
  1028a4:	8987a783          	lw	a5,-1896(a5) # 20120898 <target_uart>
  1028a8:	4585                	li	a1,1
  1028aa:	853e                	mv	a0,a5
  1028ac:	cb4fe0ef          	jal	ra,100d60 <UART_EnableInt>
D:\MCU_WorkSpace\IntegrationTest\mcu4in_IT\function_cpus\application/main.c:411
  uart_printf("Wait...\r\n");
  1028b0:	001037b7          	lui	a5,0x103
  1028b4:	37478513          	addi	a0,a5,884 # 103374 <cmap+0x290>
  1028b8:	968ff0ef          	jal	ra,101a20 <uart_printf>
D:\MCU_WorkSpace\IntegrationTest\mcu4in_IT\function_cpus\application/main.c:412
}
  1028bc:	50b2                	lw	ra,44(sp)
  1028be:	5422                	lw	s0,40(sp)
  1028c0:	6145                	addi	sp,sp,48
  1028c2:	8082                	ret
  1028c4:	00000013          	nop
  1028c8:	00000013          	nop
  1028cc:	00000013          	nop

001028d0 <TestUARTMultipleIRQ>:
TestUARTMultipleIRQ():
D:\MCU_WorkSpace\IntegrationTest\mcu4in_IT\function_cpus\application/main.c:414

void TestUARTMultipleIRQ() {
  1028d0:	7179                	addi	sp,sp,-48
  1028d2:	d606                	sw	ra,44(sp)
  1028d4:	d422                	sw	s0,40(sp)
  1028d6:	1800                	addi	s0,sp,48
D:\MCU_WorkSpace\IntegrationTest\mcu4in_IT\function_cpus\application/main.c:416
  // nest_flag = 1;
  UART_InitTypeDef uart_init_cfg = {
  1028d8:	001037b7          	lui	a5,0x103
  1028dc:	3807a603          	lw	a2,896(a5) # 103380 <cmap+0x29c>
  1028e0:	38078713          	addi	a4,a5,896
  1028e4:	4354                	lw	a3,4(a4)
  1028e6:	38078713          	addi	a4,a5,896
  1028ea:	4718                	lw	a4,8(a4)
  1028ec:	38078793          	addi	a5,a5,896
  1028f0:	47dc                	lw	a5,12(a5)
  1028f2:	fcc42e23          	sw	a2,-36(s0)
  1028f6:	fed42023          	sw	a3,-32(s0)
  1028fa:	fee42223          	sw	a4,-28(s0)
  1028fe:	fef42423          	sw	a5,-24(s0)
D:\MCU_WorkSpace\IntegrationTest\mcu4in_IT\function_cpus\application/main.c:429
			.IrdaMode = UART_DEFAULT_MODE,
			.ChannelMode = UART_NORMAL_CHANNEL,
			.ClockSelect = UART_SEL_APB_CLOCK,
			.ClockPrescalar8 = UART_CLOCK_PRESCALAR_DIS
	};
  UART_Init(HM_UART0, &uart_init_cfg);
  102902:	fdc40793          	addi	a5,s0,-36
  102906:	85be                	mv	a1,a5
  102908:	4000c537          	lui	a0,0x4000c
  10290c:	f25fd0ef          	jal	ra,100830 <UART_Init>
D:\MCU_WorkSpace\IntegrationTest\mcu4in_IT\function_cpus\application/main.c:430
  UART_Init(HM_UART1, &uart_init_cfg);
  102910:	fdc40793          	addi	a5,s0,-36
  102914:	85be                	mv	a1,a5
  102916:	4000d537          	lui	a0,0x4000d
  10291a:	f17fd0ef          	jal	ra,100830 <UART_Init>
D:\MCU_WorkSpace\IntegrationTest\mcu4in_IT\function_cpus\application/main.c:431
  UART_TfifoTrigger(HM_UART0, 1);
  10291e:	4585                	li	a1,1
  102920:	4000c537          	lui	a0,0x4000c
  102924:	cfcfe0ef          	jal	ra,100e20 <UART_TfifoTrigger>
D:\MCU_WorkSpace\IntegrationTest\mcu4in_IT\function_cpus\application/main.c:432
  UART_EnableInt(HM_UART0, UART_INT_TTRIG_MASK);
  102928:	40000593          	li	a1,1024
  10292c:	4000c537          	lui	a0,0x4000c
  102930:	c30fe0ef          	jal	ra,100d60 <UART_EnableInt>
D:\MCU_WorkSpace\IntegrationTest\mcu4in_IT\function_cpus\application/main.c:433
  UART_TfifoTrigger(HM_UART1, 1);
  102934:	4585                	li	a1,1
  102936:	4000d537          	lui	a0,0x4000d
  10293a:	ce6fe0ef          	jal	ra,100e20 <UART_TfifoTrigger>
D:\MCU_WorkSpace\IntegrationTest\mcu4in_IT\function_cpus\application/main.c:434
  UART_EnableInt(HM_UART1, UART_INT_TTRIG_MASK);
  10293e:	40000593          	li	a1,1024
  102942:	4000d537          	lui	a0,0x4000d
  102946:	c1afe0ef          	jal	ra,100d60 <UART_EnableInt>
D:\MCU_WorkSpace\IntegrationTest\mcu4in_IT\function_cpus\application/main.c:435
  for (int i = 0; i < 4; i++){
  10294a:	fe042623          	sw	zero,-20(s0)
  10294e:	a01d                	j	102974 <TestUARTMultipleIRQ+0xa4>
D:\MCU_WorkSpace\IntegrationTest\mcu4in_IT\function_cpus\application/main.c:436 (discriminator 3)
    UART_WriteByte(HM_UART0, 'A'+i);
  102950:	fec42783          	lw	a5,-20(s0)
  102954:	0ff7f793          	andi	a5,a5,255
  102958:	04178793          	addi	a5,a5,65
  10295c:	0ff7f793          	andi	a5,a5,255
  102960:	85be                	mv	a1,a5
  102962:	4000c537          	lui	a0,0x4000c
  102966:	b6afe0ef          	jal	ra,100cd0 <UART_WriteByte>
D:\MCU_WorkSpace\IntegrationTest\mcu4in_IT\function_cpus\application/main.c:435 (discriminator 3)
  for (int i = 0; i < 4; i++){
  10296a:	fec42783          	lw	a5,-20(s0)
  10296e:	0785                	addi	a5,a5,1
  102970:	fef42623          	sw	a5,-20(s0)
D:\MCU_WorkSpace\IntegrationTest\mcu4in_IT\function_cpus\application/main.c:435 (discriminator 1)
  102974:	fec42703          	lw	a4,-20(s0)
  102978:	478d                	li	a5,3
  10297a:	fce7dbe3          	bge	a5,a4,102950 <TestUARTMultipleIRQ+0x80>
D:\MCU_WorkSpace\IntegrationTest\mcu4in_IT\function_cpus\application/main.c:438
  }
  UART_DisableInt(HM_UART0, UART_INT_TTRIG_MASK);
  10297e:	40000593          	li	a1,1024
  102982:	4000c537          	lui	a0,0x4000c
  102986:	bfafe0ef          	jal	ra,100d80 <UART_DisableInt>
D:\MCU_WorkSpace\IntegrationTest\mcu4in_IT\function_cpus\application/main.c:439
  UART_DisableInt(HM_UART1, UART_INT_TTRIG_MASK);
  10298a:	40000593          	li	a1,1024
  10298e:	4000d537          	lui	a0,0x4000d
  102992:	beefe0ef          	jal	ra,100d80 <UART_DisableInt>
D:\MCU_WorkSpace\IntegrationTest\mcu4in_IT\function_cpus\application/main.c:440
}
  102996:	0001                	nop
  102998:	50b2                	lw	ra,44(sp)
  10299a:	5422                	lw	s0,40(sp)
  10299c:	6145                	addi	sp,sp,48
  10299e:	8082                	ret

001029a0 <main>:
main():
D:\MCU_WorkSpace\IntegrationTest\mcu4in_IT\function_cpus\application/main.c:443


int main() {
  1029a0:	1141                	addi	sp,sp,-16
  1029a2:	c606                	sw	ra,12(sp)
  1029a4:	c422                	sw	s0,8(sp)
  1029a6:	0800                	addi	s0,sp,16
D:\MCU_WorkSpace\IntegrationTest\mcu4in_IT\function_cpus\application/main.c:452
  // TestUARTMultipleIRQ();
  // TestLabel();
  // TestSaveByCtrl();
  // TestSaveByFunc();
  // TestOneCPUErr(kCPU0, kIncContCnt, 0);  // 0don't test irq; 1: test irq.
  TestCPUVary(kVaryReset, 0);             // 0don't test irq; 1: test irq.
  1029a8:	4581                	li	a1,0
  1029aa:	4501                	li	a0,0
  1029ac:	3a51                	jal	102340 <TestCPUVary>
D:\MCU_WorkSpace\IntegrationTest\mcu4in_IT\function_cpus\application/main.c:454
  
  return 0;
  1029ae:	4781                	li	a5,0
D:\MCU_WorkSpace\IntegrationTest\mcu4in_IT\function_cpus\application/main.c:455
}
  1029b0:	853e                	mv	a0,a5
  1029b2:	40b2                	lw	ra,12(sp)
  1029b4:	4422                	lw	s0,8(sp)
  1029b6:	0141                	addi	sp,sp,16
  1029b8:	8082                	ret
	...

001029d0 <system_default_interrupt_handler>:
system_default_interrupt_handler():
D:\MCU_WorkSpace\IntegrationTest\mcu4in_IT\function_cpus\common\src\plic/plic.c:38
 * \brief      System Default Interrupt Handler
 * \details
 * This function provided a default interrupt handling code for all interrupt ids.
 */
static void system_default_interrupt_handler(void)
{
  1029d0:	1141                	addi	sp,sp,-16
  1029d2:	c606                	sw	ra,12(sp)
  1029d4:	c422                	sw	s0,8(sp)
  1029d6:	0800                	addi	s0,sp,16
D:\MCU_WorkSpace\IntegrationTest\mcu4in_IT\function_cpus\common\src\plic/plic.c:40
    /* TODO: Uncomment this if you have implement printf function */
    uart_printf("Trap in Default Interrupt\r\n");
  1029d8:	001037b7          	lui	a5,0x103
  1029dc:	39078513          	addi	a0,a5,912 # 103390 <cmap+0x2ac>
  1029e0:	840ff0ef          	jal	ra,101a20 <uart_printf>
D:\MCU_WorkSpace\IntegrationTest\mcu4in_IT\function_cpus\common\src\plic/plic.c:41
}
  1029e4:	0001                	nop
  1029e6:	40b2                	lw	ra,12(sp)
  1029e8:	4422                	lw	s0,8(sp)
  1029ea:	0141                	addi	sp,sp,16
  1029ec:	8082                	ret
  1029ee:	0001                	nop

001029f0 <Interrupt_Init>:
Interrupt_Init():
D:\MCU_WorkSpace\IntegrationTest\mcu4in_IT\function_cpus\common\src\plic/plic.c:51
 * The interrupt handler for each exception id will be initialized to \ref system_default_interrupt_handler.
 * \note
 * Called in \ref _init function, used to initialize default interrupt handlers for all interrupt IDs
 */
static void Interrupt_Init(void)
{
  1029f0:	1101                	addi	sp,sp,-32
  1029f2:	ce22                	sw	s0,28(sp)
  1029f4:	1000                	addi	s0,sp,32
D:\MCU_WorkSpace\IntegrationTest\mcu4in_IT\function_cpus\common\src\plic/plic.c:53
    int i;
    for (i = 0; i < __PLIC_INTNUM; i++) {
  1029f6:	fe042623          	sw	zero,-20(s0)
  1029fa:	a01d                	j	102a20 <Interrupt_Init+0x30>
D:\MCU_WorkSpace\IntegrationTest\mcu4in_IT\function_cpus\common\src\plic/plic.c:54 (discriminator 3)
        SystemExtInterruptHandlers[i] = (unsigned long)system_default_interrupt_handler;
  1029fc:	001037b7          	lui	a5,0x103
  102a00:	9d078713          	addi	a4,a5,-1584 # 1029d0 <system_default_interrupt_handler>
  102a04:	201217b7          	lui	a5,0x20121
  102a08:	fec42683          	lw	a3,-20(s0)
  102a0c:	068a                	slli	a3,a3,0x2
  102a0e:	89c78793          	addi	a5,a5,-1892 # 2012089c <SystemExtInterruptHandlers>
  102a12:	97b6                	add	a5,a5,a3
  102a14:	c398                	sw	a4,0(a5)
D:\MCU_WorkSpace\IntegrationTest\mcu4in_IT\function_cpus\common\src\plic/plic.c:53 (discriminator 3)
    for (i = 0; i < __PLIC_INTNUM; i++) {
  102a16:	fec42783          	lw	a5,-20(s0)
  102a1a:	0785                	addi	a5,a5,1
  102a1c:	fef42623          	sw	a5,-20(s0)
D:\MCU_WorkSpace\IntegrationTest\mcu4in_IT\function_cpus\common\src\plic/plic.c:53 (discriminator 1)
  102a20:	fec42703          	lw	a4,-20(s0)
  102a24:	03f00793          	li	a5,63
  102a28:	fce7dae3          	bge	a5,a4,1029fc <Interrupt_Init+0xc>
D:\MCU_WorkSpace\IntegrationTest\mcu4in_IT\function_cpus\common\src\plic/plic.c:56
    }
}
  102a2c:	0001                	nop
  102a2e:	4472                	lw	s0,28(sp)
  102a30:	6105                	addi	sp,sp,32
  102a32:	8082                	ret
  102a34:	00000013          	nop
  102a38:	00000013          	nop
  102a3c:	00000013          	nop

00102a40 <Interrupt_Register_ExtIRQ>:
Interrupt_Register_ExtIRQ():
D:\MCU_WorkSpace\IntegrationTest\mcu4in_IT\function_cpus\common\src\plic/plic.c:66
 * * For irqn <= \ref __PLIC_INTNUM, it will be registered into SystemExtInterruptHandlers[irqn-1].
 * \param   irqn    See \ref IRQn
 * \param   int_handler     The external interrupt handler for this interrupt code irqn
 */
void Interrupt_Register_ExtIRQ(uint32_t irqn, unsigned long int_handler)
{
  102a40:	1101                	addi	sp,sp,-32
  102a42:	ce22                	sw	s0,28(sp)
  102a44:	1000                	addi	s0,sp,32
  102a46:	fea42623          	sw	a0,-20(s0)
  102a4a:	feb42423          	sw	a1,-24(s0)
D:\MCU_WorkSpace\IntegrationTest\mcu4in_IT\function_cpus\common\src\plic/plic.c:67
    if (irqn <= __PLIC_INTNUM) {
  102a4e:	fec42703          	lw	a4,-20(s0)
  102a52:	04000793          	li	a5,64
  102a56:	00e7ed63          	bltu	a5,a4,102a70 <Interrupt_Register_ExtIRQ+0x30>
D:\MCU_WorkSpace\IntegrationTest\mcu4in_IT\function_cpus\common\src\plic/plic.c:68
        SystemExtInterruptHandlers[irqn] = int_handler;
  102a5a:	201217b7          	lui	a5,0x20121
  102a5e:	fec42703          	lw	a4,-20(s0)
  102a62:	070a                	slli	a4,a4,0x2
  102a64:	89c78793          	addi	a5,a5,-1892 # 2012089c <SystemExtInterruptHandlers>
  102a68:	97ba                	add	a5,a5,a4
  102a6a:	fe842703          	lw	a4,-24(s0)
  102a6e:	c398                	sw	a4,0(a5)
D:\MCU_WorkSpace\IntegrationTest\mcu4in_IT\function_cpus\common\src\plic/plic.c:71
        // uart_printf("SystemExtInterruptHandlers %x[%d] = %x,%x!\r\n", SystemExtInterruptHandlers, irqn, int_handler, SystemExtInterruptHandlers[irqn]);
    }
}
  102a70:	0001                	nop
  102a72:	4472                	lw	s0,28(sp)
  102a74:	6105                	addi	sp,sp,32
  102a76:	8082                	ret
  102a78:	00000013          	nop
  102a7c:	00000013          	nop

00102a80 <Interrupt_Get_ExtIRQ>:
Interrupt_Get_ExtIRQ():
D:\MCU_WorkSpace\IntegrationTest\mcu4in_IT\function_cpus\common\src\plic/plic.c:80
 * \param   irqn    See \ref IRQn
 * \return
 * The external interrupt handler for this interrupt code irqn
 */
unsigned long Interrupt_Get_ExtIRQ(uint32_t irqn)
{
  102a80:	1101                	addi	sp,sp,-32
  102a82:	ce22                	sw	s0,28(sp)
  102a84:	1000                	addi	s0,sp,32
  102a86:	fea42623          	sw	a0,-20(s0)
D:\MCU_WorkSpace\IntegrationTest\mcu4in_IT\function_cpus\common\src\plic/plic.c:81
    if (irqn <= __PLIC_INTNUM) {
  102a8a:	fec42703          	lw	a4,-20(s0)
  102a8e:	04000793          	li	a5,64
  102a92:	00e7ec63          	bltu	a5,a4,102aaa <Interrupt_Get_ExtIRQ+0x2a>
D:\MCU_WorkSpace\IntegrationTest\mcu4in_IT\function_cpus\common\src\plic/plic.c:82
        return SystemExtInterruptHandlers[irqn];
  102a96:	201217b7          	lui	a5,0x20121
  102a9a:	fec42703          	lw	a4,-20(s0)
  102a9e:	070a                	slli	a4,a4,0x2
  102aa0:	89c78793          	addi	a5,a5,-1892 # 2012089c <SystemExtInterruptHandlers>
  102aa4:	97ba                	add	a5,a5,a4
  102aa6:	439c                	lw	a5,0(a5)
  102aa8:	a011                	j	102aac <Interrupt_Get_ExtIRQ+0x2c>
D:\MCU_WorkSpace\IntegrationTest\mcu4in_IT\function_cpus\common\src\plic/plic.c:84
    }
    return 0;
  102aaa:	4781                	li	a5,0
D:\MCU_WorkSpace\IntegrationTest\mcu4in_IT\function_cpus\common\src\plic/plic.c:85
}
  102aac:	853e                	mv	a0,a5
  102aae:	4472                	lw	s0,28(sp)
  102ab0:	6105                	addi	sp,sp,32
  102ab2:	8082                	ret
  102ab4:	00000013          	nop
  102ab8:	00000013          	nop
  102abc:	00000013          	nop

00102ac0 <plic_handler>:
plic_handler():
D:\MCU_WorkSpace\IntegrationTest\mcu4in_IT\function_cpus\common\src\plic/plic.c:99
 *   This is proposed code template for exception entry function, Silicon Vendor could modify the implementation.
 * - If you want to register core exception handler, please use \ref Exception_Register_EXC
 * - If you want to register core interrupt handler, please use \ref Interrupt_Register_CoreIRQ
 * - If you want to register external interrupt handler, please use \ref Interrupt_Register_ExtIRQ
 */
uint32_t plic_handler() {
  102ac0:	7179                	addi	sp,sp,-48
  102ac2:	d606                	sw	ra,44(sp)
  102ac4:	d422                	sw	s0,40(sp)
  102ac6:	1800                	addi	s0,sp,48
PLIC_ClaimInterrupt():
d:\mcu_workspace\integrationtest\mcu4in_it\function_cpus\common\include\plic/plic_core.h:232
 * \sa
 * - \ref PLIC_CompleteInterrupt
 */
__STATIC_FORCEINLINE uint32_t PLIC_ClaimInterrupt(void)
{
    uint32_t hartid = 0; // __RV_CSR_READ(CSR_MHARTID);
  102ac8:	fe042223          	sw	zero,-28(s0)
d:\mcu_workspace\integrationtest\mcu4in_it\function_cpus\common\include\plic/plic_core.h:234
    volatile uint32_t *claim_reg = (volatile uint32_t *)((PLIC_BASE) + PLIC_CLAIM_OFFSET + \
                    + (hartid << PLIC_CLAIM_SHIFT_PER_TARGET));
  102acc:	fe442783          	lw	a5,-28(s0)
  102ad0:	00c79713          	slli	a4,a5,0xc
d:\mcu_workspace\integrationtest\mcu4in_it\function_cpus\common\include\plic/plic_core.h:233
    volatile uint32_t *claim_reg = (volatile uint32_t *)((PLIC_BASE) + PLIC_CLAIM_OFFSET + \
  102ad4:	411007b7          	lui	a5,0x41100
  102ad8:	60478793          	addi	a5,a5,1540 # 41100604 <__stack+0x20fd4604>
  102adc:	97ba                	add	a5,a5,a4
  102ade:	fef42023          	sw	a5,-32(s0)
d:\mcu_workspace\integrationtest\mcu4in_it\function_cpus\common\include\plic/plic_core.h:236

    return (*claim_reg);
  102ae2:	fe042783          	lw	a5,-32(s0)
  102ae6:	439c                	lw	a5,0(a5)
plic_handler():
D:\MCU_WorkSpace\IntegrationTest\mcu4in_IT\function_cpus\common\src\plic/plic.c:100
  uint32_t irqn = PLIC_ClaimInterrupt();
  102ae8:	fef42623          	sw	a5,-20(s0)
D:\MCU_WorkSpace\IntegrationTest\mcu4in_IT\function_cpus\common\src\plic/plic.c:101
  INT_HANDLER int_handler = NULL;
  102aec:	fe042423          	sw	zero,-24(s0)
D:\MCU_WorkSpace\IntegrationTest\mcu4in_IT\function_cpus\common\src\plic/plic.c:102
  if (irqn < __PLIC_INTNUM) {
  102af0:	fec42703          	lw	a4,-20(s0)
  102af4:	03f00793          	li	a5,63
  102af8:	04e7eb63          	bltu	a5,a4,102b4e <plic_handler+0x8e>
D:\MCU_WorkSpace\IntegrationTest\mcu4in_IT\function_cpus\common\src\plic/plic.c:103
    int_handler = (INT_HANDLER)(SystemExtInterruptHandlers[irqn]);
  102afc:	201217b7          	lui	a5,0x20121
  102b00:	fec42703          	lw	a4,-20(s0)
  102b04:	070a                	slli	a4,a4,0x2
  102b06:	89c78793          	addi	a5,a5,-1892 # 2012089c <SystemExtInterruptHandlers>
  102b0a:	97ba                	add	a5,a5,a4
  102b0c:	439c                	lw	a5,0(a5)
  102b0e:	fef42423          	sw	a5,-24(s0)
D:\MCU_WorkSpace\IntegrationTest\mcu4in_IT\function_cpus\common\src\plic/plic.c:104
    if (int_handler != NULL) {
  102b12:	fe842783          	lw	a5,-24(s0)
  102b16:	c781                	beqz	a5,102b1e <plic_handler+0x5e>
D:\MCU_WorkSpace\IntegrationTest\mcu4in_IT\function_cpus\common\src\plic/plic.c:105
      int_handler();
  102b18:	fe842783          	lw	a5,-24(s0)
  102b1c:	9782                	jalr	a5
  102b1e:	fec42783          	lw	a5,-20(s0)
  102b22:	fcf42e23          	sw	a5,-36(s0)
PLIC_CompleteInterrupt():
d:\mcu_workspace\integrationtest\mcu4in_it\function_cpus\common\include\plic/plic_core.h:257
 * \sa
 * - \ref PLIC_ClaimInterrupt
 */
__STATIC_FORCEINLINE void PLIC_CompleteInterrupt(uint32_t source)
{
    uint32_t hartid = 0; // __RV_CSR_READ(CSR_MHARTID);
  102b26:	fc042c23          	sw	zero,-40(s0)
d:\mcu_workspace\integrationtest\mcu4in_it\function_cpus\common\include\plic/plic_core.h:259
    volatile uint32_t *complete_reg = (uint32_t *)((PLIC_BASE) + PLIC_CLAIM_OFFSET + \
                    + (hartid << PLIC_CLAIM_SHIFT_PER_TARGET));
  102b2a:	fd842783          	lw	a5,-40(s0)
  102b2e:	00c79713          	slli	a4,a5,0xc
d:\mcu_workspace\integrationtest\mcu4in_it\function_cpus\common\include\plic/plic_core.h:258
    volatile uint32_t *complete_reg = (uint32_t *)((PLIC_BASE) + PLIC_CLAIM_OFFSET + \
  102b32:	411007b7          	lui	a5,0x41100
  102b36:	60478793          	addi	a5,a5,1540 # 41100604 <__stack+0x20fd4604>
  102b3a:	97ba                	add	a5,a5,a4
  102b3c:	fcf42a23          	sw	a5,-44(s0)
d:\mcu_workspace\integrationtest\mcu4in_it\function_cpus\common\include\plic/plic_core.h:261

    *complete_reg = source;
  102b40:	fd442783          	lw	a5,-44(s0)
  102b44:	fdc42703          	lw	a4,-36(s0)
  102b48:	c398                	sw	a4,0(a5)
plic_handler():
D:\MCU_WorkSpace\IntegrationTest\mcu4in_IT\function_cpus\common\src\plic/plic.c:108
    }
    PLIC_CompleteInterrupt(irqn);
    return 1;
  102b4a:	4785                	li	a5,1
  102b4c:	a019                	j	102b52 <plic_handler+0x92>
D:\MCU_WorkSpace\IntegrationTest\mcu4in_IT\function_cpus\common\src\plic/plic.c:110
  } else {
    system_default_interrupt_handler();
  102b4e:	3549                	jal	1029d0 <system_default_interrupt_handler>
D:\MCU_WorkSpace\IntegrationTest\mcu4in_IT\function_cpus\common\src\plic/plic.c:111
    return 0;
  102b50:	4781                	li	a5,0
D:\MCU_WorkSpace\IntegrationTest\mcu4in_IT\function_cpus\common\src\plic/plic.c:113
  }
}
  102b52:	853e                	mv	a0,a5
  102b54:	50b2                	lw	ra,44(sp)
  102b56:	5422                	lw	s0,40(sp)
  102b58:	6145                	addi	sp,sp,48
  102b5a:	8082                	ret
  102b5c:	00000013          	nop

00102b60 <PLIC_Register_IRQ_Hard>:
PLIC_Register_IRQ_Hard():
D:\MCU_WorkSpace\IntegrationTest\mcu4in_IT\function_cpus\common\src\plic/plic.c:128
 * \return       -1 means invalid input parameter. 0 means successful.
 * \remarks
 * - This function use to configure specific plic interrupt and register its interrupt handler and enable its interrupt.
 */
int32_t PLIC_Register_IRQ_Hard(uint32_t source, uint8_t priority)
{
  102b60:	7139                	addi	sp,sp,-64
  102b62:	de22                	sw	s0,60(sp)
  102b64:	0080                	addi	s0,sp,64
  102b66:	fca42623          	sw	a0,-52(s0)
  102b6a:	87ae                	mv	a5,a1
  102b6c:	fcf405a3          	sb	a5,-53(s0)
D:\MCU_WorkSpace\IntegrationTest\mcu4in_IT\function_cpus\common\src\plic/plic.c:129
    if ((source >= __PLIC_INTNUM)) {
  102b70:	fcc42703          	lw	a4,-52(s0)
  102b74:	03f00793          	li	a5,63
  102b78:	00e7f463          	bgeu	a5,a4,102b80 <PLIC_Register_IRQ_Hard+0x20>
D:\MCU_WorkSpace\IntegrationTest\mcu4in_IT\function_cpus\common\src\plic/plic.c:130
        return -1;
  102b7c:	57fd                	li	a5,-1
  102b7e:	a061                	j	102c06 <PLIC_Register_IRQ_Hard+0xa6>
D:\MCU_WorkSpace\IntegrationTest\mcu4in_IT\function_cpus\common\src\plic/plic.c:133
    }

    PLIC_SetPriority(source, priority);
  102b80:	fcb44783          	lbu	a5,-53(s0)
  102b84:	fcc42703          	lw	a4,-52(s0)
  102b88:	fce42e23          	sw	a4,-36(s0)
  102b8c:	fcf42c23          	sw	a5,-40(s0)
PLIC_SetPriority():
d:\mcu_workspace\integrationtest\mcu4in_it\function_cpus\common\include\plic/plic_core.h:194
                    + (source << PLIC_PRIORITY_SHIFT_PER_SOURCE));
  102b90:	fdc42783          	lw	a5,-36(s0)
  102b94:	00279713          	slli	a4,a5,0x2
d:\mcu_workspace\integrationtest\mcu4in_it\function_cpus\common\include\plic/plic_core.h:193
    volatile uint32_t *priority_reg = (uint32_t *)((PLIC_BASE) + PLIC_PRIORITY_OFFSET + \
  102b98:	411007b7          	lui	a5,0x41100
  102b9c:	97ba                	add	a5,a5,a4
  102b9e:	fcf42a23          	sw	a5,-44(s0)
d:\mcu_workspace\integrationtest\mcu4in_it\function_cpus\common\include\plic/plic_core.h:196
    *priority_reg = priority;
  102ba2:	fd442783          	lw	a5,-44(s0)
  102ba6:	fd842703          	lw	a4,-40(s0)
  102baa:	c398                	sw	a4,0(a5)
  102bac:	fcc42783          	lw	a5,-52(s0)
  102bb0:	fef42623          	sw	a5,-20(s0)
PLIC_EnableInterrupt():
d:\mcu_workspace\integrationtest\mcu4in_it\function_cpus\common\include\plic/plic_core.h:130
    uint32_t hartid = 0; // __RV_CSR_READ(CSR_MHARTID);
  102bb4:	fe042423          	sw	zero,-24(s0)
d:\mcu_workspace\integrationtest\mcu4in_it\function_cpus\common\include\plic/plic_core.h:132
                    (hartid << PLIC_ENABLE_SHIFT_PER_TARGET) + (source >> 5) * 4);
  102bb8:	fe842783          	lw	a5,-24(s0)
  102bbc:	00779713          	slli	a4,a5,0x7
  102bc0:	fec42783          	lw	a5,-20(s0)
  102bc4:	8395                	srli	a5,a5,0x5
  102bc6:	078a                	slli	a5,a5,0x2
  102bc8:	973e                	add	a4,a4,a5
  102bca:	411007b7          	lui	a5,0x41100
  102bce:	40078793          	addi	a5,a5,1024 # 41100400 <__stack+0x20fd4400>
  102bd2:	97ba                	add	a5,a5,a4
d:\mcu_workspace\integrationtest\mcu4in_it\function_cpus\common\include\plic/plic_core.h:131
    volatile uint32_t *enable_reg = (uint32_t *)((PLIC_BASE) + PLIC_ENABLE_OFFSET + \
  102bd4:	fef42223          	sw	a5,-28(s0)
d:\mcu_workspace\integrationtest\mcu4in_it\function_cpus\common\include\plic/plic_core.h:134
    uint32_t current = *enable_reg;
  102bd8:	fe442783          	lw	a5,-28(s0)
  102bdc:	439c                	lw	a5,0(a5)
  102bde:	fef42023          	sw	a5,-32(s0)
d:\mcu_workspace\integrationtest\mcu4in_it\function_cpus\common\include\plic/plic_core.h:135
    current = current | (1<<(source&0x1F));
  102be2:	fec42783          	lw	a5,-20(s0)
  102be6:	8bfd                	andi	a5,a5,31
  102be8:	4705                	li	a4,1
  102bea:	00f717b3          	sll	a5,a4,a5
  102bee:	873e                	mv	a4,a5
  102bf0:	fe042783          	lw	a5,-32(s0)
  102bf4:	8fd9                	or	a5,a5,a4
  102bf6:	fef42023          	sw	a5,-32(s0)
d:\mcu_workspace\integrationtest\mcu4in_it\function_cpus\common\include\plic/plic_core.h:136
    *enable_reg = current;
  102bfa:	fe442783          	lw	a5,-28(s0)
  102bfe:	fe042703          	lw	a4,-32(s0)
  102c02:	c398                	sw	a4,0(a5)
PLIC_Register_IRQ_Hard():
D:\MCU_WorkSpace\IntegrationTest\mcu4in_IT\function_cpus\common\src\plic/plic.c:136

    PLIC_EnableInterrupt(source);
    return 0;
  102c04:	4781                	li	a5,0
D:\MCU_WorkSpace\IntegrationTest\mcu4in_IT\function_cpus\common\src\plic/plic.c:137
}
  102c06:	853e                	mv	a0,a5
  102c08:	5472                	lw	s0,60(sp)
  102c0a:	6121                	addi	sp,sp,64
  102c0c:	8082                	ret
  102c0e:	0001                	nop

00102c10 <PLIC_Register_IRQ_Soft>:
PLIC_Register_IRQ_Soft():
D:\MCU_WorkSpace\IntegrationTest\mcu4in_IT\function_cpus\common\src\plic/plic.c:140

int32_t PLIC_Register_IRQ_Soft(uint32_t source, void *handler)
{
  102c10:	1101                	addi	sp,sp,-32
  102c12:	ce06                	sw	ra,28(sp)
  102c14:	cc22                	sw	s0,24(sp)
  102c16:	ca26                	sw	s1,20(sp)
  102c18:	1000                	addi	s0,sp,32
  102c1a:	fea42623          	sw	a0,-20(s0)
  102c1e:	feb42423          	sw	a1,-24(s0)
D:\MCU_WorkSpace\IntegrationTest\mcu4in_IT\function_cpus\common\src\plic/plic.c:141
    if ((source >= __PLIC_INTNUM)) {
  102c22:	fec42703          	lw	a4,-20(s0)
  102c26:	03f00793          	li	a5,63
  102c2a:	00e7f463          	bgeu	a5,a4,102c32 <PLIC_Register_IRQ_Soft+0x22>
D:\MCU_WorkSpace\IntegrationTest\mcu4in_IT\function_cpus\common\src\plic/plic.c:142
        return -1;
  102c2e:	57fd                	li	a5,-1
  102c30:	a005                	j	102c50 <PLIC_Register_IRQ_Soft+0x40>
D:\MCU_WorkSpace\IntegrationTest\mcu4in_IT\function_cpus\common\src\plic/plic.c:145
    }

    if (handler != NULL) {
  102c32:	fe842783          	lw	a5,-24(s0)
  102c36:	c799                	beqz	a5,102c44 <PLIC_Register_IRQ_Soft+0x34>
D:\MCU_WorkSpace\IntegrationTest\mcu4in_IT\function_cpus\common\src\plic/plic.c:147
        /* register interrupt handler entry to external handlers */
        Interrupt_Register_ExtIRQ(source, (unsigned long)handler);
  102c38:	fe842783          	lw	a5,-24(s0)
  102c3c:	85be                	mv	a1,a5
  102c3e:	fec42503          	lw	a0,-20(s0)
  102c42:	3bfd                	jal	102a40 <Interrupt_Register_ExtIRQ>
rv_enable_ext_irq():
d:\mcu_workspace\integrationtest\mcu4in_it\function_cpus\riscv\include/plic_base.h:48
    __RV_CSR_CLEAR(CSR_MSTATUS, MSTATUS_MIE);
}

__STATIC_FORCEINLINE void rv_enable_ext_irq(void)
{
    __RV_CSR_SET(CSR_MIE, MIE_MEIE);
  102c44:	6785                	lui	a5,0x1
  102c46:	80078493          	addi	s1,a5,-2048 # 800 <Reset_Handler-0xff800>
  102c4a:	3044a073          	csrs	mie,s1
PLIC_Register_IRQ_Soft():
D:\MCU_WorkSpace\IntegrationTest\mcu4in_IT\function_cpus\common\src\plic/plic.c:153
    }

#ifdef TARGET_RISCV
    rv_enable_ext_irq(); // TODO: Vary in different cpu
#endif
    return 0;
  102c4e:	4781                	li	a5,0
D:\MCU_WorkSpace\IntegrationTest\mcu4in_IT\function_cpus\common\src\plic/plic.c:154
}
  102c50:	853e                	mv	a0,a5
  102c52:	40f2                	lw	ra,28(sp)
  102c54:	4462                	lw	s0,24(sp)
  102c56:	44d2                	lw	s1,20(sp)
  102c58:	6105                	addi	sp,sp,32
  102c5a:	8082                	ret
  102c5c:	00000013          	nop

00102c60 <PLIC_Register_IRQ>:
PLIC_Register_IRQ():
D:\MCU_WorkSpace\IntegrationTest\mcu4in_IT\function_cpus\common\src\plic/plic.c:157

int32_t PLIC_Register_IRQ(uint32_t source, uint8_t priority, void *handler)
{
  102c60:	7179                	addi	sp,sp,-48
  102c62:	d606                	sw	ra,44(sp)
  102c64:	d422                	sw	s0,40(sp)
  102c66:	1800                	addi	s0,sp,48
  102c68:	fca42e23          	sw	a0,-36(s0)
  102c6c:	87ae                	mv	a5,a1
  102c6e:	fcc42a23          	sw	a2,-44(s0)
  102c72:	fcf40da3          	sb	a5,-37(s0)
D:\MCU_WorkSpace\IntegrationTest\mcu4in_IT\function_cpus\common\src\plic/plic.c:158
    int32_t ret = PLIC_Register_IRQ_Soft(source, handler);
  102c76:	fd442583          	lw	a1,-44(s0)
  102c7a:	fdc42503          	lw	a0,-36(s0)
  102c7e:	3f49                	jal	102c10 <PLIC_Register_IRQ_Soft>
  102c80:	fea42623          	sw	a0,-20(s0)
D:\MCU_WorkSpace\IntegrationTest\mcu4in_IT\function_cpus\common\src\plic/plic.c:159
    if (ret == -1){
  102c84:	fec42703          	lw	a4,-20(s0)
  102c88:	57fd                	li	a5,-1
  102c8a:	00f71563          	bne	a4,a5,102c94 <PLIC_Register_IRQ+0x34>
D:\MCU_WorkSpace\IntegrationTest\mcu4in_IT\function_cpus\common\src\plic/plic.c:160
        return ret;
  102c8e:	fec42783          	lw	a5,-20(s0)
  102c92:	a00d                	j	102cb4 <PLIC_Register_IRQ+0x54>
D:\MCU_WorkSpace\IntegrationTest\mcu4in_IT\function_cpus\common\src\plic/plic.c:163
    }

    if (RD_RESTORE_FROM_CHECKER == 0) {
  102c94:	410007b7          	lui	a5,0x41000
  102c98:	02078793          	addi	a5,a5,32 # 41000020 <__stack+0x20ed4020>
  102c9c:	439c                	lw	a5,0(a5)
  102c9e:	eb89                	bnez	a5,102cb0 <PLIC_Register_IRQ+0x50>
D:\MCU_WorkSpace\IntegrationTest\mcu4in_IT\function_cpus\common\src\plic/plic.c:164
     ret = PLIC_Register_IRQ_Hard(source, priority);
  102ca0:	fdb44783          	lbu	a5,-37(s0)
  102ca4:	85be                	mv	a1,a5
  102ca6:	fdc42503          	lw	a0,-36(s0)
  102caa:	3d5d                	jal	102b60 <PLIC_Register_IRQ_Hard>
  102cac:	fea42623          	sw	a0,-20(s0)
D:\MCU_WorkSpace\IntegrationTest\mcu4in_IT\function_cpus\common\src\plic/plic.c:167
    }
    
    return ret;
  102cb0:	fec42783          	lw	a5,-20(s0)
D:\MCU_WorkSpace\IntegrationTest\mcu4in_IT\function_cpus\common\src\plic/plic.c:168
}
  102cb4:	853e                	mv	a0,a5
  102cb6:	50b2                	lw	ra,44(sp)
  102cb8:	5422                	lw	s0,40(sp)
  102cba:	6145                	addi	sp,sp,48
  102cbc:	8082                	ret
  102cbe:	0001                	nop

00102cc0 <PLIC_Init_Hard>:
PLIC_Init_Hard():
D:\MCU_WorkSpace\IntegrationTest\mcu4in_IT\function_cpus\common\src\plic/plic.c:182
 * * Enable all interrupts
 * * Set all priorities to zero
 * * Set priority threshold to zero
 */
void PLIC_Init_Hard(uint32_t num_sources)
{
  102cc0:	715d                	addi	sp,sp,-80
  102cc2:	c6a2                	sw	s0,76(sp)
  102cc4:	0880                	addi	s0,sp,80
  102cc6:	faa42e23          	sw	a0,-68(s0)
D:\MCU_WorkSpace\IntegrationTest\mcu4in_IT\function_cpus\common\src\plic/plic.c:184
    uint32_t i;
    for (i = 0; i < num_sources; i ++) {
  102cca:	fe042623          	sw	zero,-20(s0)
  102cce:	a841                	j	102d5e <PLIC_Init_Hard+0x9e>
  102cd0:	fec42783          	lw	a5,-20(s0)
  102cd4:	fcf42e23          	sw	a5,-36(s0)
PLIC_DisableInterrupt():
d:\mcu_workspace\integrationtest\mcu4in_it\function_cpus\common\include\plic/plic_core.h:150 (discriminator 3)
    uint32_t hartid = 0; // __RV_CSR_READ(CSR_MHARTID);
  102cd8:	fc042c23          	sw	zero,-40(s0)
d:\mcu_workspace\integrationtest\mcu4in_it\function_cpus\common\include\plic/plic_core.h:152 (discriminator 3)
                    (hartid << PLIC_ENABLE_SHIFT_PER_TARGET) + (source >> 5) * 4);
  102cdc:	fd842783          	lw	a5,-40(s0)
  102ce0:	00779713          	slli	a4,a5,0x7
  102ce4:	fdc42783          	lw	a5,-36(s0)
  102ce8:	8395                	srli	a5,a5,0x5
  102cea:	078a                	slli	a5,a5,0x2
  102cec:	973e                	add	a4,a4,a5
  102cee:	411007b7          	lui	a5,0x41100
  102cf2:	40078793          	addi	a5,a5,1024 # 41100400 <__stack+0x20fd4400>
  102cf6:	97ba                	add	a5,a5,a4
d:\mcu_workspace\integrationtest\mcu4in_it\function_cpus\common\include\plic/plic_core.h:151 (discriminator 3)
    volatile uint32_t *enable_reg = (uint32_t *)((PLIC_BASE) + PLIC_ENABLE_OFFSET + \
  102cf8:	fcf42a23          	sw	a5,-44(s0)
d:\mcu_workspace\integrationtest\mcu4in_it\function_cpus\common\include\plic/plic_core.h:154 (discriminator 3)
    uint32_t current = *enable_reg;
  102cfc:	fd442783          	lw	a5,-44(s0)
  102d00:	439c                	lw	a5,0(a5)
  102d02:	fcf42823          	sw	a5,-48(s0)
d:\mcu_workspace\integrationtest\mcu4in_it\function_cpus\common\include\plic/plic_core.h:155 (discriminator 3)
    current = current & (~(1<<(source&0x1F)));
  102d06:	fdc42783          	lw	a5,-36(s0)
  102d0a:	8bfd                	andi	a5,a5,31
  102d0c:	4705                	li	a4,1
  102d0e:	00f717b3          	sll	a5,a4,a5
  102d12:	fff7c793          	not	a5,a5
  102d16:	873e                	mv	a4,a5
  102d18:	fd042783          	lw	a5,-48(s0)
  102d1c:	8ff9                	and	a5,a5,a4
  102d1e:	fcf42823          	sw	a5,-48(s0)
d:\mcu_workspace\integrationtest\mcu4in_it\function_cpus\common\include\plic/plic_core.h:156 (discriminator 3)
    *enable_reg = current;
  102d22:	fd442783          	lw	a5,-44(s0)
  102d26:	fd042703          	lw	a4,-48(s0)
  102d2a:	c398                	sw	a4,0(a5)
  102d2c:	fec42783          	lw	a5,-20(s0)
  102d30:	fef42423          	sw	a5,-24(s0)
  102d34:	fe042223          	sw	zero,-28(s0)
PLIC_SetPriority():
d:\mcu_workspace\integrationtest\mcu4in_it\function_cpus\common\include\plic/plic_core.h:194 (discriminator 3)
                    + (source << PLIC_PRIORITY_SHIFT_PER_SOURCE));
  102d38:	fe842783          	lw	a5,-24(s0)
  102d3c:	00279713          	slli	a4,a5,0x2
d:\mcu_workspace\integrationtest\mcu4in_it\function_cpus\common\include\plic/plic_core.h:193 (discriminator 3)
    volatile uint32_t *priority_reg = (uint32_t *)((PLIC_BASE) + PLIC_PRIORITY_OFFSET + \
  102d40:	411007b7          	lui	a5,0x41100
  102d44:	97ba                	add	a5,a5,a4
  102d46:	fef42023          	sw	a5,-32(s0)
d:\mcu_workspace\integrationtest\mcu4in_it\function_cpus\common\include\plic/plic_core.h:196 (discriminator 3)
    *priority_reg = priority;
  102d4a:	fe042783          	lw	a5,-32(s0)
  102d4e:	fe442703          	lw	a4,-28(s0)
  102d52:	c398                	sw	a4,0(a5)
PLIC_Init_Hard():
D:\MCU_WorkSpace\IntegrationTest\mcu4in_IT\function_cpus\common\src\plic/plic.c:184 (discriminator 3)
  102d54:	fec42783          	lw	a5,-20(s0)
  102d58:	0785                	addi	a5,a5,1
  102d5a:	fef42623          	sw	a5,-20(s0)
D:\MCU_WorkSpace\IntegrationTest\mcu4in_IT\function_cpus\common\src\plic/plic.c:184 (discriminator 1)
  102d5e:	fec42703          	lw	a4,-20(s0)
  102d62:	fbc42783          	lw	a5,-68(s0)
  102d66:	f6f765e3          	bltu	a4,a5,102cd0 <PLIC_Init_Hard+0x10>
  102d6a:	fc042623          	sw	zero,-52(s0)
PLIC_SetThreshold():
d:\mcu_workspace\integrationtest\mcu4in_it\function_cpus\common\include\plic/plic_core.h:94
    uint32_t hartid = 0; // __RV_CSR_READ(CSR_MHARTID);
  102d6e:	fc042423          	sw	zero,-56(s0)
d:\mcu_workspace\integrationtest\mcu4in_it\function_cpus\common\include\plic/plic_core.h:96
                    PLIC_THRESHOLD_OFFSET + (hartid << PLIC_THRESHOLD_SHIFT_PER_TARGET));
  102d72:	fc842783          	lw	a5,-56(s0)
  102d76:	00c79713          	slli	a4,a5,0xc
  102d7a:	411007b7          	lui	a5,0x41100
  102d7e:	60078793          	addi	a5,a5,1536 # 41100600 <__stack+0x20fd4600>
  102d82:	97ba                	add	a5,a5,a4
d:\mcu_workspace\integrationtest\mcu4in_it\function_cpus\common\include\plic/plic_core.h:95
    volatile uint32_t *thresh_reg = (uint32_t *)((PLIC_BASE) + \
  102d84:	fcf42223          	sw	a5,-60(s0)
d:\mcu_workspace\integrationtest\mcu4in_it\function_cpus\common\include\plic/plic_core.h:98
    *thresh_reg = thresh;
  102d88:	fc442783          	lw	a5,-60(s0)
  102d8c:	fcc42703          	lw	a4,-52(s0)
  102d90:	c398                	sw	a4,0(a5)
PLIC_Init_Hard():
D:\MCU_WorkSpace\IntegrationTest\mcu4in_IT\function_cpus\common\src\plic/plic.c:190
    	// PLIC_EnableInterrupt(i);
        PLIC_DisableInterrupt(i);
        PLIC_SetPriority(i, 0);
    }
    PLIC_SetThreshold(0);
}
  102d92:	0001                	nop
  102d94:	4436                	lw	s0,76(sp)
  102d96:	6161                	addi	sp,sp,80
  102d98:	8082                	ret
  102d9a:	00000013          	nop
  102d9e:	0001                	nop

00102da0 <PLIC_Init_Soft>:
PLIC_Init_Soft():
D:\MCU_WorkSpace\IntegrationTest\mcu4in_IT\function_cpus\common\src\plic/plic.c:193

void PLIC_Init_Soft()
{
  102da0:	1141                	addi	sp,sp,-16
  102da2:	c606                	sw	ra,12(sp)
  102da4:	c422                	sw	s0,8(sp)
  102da6:	0800                	addi	s0,sp,16
D:\MCU_WorkSpace\IntegrationTest\mcu4in_IT\function_cpus\common\src\plic/plic.c:194
    Interrupt_Init();  // set default handler
  102da8:	31a1                	jal	1029f0 <Interrupt_Init>
D:\MCU_WorkSpace\IntegrationTest\mcu4in_IT\function_cpus\common\src\plic/plic.c:195
}
  102daa:	0001                	nop
  102dac:	40b2                	lw	ra,12(sp)
  102dae:	4422                	lw	s0,8(sp)
  102db0:	0141                	addi	sp,sp,16
  102db2:	8082                	ret
  102db4:	00000013          	nop
  102db8:	00000013          	nop
  102dbc:	00000013          	nop

00102dc0 <PLIC_Init>:
PLIC_Init():
D:\MCU_WorkSpace\IntegrationTest\mcu4in_IT\function_cpus\common\src\plic/plic.c:198

void PLIC_Init(uint32_t num_sources)
{
  102dc0:	1101                	addi	sp,sp,-32
  102dc2:	ce06                	sw	ra,28(sp)
  102dc4:	cc22                	sw	s0,24(sp)
  102dc6:	1000                	addi	s0,sp,32
  102dc8:	fea42623          	sw	a0,-20(s0)
D:\MCU_WorkSpace\IntegrationTest\mcu4in_IT\function_cpus\common\src\plic/plic.c:199
    PLIC_Init_Soft();
  102dcc:	3fd1                	jal	102da0 <PLIC_Init_Soft>
D:\MCU_WorkSpace\IntegrationTest\mcu4in_IT\function_cpus\common\src\plic/plic.c:200
    if (RD_RESTORE_FROM_CHECKER == 0) {
  102dce:	410007b7          	lui	a5,0x41000
  102dd2:	02078793          	addi	a5,a5,32 # 41000020 <__stack+0x20ed4020>
  102dd6:	439c                	lw	a5,0(a5)
  102dd8:	e781                	bnez	a5,102de0 <PLIC_Init+0x20>
D:\MCU_WorkSpace\IntegrationTest\mcu4in_IT\function_cpus\common\src\plic/plic.c:201
      PLIC_Init_Hard(num_sources);
  102dda:	fec42503          	lw	a0,-20(s0)
  102dde:	35cd                	jal	102cc0 <PLIC_Init_Hard>
D:\MCU_WorkSpace\IntegrationTest\mcu4in_IT\function_cpus\common\src\plic/plic.c:203
    }
}
  102de0:	0001                	nop
  102de2:	40f2                	lw	ra,28(sp)
  102de4:	4462                	lw	s0,24(sp)
  102de6:	6105                	addi	sp,sp,32
  102de8:	8082                	ret
	...
