ELF Header:
  Magic:   7f 45 4c 46 01 01 01 00 00 00 00 00 00 00 00 00 
  Class:                             ELF32
  Data:                              2's complement, little endian
  Version:                           1 (current)
  OS/ABI:                            UNIX - System V
  ABI Version:                       0
  Type:                              EXEC (Executable file)
  Machine:                           MIPS R3000
  Version:                           0x1
  Entry point address:               0x80100000
  Start of program headers:          52 (bytes into file)
  Start of section headers:          291584 (bytes into file)
  Flags:                             0x70001001, noreorder, o32, mips32r2
  Size of this header:               52 (bytes)
  Size of program headers:           32 (bytes)
  Number of program headers:         2
  Size of section headers:           40 (bytes)
  Number of section headers:         20
  Section header string table index: 19

Section Headers:
  [Nr] Name              Type            Addr     Off    Size   ES Flg Lk Inf Al
  [ 0]                   NULL            00000000 000000 000000 00      0   0  0
  [ 1] .text_init        PROGBITS        80100000 020108 000000 00   W  0   0  1
  [ 2] .text_c           PROGBITS        80100000 010000 004b38 00  AX  0   0  4
  [ 3] .rodata           PROGBITS        80104b38 014b38 00038c 00  WA  0   0  4
  [ 4] .data             PROGBITS        80120000 020000 000108 00  WA  0   0  4
  [ 5] .bss              NOBITS          80120108 020108 000124 00  WA  0   0  4
  [ 6] .heap             PROGBITS        80120230 020108 002000 00   W  0   0  8
  [ 7] .stack_dummy      PROGBITS        80120230 022108 004000 00   W  0   0  8
  [ 8] .gnu.attributes   GNU_ATTRIBUTES  00000000 026108 000010 00      0   0  1
  [ 9] .comment          PROGBITS        00000000 026118 000088 01  MS  0   0  1
  [10] .debug_line       MIPS_DWARF      00000000 0261a0 000a28 00      0   0  1
  [11] .debug_info       MIPS_DWARF      00000000 026bc8 000fc0 00      0   0  1
  [12] .debug_abbrev     MIPS_DWARF      00000000 027b88 000438 00      0   0  1
  [13] .debug_aranges    MIPS_DWARF      00000000 027fc0 000080 00      0   0  8
  [14] .debug_str        MIPS_DWARF      00000000 028040 018664 01  MS  0   0  1
  [15] .debug_macro      MIPS_DWARF      00000000 0406a4 005314 00      0   0  1
  [16] .debug_frame      MIPS_DWARF      00000000 0459b8 0001a4 00      0   0  4
  [17] .symtab           SYMTAB          00000000 045b5c 000c20 10     18  47  4
  [18] .strtab           STRTAB          00000000 04677c 000abd 00      0   0  1
  [19] .shstrtab         STRTAB          00000000 047239 0000c7 00      0   0  1
Key to Flags:
  W (write), A (alloc), X (execute), M (merge), S (strings), I (info),
  L (link order), O (extra OS processing required), G (group), T (TLS),
  C (compressed), x (unknown), o (OS specific), E (exclude),
  p (processor specific)

Program Headers:
  Type           Offset   VirtAddr   PhysAddr   FileSiz MemSiz  Flg Align
  LOAD           0x010000 0x80100000 0x80100000 0x04ec4 0x04ec4 RWE 0x10000
  LOAD           0x020000 0x80120000 0x80104ec4 0x00108 0x0022c RW  0x10000

 Section to Segment mapping:
  Segment Sections...
   00     .text_c .rodata 
   01     .data .bss 

mips_app.elf:     file format elf32-tradlittlemips
mips_app.elf
architecture: mips:isa32r2, flags 0x00000112:
EXEC_P, HAS_SYMS, D_PAGED
start address 0x80100000

Program Header:
    LOAD off    0x00010000 vaddr 0x80100000 paddr 0x80100000 align 2**16
         filesz 0x00004ec4 memsz 0x00004ec4 flags rwx
    LOAD off    0x00020000 vaddr 0x80120000 paddr 0x80104ec4 align 2**16
         filesz 0x00000108 memsz 0x0000022c flags rw-
private flags = 70001001: [abi=O32] [mips32r2] [not 32bitmode] [noreorder]

Sections:
Idx Name            Size      VMA       LMA       File off  Algn  Flags
  0 .text_init      00000000  80100000  80100000  00020108  2**0  CONTENTS
  1 .text_c         00004b38  80100000  80100000  00010000  2**2  CONTENTS, ALLOC, LOAD, READONLY, CODE
  2 .rodata         0000038c  80104b38  80104b38  00014b38  2**2  CONTENTS, ALLOC, LOAD, DATA
  3 .data           00000108  80120000  80104ec4  00020000  2**2  CONTENTS, ALLOC, LOAD, DATA
  4 .bss            00000124  80120108  80104fcc  00020108  2**2  ALLOC
  5 .heap           00002000  80120230  80120230  00020108  2**3  CONTENTS
  6 .stack_dummy    00004000  80120230  80120230  00022108  2**3  CONTENTS
  7 .gnu.attributes 00000010  00000000  00000000  00026108  2**0  CONTENTS, READONLY
  8 .comment        00000088  00000000  00000000  00026118  2**0  CONTENTS, READONLY
  9 .debug_line     00000a28  00000000  00000000  000261a0  2**0  CONTENTS, READONLY, DEBUGGING
 10 .debug_info     00000fc0  00000000  00000000  00026bc8  2**0  CONTENTS, READONLY, DEBUGGING
 11 .debug_abbrev   00000438  00000000  00000000  00027b88  2**0  CONTENTS, READONLY, DEBUGGING
 12 .debug_aranges  00000080  00000000  00000000  00027fc0  2**3  CONTENTS, READONLY, DEBUGGING
 13 .debug_str      00018664  00000000  00000000  00028040  2**0  CONTENTS, READONLY, DEBUGGING
 14 .debug_macro    00005314  00000000  00000000  000406a4  2**0  CONTENTS, READONLY, DEBUGGING
 15 .debug_frame    000001a4  00000000  00000000  000459b8  2**2  CONTENTS, READONLY, DEBUGGING
SYMBOL TABLE:
80100000 l    d  .text_init	00000000 .text_init
80100000 l    d  .text_c	00000000 .text_c
80104b38 l    d  .rodata	00000000 .rodata
80120000 l    d  .data	00000000 .data
80120108 l    d  .bss	00000000 .bss
80120230 l    d  .heap	00000000 .heap
80120230 l    d  .stack_dummy	00000000 .stack_dummy
00000000 l    d  .gnu.attributes	00000000 .gnu.attributes
00000000 l    d  .comment	00000000 .comment
00000000 l    d  .debug_line	00000000 .debug_line
00000000 l    d  .debug_info	00000000 .debug_info
00000000 l    d  .debug_abbrev	00000000 .debug_abbrev
00000000 l    d  .debug_aranges	00000000 .debug_aranges
00000000 l    d  .debug_str	00000000 .debug_str
00000000 l    d  .debug_macro	00000000 .debug_macro
00000000 l    d  .debug_frame	00000000 .debug_frame
00000000 l    df *ABS*	00000000 CMakeFiles/mips_app.elf.dir/C_/HJJ/Career/MimicMCU/demo/function_cpus/MIPS/src/asm/start_app.S.obj
80100180 l       .text_c	00000000 __general_exception_loop
80100198 l       .text_c	00000000 except_vec_nmi
801001c0 l       .text_c	00000000 init_resources
8010020c l       .text_c	00000000 all_done
80100218 l       .text_c	00000000 copy_data
80100258 l       .text_c	00000000 zero_bss
80100240 l       .text_c	00000000 next_ram_dword
80100288 l       .text_c	00000000 copy_c2_ram_done
80100278 l       .text_c	00000000 next_bss_word
801002f0 l       .text_c	00000000 done_wr
00000000 l    df *ABS*	00000000 C:\HJJ\Career\MimicMCU\demo\function_cpus\application\main.c
80104b38 l     O .rodata	00000010 charmap
80100358 l     F .text_c	000000a0 pml_printn
00000000 l    df *ABS*	00000000 C:\HJJ\Career\MimicMCU\demo\function_cpus\application\work\work.c
00000000 l    df *ABS*	00000000 context.c
00000000 l    df *ABS*	00000000 delay.c
00000000 l    df *ABS*	00000000 driver_common.c
00000000 l    df *ABS*	00000000 irq.c
80120128 l     O .bss	00000004 k
00000000 l    df *ABS*	00000000 plic.c
8012012c l     O .bss	00000100 SystemExtInterruptHandlers
80101df4 l     F .text_c	00000028 system_default_interrupt_handler
80101e1c l     F .text_c	00000070 Interrupt_Init
00000000 l    df *ABS*	00000000 uart_print.c
80104e20 l     O .rodata	00000010 cmap
8010259c l     F .text_c	000000a0 printn
00000000 l    df *ABS*	00000000 hm_uart.c
00000000 l    df *ABS*	00000000 hm_gpio.c
801200cc l     O .data	00000038 g_GpioBaseMap
801019dc  w    F .text_c	00000038 timer0a_handler
80120230 g     O .heap	00002000 __HeapBase
80100000 g       *ABS*	00000000 _boot_rom
801200c8 g     O .data	00000004 g_main_clk
801046a0 g     F .text_c	0000006c GPIO_PinTypeOneWire
80104058 g     F .text_c	0000006c GPIO_PinTypeADC
80102180 g     F .text_c	00000098 PLIC_Register_IRQ
80104484 g     F .text_c	0000006c GPIO_PinTypeGPIOOutputOD
80100c38 g     F .text_c	0000003c legitimate_callback
80102f3c g     F .text_c	00000068 UART_BlockGetChar
801039a8 g     F .text_c	00000294 GPIO_PadConfigSet
80102eec g     F .text_c	00000050 UART_PollGetChar
80101b14  w    F .text_c	00000124 NMI_Handler
80101a4c g     F .text_c	000000c8 IRQ_Init
8010419c g     F .text_c	0000006c GPIO_PinTypeComparatorOutput
80103084 g     F .text_c	00000038 UART_EnableInt
80100c74 g     F .text_c	0000003c malicious_payload
80102eb4 g     F .text_c	00000038 UART_PollFifoPutChar
801280f8 g       *ABS*	00000000 _gp
80102e28 g     F .text_c	0000008c UART_BlockPutChars
801029c8 g     F .text_c	00000330 UART_Init
8010192c g     F .text_c	00000078 user_handle_helper
80100dc0 g     F .text_c	00000054 SRAM_Init
801024b0 g     F .text_c	00000094 uart_stdout_init
80120118 g     O .bss	00000004 emergency_stop_callback
801037a8 g     F .text_c	0000011c GPIO_IntTypeSet
80104994 g     F .text_c	0000006c GPIO_PinTypeUSBAnalog
801015dc g     F .text_c	00000158 PLL_Init
801043b8 g     F .text_c	0000006c GPIO_PinTypeGPIOInput
8010470c g     F .text_c	0000006c GPIO_PinTypePWM
80122230 g     O .heap	00000000 __HeapLimit
80120000 g       *ABS*	00000000 _fdata_ram
80103e30 g     F .text_c	00000064 GPIO_IntDisable
801001a8 g     F .text_c	0000006c __cpu_init
80104b38 g       *ABS*	00000000 rodata_start
80120120  w    O .bss	00000004 feedwdt
80102dd8 g     F .text_c	00000050 UART_BlockPutChar
801035f0 g     F .text_c	00000108 GPIO_DirModeSet
80102ff8 g     F .text_c	0000008c UART_WriteBytes
80102020 g     F .text_c	000000f0 PLIC_Register_IRQ_Hard
80104a6c g     F .text_c	000000cc GPIO_PinConfigure
80120108 g     O .bss	00000010 callback_table
801044f0 g     F .text_c	0000006c GPIO_PinTypeHibernateRTCCLK
80103e94 g     F .text_c	00000068 GPIO_IntStatus
80102110 g     F .text_c	00000070 PLIC_Register_IRQ_Soft
80103f50 g     F .text_c	0000005c GPIO_PinRead
801011ac g     F .text_c	000000b4 pml_stack_save
80103fac g     F .text_c	00000048 GPIO_PortRead
80120124  w    O .bss	00000004 wdtnum
80104778 g     F .text_c	0000006c GPIO_PinTypeQEI
80101ee4 g     F .text_c	00000058 Interrupt_Get_ExtIRQ
80100ce4 g     F .text_c	00000024 read_battery_voltage
80100780 g     F .text_c	000003d8 TestOneCPUErr
801033b8 g     F .text_c	00000070 UART_RS485ReceiverCmd
80100b98 g     F .text_c	00000058 pml_stack_restore
801031cc g     F .text_c	00000038 UART_TfifoTrigger
80104eb4 g     O .rodata	00000010 __Labels
801003f8 g     F .text_c	00000388 pml_print
80101580 g     F .text_c	00000028 GetMainCLK
80100000 g       *ABS*	00000000 _ftext_rom
801036f8 g     F .text_c	000000b0 GPIODirModeGet
80124230 g       .bss	00000000 _freemem
801012fc g     F .text_c	00000080 TellSche
8010325c g     F .text_c	0000015c UART_RS485Config
80120230 g       .heap	00000000 end
80104eb4 g       .rodata	00000000 __label_start__
80100fdc g     F .text_c	00000088 pml_save_inc
80100bf0 g     F .text_c	00000048 register_callback
80100000 g       *ABS*	00000000 _etext_rom
80104634 g     F .text_c	0000006c GPIO_PinTypeLCD
801030bc g     F .text_c	00000038 UART_DisableInt
80100cb0 g     F .text_c	00000034 set_emergency_stop_callback
80100f4c g     F .text_c	00000090 pml_loc_malloc
80102218 g     F .text_c	00000128 PLIC_Init_Hard
801018d4 g     F .text_c	00000058 save_context_handler
80101260 g     F .text_c	0000009c event_delay
80104424 g     F .text_c	00000060 GPIO_PinTypeGPIOOutput
801023cc g     F .text_c	000000e4 uart2_init
80103efc g     F .text_c	00000054 GPIO_IntClear
80104ec4 g       .rodata	00000000 __label_end__
80102340 g     F .text_c	00000034 PLIC_Init_Soft
801045c8 g     F .text_c	0000006c GPIO_PinTypeI2CSCL
80104a00 g     F .text_c	0000006c GPIO_PinTypeUSBDigital
80104850 g     F .text_c	0000006c GPIO_PinTypeTimer
80102374 g     F .text_c	00000058 PLIC_Init
80100e14 g     F .text_c	000000b8 GetLabelAddr
801047e4 g     F .text_c	0000006c GPIO_PinTypeSSI
80101a14  w    F .text_c	00000038 timer0b_handler
80100b58 g     F .text_c	00000040 main
80101064 g     F .text_c	00000088 pml_save_dec
80100000 g       *ABS*	00000000 _ftext_c_rom
80103194 g     F .text_c	00000038 UART_RfifoTrigger
80102544 g     F .text_c	00000058 uart_putc
801035a0 g     F .text_c	00000050 UART_RS485SendData
80103c3c g     F .text_c	00000194 GPIO_PadConfigGet
80120230 g       .heap	00000000 __end__
80103144 g     F .text_c	00000050 UART_GetIntMask
8010114c g     F .text_c	00000060 pml_loc_restore
801038c4 g     F .text_c	000000e4 GPIO_IntTypeGet
80102cf8 g     F .text_c	000000a8 UART_ConfigBaud
8010137c g     F .text_c	000000c0 stack_restore_helper
8010263c g     F .text_c	0000038c uart_printf
80100300 g     F .text_c	00000058 pml_putc
80102fa4 g     F .text_c	00000054 UART_WriteByte
8010184c g     F .text_c	00000088 Resource_Init
80101c38 g     F .text_c	000001bc _mips_general_exception
8012c000 g     O .bss	00000000 __StackTop
801019a4  w    F .text_c	00000038 user5_handler
80104274 g     F .text_c	0000006c GPIO_PinTypeEPI
801030f4 g     F .text_c	00000050 UART_GetIntState
8010154c g     F .text_c	00000034 SetEDAMode
80104ec4 g       *ABS*	00000000 rodata_end
80103428 g     F .text_c	00000124 UART_RS485Send
8010143c g     F .text_c	00000110 Delay
801048bc g     F .text_c	0000006c GPIO_PinTypeTrace
80100290 g     F .text_c	00000070 init_cp0
8012c000 g     O *ABS*	00000000 __stack
80104208 g     F .text_c	0000006c GPIO_PinTypeDIVSCLK
80100214 g     F .text_c	0000007c copy_c2_ram
80101f3c g     F .text_c	000000e4 plic_handler
80102da0 g     F .text_c	00000038 UART_PollPutChar
801010ec g     F .text_c	00000060 pml_loc_save
8012022c g       .bss	00000000 _end
80100000 g     F .text_c	00000024 __reset_vector
80104b38 g       *ABS*	00000000 _etext_c_rom
80100d08 g     F .text_c	000000b8 DemoAttack
80128000 g     O *ABS*	00004000 __StackLimit
801015a8 g     F .text_c	00000034 SetMainCLK
80100ecc g     F .text_c	00000080 pml_com_malloc
80104130 g     F .text_c	0000006c GPIO_PinTypeComparator
8010354c g     F .text_c	00000054 UART_RS485SendSlvAddr
801042e0 g     F .text_c	0000006c GPIO_PinTypeEthernetLED
801040c4 g     F .text_c	0000006c GPIO_PinTypeCAN
80120108 g       *ABS*	00000000 _edata_ram
8012011c g     O .bss	00000004 eda_flag
8010434c g     F .text_c	0000006c GPIO_PinTypeEthernetMII
80104ec4 g       .data	00000000 _fdata_rom
80103204 g     F .text_c	00000058 UART_SetDmaMode
80120000 g     O .data	000000c8 incMsg
8010455c g     F .text_c	0000006c GPIO_PinTypeI2C
80104928 g     F .text_c	0000006c GPIO_PinTypeUART
80101734 g     F .text_c	00000094 Driver_IRQ_Close
80103ff4 g     F .text_c	00000064 GPIO_PinWrite
801017c8 g     F .text_c	00000084 Driver_Init
80101e8c g     F .text_c	00000058 Interrupt_Register_ExtIRQ
80103dd0 g     F .text_c	00000060 GPIO_IntEnable
80120108 g       .data	00000000 _fbss



Disassembly of section .text_c:

80100000 <__reset_vector>:
C:\HJJ\Career\MimicMCU\demo\function_cpus\MIPS\src\asm/start_app.S:42
	# and jumps to it. This does 2 things; First it will jump to a KSEG1 address which is a
	# mirror of the KSEG0 BEV address but cacheable. Second it will do a mode switch to
	# enable micromips mode.

LEAF(__reset_vector)
	la a2,__cpu_init
80100000:	3c068010 	lui	a2,0x8010
80100004:	24c601a8 	addiu	a2,a2,424
C:\HJJ\Career\MimicMCU\demo\function_cpus\MIPS\src\asm/start_app.S:43
	mtc0	$0, C0_COUNT  	    # Clear cp0 Count (Used to measure boot time.)
80100008:	40804800 	mtc0	zero,c0_count
C:\HJJ\Career\MimicMCU\demo\function_cpus\MIPS\src\asm/start_app.S:44
	jr a2
8010000c:	00c00008 	jr	a2
80100010:	00000000 	nop
	...

80100180 <__general_exception_loop>:
C:\HJJ\Career\MimicMCU\demo\function_cpus\MIPS\src\asm/start_app.S:64
	.org 0x180
	.set push
	.set nomicromips                        # This code assumes exceptions are handled in MIPS32 mode
.weak _mips_general_exception
__general_exception_loop:
	LA	k1, _mips_general_exception
80100180:	3c1b8010 	lui	k1,0x8010
80100184:	277b1c38 	addiu	k1,k1,7224
C:\HJJ\Career\MimicMCU\demo\function_cpus\MIPS\src\asm/start_app.S:65
	beqz    k1, __general_exception_loop
80100188:	1360fffd 	beqz	k1,80100180 <__general_exception_loop>
8010018c:	00000000 	nop
C:\HJJ\Career\MimicMCU\demo\function_cpus\MIPS\src\asm/start_app.S:66
	jr	k1
80100190:	03600008 	jr	k1
80100194:	00000000 	nop

80100198 <except_vec_nmi>:
C:\HJJ\Career\MimicMCU\demo\function_cpus\MIPS\src\asm/start_app.S:117
*/

//.set micromips							# This causes the code below to be compiled as micromips
										# This will reduce the code size and help the code fit into 1K of memory
except_vec_nmi:
    jal	NMI_Handler
80100198:	0c0406c5 	jal	80101b14 <NMI_Handler>
8010019c:	00000000 	nop
C:\HJJ\Career\MimicMCU\demo\function_cpus\MIPS\src\asm/start_app.S:118
    eret
801001a0:	42000018 	eret
C:\HJJ\Career\MimicMCU\demo\function_cpus\MIPS\src\asm/start_app.S:119
    nop
801001a4:	00000000 	nop

801001a8 <__cpu_init>:
C:\HJJ\Career\MimicMCU\demo\function_cpus\MIPS\src\asm/start_app.S:126

LEAF(__cpu_init)

	# Verify the code is here due to a reset and not NMI. If this is an NMI then trigger
	# a debugger breakpoint using a sdbp instruction.

801001a8:	40116000 	mfc0	s1,c0_status
C:\HJJ\Career\MimicMCU\demo\function_cpus\MIPS\src\asm/start_app.S:127
    mfc0    s1, C0_STATUS              	# Read CP0 Status
801001ac:	7e3104c0 	ext	s1,s1,0x13,0x1
C:\HJJ\Career\MimicMCU\demo\function_cpus\MIPS\src\asm/start_app.S:128
    ext	    s1, s1, 19, 1				# extract NMI
801001b0:	12200003 	beqz	s1,801001c0 <init_resources>
801001b4:	00000000 	nop
C:\HJJ\Career\MimicMCU\demo\function_cpus\MIPS\src\asm/start_app.S:129
    beqz    s1, init_resources 		 	# Branch if this is NOT an NMI exception.
801001b8:	08040066 	j	80100198 <except_vec_nmi>
801001bc:	00000000 	nop

801001c0 <init_resources>:
C:\HJJ\Career\MimicMCU\demo\function_cpus\MIPS\src\asm/start_app.S:136

init_resources:  						# initializes resources for "cpu".

	# Set the global pointer register address to _gp and the stack pointer register to
	# STACK_BASE_ADDR these values are assigned in the linker file

801001c0:	3c1c8013 	lui	gp,0x8013
801001c4:	279c80f8 	addiu	gp,gp,-32520
C:\HJJ\Career\MimicMCU\demo\function_cpus\MIPS\src\asm/start_app.S:138
    la      gp, _gp						# All share globals.
	#li      sp, STACK_BASE_ADDR		# LI RD, IMM32  <--> RD = IMM32
801001c8:	3c1d8013 	lui	sp,0x8013
801001cc:	27bdc000 	addiu	sp,sp,-16384
C:\HJJ\Career\MimicMCU\demo\function_cpus\MIPS\src\asm/start_app.S:142
	la      sp, __stack                 # LA RD, LABEL  <--> RD = ADDRESS(LABEL)

    # Initialize CP0 registers

801001d0:	3c068010 	lui	a2,0x8010
801001d4:	24c60290 	addiu	a2,a2,656
C:\HJJ\Career\MimicMCU\demo\function_cpus\MIPS\src\asm/start_app.S:143
    la a2,     init_cp0    				# Init CP0 Status, Count, Compare, Watch*, and Cause.
801001d8:	00c0f809 	jalr	a2
801001dc:	00000000 	nop
C:\HJJ\Career\MimicMCU\demo\function_cpus\MIPS\src\asm/start_app.S:147
    jalr a2

	# Copy "C" code (main.c) and data to RAM and zero bss

801001e0:	3c068010 	lui	a2,0x8010
801001e4:	24c60214 	addiu	a2,a2,532
C:\HJJ\Career\MimicMCU\demo\function_cpus\MIPS\src\asm/start_app.S:148
    la 		a2, copy_c2_ram
801001e8:	00c0f809 	jalr	a2
801001ec:	00000000 	nop
C:\HJJ\Career\MimicMCU\demo\function_cpus\MIPS\src\asm/start_app.S:155

    # Prepare for eret to main (sp and gp set in set_gpr_boot_values).
	/* Jump to C code */
	# la t0, Resource_Init # FIXME wait hardware solve it
    # jalr t0

801001f0:	3c1f8010 	lui	ra,0x8010
801001f4:	27ff020c 	addiu	ra,ra,524
C:\HJJ\Career\MimicMCU\demo\function_cpus\MIPS\src\asm/start_app.S:156
    la      ra, all_done				# If main returns then go to all_done:.
801001f8:	3c028010 	lui	v0,0x8010
801001fc:	2442184c 	addiu	v0,v0,6220
C:\HJJ\Career\MimicMCU\demo\function_cpus\MIPS\src\asm/start_app.S:157
    la      v0, Resource_Init					# load the address of the main function
80100200:	4082f000 	mtc0	v0,c0_errorepc
C:\HJJ\Career\MimicMCU\demo\function_cpus\MIPS\src\asm/start_app.S:158
    mtc0    v0, C0_ERRPC				# Write ErrorEPC with the address of main
80100204:	000000c0 	ehb
C:\HJJ\Career\MimicMCU\demo\function_cpus\MIPS\src\asm/start_app.S:161
    ehb									# clear hazards (makes sure write to ErrorEPC has completed)

    # Return from exception will now execute code in main
80100208:	42000018 	eret

8010020c <all_done>:
C:\HJJ\Career\MimicMCU\demo\function_cpus\MIPS\src\asm/start_app.S:167
    eret   								# Exit reset exception handler and start execution of main().

/**************************************************************************************
**************************************************************************************/
all_done:
    # If main returns it will return to this point.  Just spin here.
8010020c:	1000ffff 	b	8010020c <all_done>
80100210:	00000000 	nop

80100214 <copy_c2_ram>:
C:\HJJ\Career\MimicMCU\demo\function_cpus\MIPS\src\asm/copy_c2_ram.s:51

/**************************************************************************************
**************************************************************************************/
LEAF(copy_c2_ram)

	li      all_ones, 0xffffffff
80100214:	2411ffff 	li	s1,-1

80100218 <copy_data>:
C:\HJJ\Career\MimicMCU\demo\function_cpus\MIPS\src\asm/copy_c2_ram.s:75
    bne     end_addr, destination_addr, next_ram_word
*/

copy_data:
// now copy the data
    LA      source_addr, _fdata_rom
80100218:	3c058010 	lui	a1,0x8010
8010021c:	24a54ec4 	addiu	a1,a1,20164
C:\HJJ\Career\MimicMCU\demo\function_cpus\MIPS\src\asm/copy_c2_ram.s:76
    LA      destination_addr,  _fdata_ram
80100220:	3c068012 	lui	a2,0x8012
80100224:	24c60000 	addiu	a2,a2,0
C:\HJJ\Career\MimicMCU\demo\function_cpus\MIPS\src\asm/copy_c2_ram.s:77
    LA      end_addr, _edata_ram
80100228:	3c078012 	lui	a3,0x8012
8010022c:	24e70108 	addiu	a3,a3,264
C:\HJJ\Career\MimicMCU\demo\function_cpus\MIPS\src\asm/copy_c2_ram.s:81
    #if !defined(EVA) && !defined(MPU)  // NOTE EVA mode assumed to be uncached
    	// Switch address to uncached (kseg1) so copy will go directly
    	// to memory
    	ins     destination_addr, all_ones, 29, 1
80100230:	7e26ef44 	ins	a2,s1,0x1d,0x1
C:\HJJ\Career\MimicMCU\demo\function_cpus\MIPS\src\asm/copy_c2_ram.s:82
    	ins     end_addr, all_ones, 29, 1
80100234:	7e27ef44 	ins	a3,s1,0x1d,0x1
C:\HJJ\Career\MimicMCU\demo\function_cpus\MIPS\src\asm/copy_c2_ram.s:84
    #endif
    beq     destination_addr, end_addr, zero_bss  // if no data skip ahead
80100238:	10c70007 	beq	a2,a3,80100258 <zero_bss>
8010023c:	00000000 	nop

80100240 <next_ram_dword>:
C:\HJJ\Career\MimicMCU\demo\function_cpus\MIPS\src\asm/copy_c2_ram.s:86
next_ram_dword:
    lw      data, 0(source_addr)
80100240:	8ca40000 	lw	a0,0(a1)
C:\HJJ\Career\MimicMCU\demo\function_cpus\MIPS\src\asm/copy_c2_ram.s:87
    sw      data, 0(destination_addr)
80100244:	acc40000 	sw	a0,0(a2)
C:\HJJ\Career\MimicMCU\demo\function_cpus\MIPS\src\asm/copy_c2_ram.s:88
    addiu   destination_addr, 4
80100248:	24c60004 	addiu	a2,a2,4
C:\HJJ\Career\MimicMCU\demo\function_cpus\MIPS\src\asm/copy_c2_ram.s:89
    addiu   source_addr, 4
8010024c:	24a50004 	addiu	a1,a1,4
C:\HJJ\Career\MimicMCU\demo\function_cpus\MIPS\src\asm/copy_c2_ram.s:90
    bne     end_addr, destination_addr, next_ram_dword
80100250:	14e6fffb 	bne	a3,a2,80100240 <next_ram_dword>
80100254:	00000000 	nop

80100258 <zero_bss>:
C:\HJJ\Career\MimicMCU\demo\function_cpus\MIPS\src\asm/copy_c2_ram.s:93

zero_bss:
    LA      destination_addr, _fbss
80100258:	3c068012 	lui	a2,0x8012
8010025c:	24c60108 	addiu	a2,a2,264
C:\HJJ\Career\MimicMCU\demo\function_cpus\MIPS\src\asm/copy_c2_ram.s:94
    LA      end_addr, _end
80100260:	3c078012 	lui	a3,0x8012
80100264:	24e7022c 	addiu	a3,a3,556
C:\HJJ\Career\MimicMCU\demo\function_cpus\MIPS\src\asm/copy_c2_ram.s:98
    #ifndef EVA  // NOTE EVA mode assumed to be uncached
    	// Switch address to uncached (kseg1) so copy will go directly
    	// to memory
	    ins     destination_addr, all_ones, 29, 1
80100268:	7e26ef44 	ins	a2,s1,0x1d,0x1
C:\HJJ\Career\MimicMCU\demo\function_cpus\MIPS\src\asm/copy_c2_ram.s:99
	    ins     end_addr, all_ones, 29, 1
8010026c:	7e27ef44 	ins	a3,s1,0x1d,0x1
C:\HJJ\Career\MimicMCU\demo\function_cpus\MIPS\src\asm/copy_c2_ram.s:101
    #endif
    beq     destination_addr, end_addr, copy_c2_ram_done
80100270:	10c70005 	beq	a2,a3,80100288 <copy_c2_ram_done>
80100274:	00000000 	nop

80100278 <next_bss_word>:
C:\HJJ\Career\MimicMCU\demo\function_cpus\MIPS\src\asm/copy_c2_ram.s:103
next_bss_word:
    sw      zero, 0(destination_addr)
80100278:	acc00000 	sw	zero,0(a2)
C:\HJJ\Career\MimicMCU\demo\function_cpus\MIPS\src\asm/copy_c2_ram.s:104
    addiu   destination_addr, 4
8010027c:	24c60004 	addiu	a2,a2,4
C:\HJJ\Career\MimicMCU\demo\function_cpus\MIPS\src\asm/copy_c2_ram.s:105
    bne     destination_addr, end_addr, next_bss_word
80100280:	14c7fffd 	bne	a2,a3,80100278 <next_bss_word>
80100284:	00000000 	nop

80100288 <copy_c2_ram_done>:
C:\HJJ\Career\MimicMCU\demo\function_cpus\MIPS\src\asm/copy_c2_ram.s:108

copy_c2_ram_done:
    jalr	zero,      ra
80100288:	03e00009 	jalr	zero,ra
8010028c:	00000000 	nop

80100290 <init_cp0>:
C:\HJJ\Career\MimicMCU\demo\function_cpus\MIPS\src\asm/init_cp0.s:45
/**************************************************************************************
**************************************************************************************/
LEAF(init_cp0)

    // Initialize Status
	li	    a1, 0x00400004		// (M_StatusERL | M_StatusBEV), close timer-interrupt
80100290:	3c050040 	lui	a1,0x40
80100294:	34a50004 	ori	a1,a1,0x4
C:\HJJ\Career\MimicMCU\demo\function_cpus\MIPS\src\asm/init_cp0.s:46
	mtc0	a1, C0_STATUS		// write C0_Status
80100298:	40856000 	mtc0	a1,c0_status
C:\HJJ\Career\MimicMCU\demo\function_cpus\MIPS\src\asm/init_cp0.s:49

	// Initialize Watch registers if implemented.
	mfc0	a0, C0_CONFIG1		// read C0_Config1
8010029c:	40048001 	mfc0	a0,c0_config1
C:\HJJ\Career\MimicMCU\demo\function_cpus\MIPS\src\asm/init_cp0.s:50
	ext	    a1, a0, 3, 1		// extract bit 3 WR (Watch registers implemented)
801002a0:	7c8500c0 	ext	a1,a0,0x3,0x1
C:\HJJ\Career\MimicMCU\demo\function_cpus\MIPS\src\asm/init_cp0.s:51
	beq 	a1, zero, done_wr
801002a4:	10a00012 	beqz	a1,801002f0 <done_wr>
801002a8:	00000000 	nop
C:\HJJ\Career\MimicMCU\demo\function_cpus\MIPS\src\asm/init_cp0.s:53

	li    	a1, 0x7				// (M_WatchHiI | M_WatchHiR | M_WatchHiW)
801002ac:	24050007 	li	a1,7
C:\HJJ\Career\MimicMCU\demo\function_cpus\MIPS\src\asm/init_cp0.s:56

	// Clear Watch Status bits and disable watch exceptions
	mtc0	a1, C0_WATCHHI		// write C0_WatchHi0
801002b0:	40859800 	mtc0	a1,c0_watchhi
C:\HJJ\Career\MimicMCU\demo\function_cpus\MIPS\src\asm/init_cp0.s:57
	mtc0	zero, C0_WATCHLO	// write C0_WatchLo0
801002b4:	40809000 	mtc0	zero,c0_watchlo
C:\HJJ\Career\MimicMCU\demo\function_cpus\MIPS\src\asm/init_cp0.s:59

	mtc0	a1, C0_WATCHHI, 1	// write C0_WatchHi1
801002b8:	40859801 	mtc0	a1,c0_watchhi,1
C:\HJJ\Career\MimicMCU\demo\function_cpus\MIPS\src\asm/init_cp0.s:60
	mtc0	zero, C0_WATCHLO, 1	// write C0_WatchLo1
801002bc:	40809001 	mtc0	zero,c0_watchlo,1
C:\HJJ\Career\MimicMCU\demo\function_cpus\MIPS\src\asm/init_cp0.s:62

	mtc0	a1, C0_WATCHHI, 2	// write C0_WatchHi2
801002c0:	40859802 	mtc0	a1,c0_watchhi,2
C:\HJJ\Career\MimicMCU\demo\function_cpus\MIPS\src\asm/init_cp0.s:63
	mtc0	zero, C0_WATCHLO, 2	// write C0_WatchLo2
801002c4:	40809002 	mtc0	zero,c0_watchlo,2
C:\HJJ\Career\MimicMCU\demo\function_cpus\MIPS\src\asm/init_cp0.s:65

	mtc0	a1, C0_WATCHHI, 3	// write C0_WatchHi3
801002c8:	40859803 	mtc0	a1,c0_watchhi,3
C:\HJJ\Career\MimicMCU\demo\function_cpus\MIPS\src\asm/init_cp0.s:66
	mtc0	zero, C0_WATCHLO, 3	// write C0_WatchLo3
801002cc:	40809003 	mtc0	zero,c0_watchlo,3
C:\HJJ\Career\MimicMCU\demo\function_cpus\MIPS\src\asm/init_cp0.s:68

	mtc0	a1, C0_WATCHHI, 4	// write C0_WatchHi4
801002d0:	40859804 	mtc0	a1,c0_watchhi,4
C:\HJJ\Career\MimicMCU\demo\function_cpus\MIPS\src\asm/init_cp0.s:69
	mtc0	zero, C0_WATCHLO, 4	// write C0_WatchLo4
801002d4:	40809004 	mtc0	zero,c0_watchlo,4
C:\HJJ\Career\MimicMCU\demo\function_cpus\MIPS\src\asm/init_cp0.s:71

	mtc0	a1, C0_WATCHHI, 5	// write C0_WatchHi5
801002d8:	40859805 	mtc0	a1,c0_watchhi,5
C:\HJJ\Career\MimicMCU\demo\function_cpus\MIPS\src\asm/init_cp0.s:72
	mtc0	zero, C0_WATCHLO, 5	// write C0_WatchLo5
801002dc:	40809005 	mtc0	zero,c0_watchlo,5
C:\HJJ\Career\MimicMCU\demo\function_cpus\MIPS\src\asm/init_cp0.s:74

	mtc0	a1, C0_WATCHHI, 6	// write C0_WatchHi6
801002e0:	40859806 	mtc0	a1,c0_watchhi,6
C:\HJJ\Career\MimicMCU\demo\function_cpus\MIPS\src\asm/init_cp0.s:75
	mtc0	zero, C0_WATCHLO, 6	// write C0_WatchLo6
801002e4:	40809006 	mtc0	zero,c0_watchlo,6
C:\HJJ\Career\MimicMCU\demo\function_cpus\MIPS\src\asm/init_cp0.s:77

	mtc0	a1, C0_WATCHHI, 7	// write C0_WatchHi7
801002e8:	40859807 	mtc0	a1,c0_watchhi,7
C:\HJJ\Career\MimicMCU\demo\function_cpus\MIPS\src\asm/init_cp0.s:78
	mtc0	zero, C0_WATCHLO, 7	// write C0_WatchLo7
801002ec:	40809007 	mtc0	zero,c0_watchlo,7

801002f0 <done_wr>:
C:\HJJ\Career\MimicMCU\demo\function_cpus\MIPS\src\asm/init_cp0.s:83

done_wr:

	// Clear WP bit to avoid watch exception upon user code entry, IV, and software interrupts.
	mtc0	zero, C0_CAUSE		// write C0_Cause: Init AFTER init of CP0 WatchHi/Lo registers.
801002f0:	40806800 	mtc0	zero,c0_cause
C:\HJJ\Career\MimicMCU\demo\function_cpus\MIPS\src\asm/init_cp0.s:86

	// Clear timer interrupt. (Count was cleared at the reset vector to allow timing boot.)
	mtc0	zero, C0_COMPARE	// write C0_Compare
801002f4:	40805800 	mtc0	zero,c0_compare
C:\HJJ\Career\MimicMCU\demo\function_cpus\MIPS\src\asm/init_cp0.s:88

    jr      ra
801002f8:	03e00008 	jr	ra
801002fc:	00000000 	nop

80100300 <pml_putc>:
pml_putc():
C:\HJJ\Career\MimicMCU\demo\function_cpus\application/main.c:8
#include "uart_print.h"
#include "driver_common.h"
#include "context.h"
#include "work.h"

void pml_putc(char data) {
80100300:	27bdfff8 	addiu	sp,sp,-8
80100304:	afbe0004 	sw	s8,4(sp)
80100308:	03a0f025 	move	s8,sp
8010030c:	00801025 	move	v0,a0
80100310:	a3c20008 	sb	v0,8(s8)
C:\HJJ\Career\MimicMCU\demo\function_cpus\application/main.c:9
  while ((HM_UART0->CSR & UART_CSR_TFUL_MASK));
80100314:	00000000 	nop
C:\HJJ\Career\MimicMCU\demo\function_cpus\application/main.c:9 (discriminator 1)
80100318:	3c024000 	lui	v0,0x4000
8010031c:	3442c000 	ori	v0,v0,0xc000
80100320:	8c42002c 	lw	v0,44(v0)
80100324:	30420010 	andi	v0,v0,0x10
80100328:	1440fffb 	bnez	v0,80100318 <pml_putc+0x18>
8010032c:	00000000 	nop
C:\HJJ\Career\MimicMCU\demo\function_cpus\application/main.c:10
  HM_UART0->TFIFO = data;
80100330:	3c024000 	lui	v0,0x4000
80100334:	3442c000 	ori	v0,v0,0xc000
80100338:	93c30008 	lbu	v1,8(s8)
8010033c:	ac430030 	sw	v1,48(v0)
C:\HJJ\Career\MimicMCU\demo\function_cpus\application/main.c:11
}
80100340:	00000000 	nop
80100344:	03c0e825 	move	sp,s8
80100348:	8fbe0004 	lw	s8,4(sp)
8010034c:	27bd0008 	addiu	sp,sp,8
80100350:	03e00008 	jr	ra
80100354:	00000000 	nop

80100358 <pml_printn>:
pml_printn():
C:\HJJ\Career\MimicMCU\demo\function_cpus\application/main.c:15

static const char charmap[16] = "0123456789abcdef";

static void pml_printn(unsigned n, unsigned bas) {
80100358:	27bdffe0 	addiu	sp,sp,-32
8010035c:	afbf001c 	sw	ra,28(sp)
80100360:	afbe0018 	sw	s8,24(sp)
80100364:	03a0f025 	move	s8,sp
80100368:	afc40020 	sw	a0,32(s8)
8010036c:	afc50024 	sw	a1,36(s8)
C:\HJJ\Career\MimicMCU\demo\function_cpus\application/main.c:18
  unsigned r;

  if ((r = n / bas) != 0) pml_printn(r, bas);
80100370:	8fc30020 	lw	v1,32(s8)
80100374:	8fc20024 	lw	v0,36(s8)
80100378:	004001f4 	teq	v0,zero,0x7
8010037c:	0062001b 	divu	zero,v1,v0
80100380:	00001010 	mfhi	v0
80100384:	00001012 	mflo	v0
80100388:	afc20010 	sw	v0,16(s8)
8010038c:	8fc20010 	lw	v0,16(s8)
80100390:	10400005 	beqz	v0,801003a8 <pml_printn+0x50>
80100394:	00000000 	nop
C:\HJJ\Career\MimicMCU\demo\function_cpus\application/main.c:18 (discriminator 1)
80100398:	8fc50024 	lw	a1,36(s8)
8010039c:	8fc40010 	lw	a0,16(s8)
801003a0:	0c0400d6 	jal	80100358 <pml_printn>
801003a4:	00000000 	nop
C:\HJJ\Career\MimicMCU\demo\function_cpus\application/main.c:19
  pml_putc(charmap[n % bas]);
801003a8:	8fc30020 	lw	v1,32(s8)
801003ac:	8fc20024 	lw	v0,36(s8)
801003b0:	004001f4 	teq	v0,zero,0x7
801003b4:	0062001b 	divu	zero,v1,v0
801003b8:	00001010 	mfhi	v0
801003bc:	00401825 	move	v1,v0
801003c0:	3c028010 	lui	v0,0x8010
801003c4:	24424b38 	addiu	v0,v0,19256
801003c8:	00621021 	addu	v0,v1,v0
801003cc:	90420000 	lbu	v0,0(v0)
801003d0:	00402025 	move	a0,v0
801003d4:	0c0400c0 	jal	80100300 <pml_putc>
801003d8:	00000000 	nop
C:\HJJ\Career\MimicMCU\demo\function_cpus\application/main.c:20
}
801003dc:	00000000 	nop
801003e0:	03c0e825 	move	sp,s8
801003e4:	8fbf001c 	lw	ra,28(sp)
801003e8:	8fbe0018 	lw	s8,24(sp)
801003ec:	27bd0020 	addiu	sp,sp,32
801003f0:	03e00008 	jr	ra
801003f4:	00000000 	nop

801003f8 <pml_print>:
pml_print():
C:\HJJ\Career\MimicMCU\demo\function_cpus\application/main.c:22

void pml_print(const char *fmt, ...) {
801003f8:	27bdffd0 	addiu	sp,sp,-48
801003fc:	afbf002c 	sw	ra,44(sp)
80100400:	afbe0028 	sw	s8,40(sp)
80100404:	03a0f025 	move	s8,sp
80100408:	afc40030 	sw	a0,48(s8)
8010040c:	afc50034 	sw	a1,52(s8)
80100410:	afc60038 	sw	a2,56(s8)
80100414:	afc7003c 	sw	a3,60(s8)
C:\HJJ\Career\MimicMCU\demo\function_cpus\application/main.c:23
  char c = 0, *s = NULL;
80100418:	a3c00014 	sb	zero,20(s8)
8010041c:	afc00010 	sw	zero,16(s8)
C:\HJJ\Career\MimicMCU\demo\function_cpus\application/main.c:24
  unsigned n = 0;
80100420:	afc00018 	sw	zero,24(s8)
C:\HJJ\Career\MimicMCU\demo\function_cpus\application/main.c:27

  va_list args;
  int t = 0;
80100424:	afc0001c 	sw	zero,28(s8)
C:\HJJ\Career\MimicMCU\demo\function_cpus\application/main.c:29

  va_start(args, fmt);
80100428:	27c20034 	addiu	v0,s8,52
8010042c:	afc20020 	sw	v0,32(s8)
C:\HJJ\Career\MimicMCU\demo\function_cpus\application/main.c:31

  while ((c = *fmt++) != '\0') {
80100430:	100000c4 	b	80100744 <pml_print+0x34c>
80100434:	00000000 	nop
C:\HJJ\Career\MimicMCU\demo\function_cpus\application/main.c:32
    if (c != '%') {
80100438:	93c30014 	lbu	v1,20(s8)
8010043c:	24020025 	li	v0,37
80100440:	10620007 	beq	v1,v0,80100460 <pml_print+0x68>
80100444:	00000000 	nop
C:\HJJ\Career\MimicMCU\demo\function_cpus\application/main.c:33
      pml_putc(c);
80100448:	93c20014 	lbu	v0,20(s8)
8010044c:	00402025 	move	a0,v0
80100450:	0c0400c0 	jal	80100300 <pml_putc>
80100454:	00000000 	nop
C:\HJJ\Career\MimicMCU\demo\function_cpus\application/main.c:34
      continue;
80100458:	100000ba 	b	80100744 <pml_print+0x34c>
8010045c:	00000000 	nop
C:\HJJ\Career\MimicMCU\demo\function_cpus\application/main.c:37
    }

    switch (c = *fmt++) {
80100460:	8fc20030 	lw	v0,48(s8)
80100464:	24430001 	addiu	v1,v0,1
80100468:	afc30030 	sw	v1,48(s8)
8010046c:	90420000 	lbu	v0,0(v0)
80100470:	a3c20014 	sb	v0,20(s8)
80100474:	93c20014 	lbu	v0,20(s8)
80100478:	2442ffa8 	addiu	v0,v0,-88
8010047c:	2c430021 	sltiu	v1,v0,33
80100480:	106000a6 	beqz	v1,8010071c <pml_print+0x324>
80100484:	00000000 	nop
80100488:	00021880 	sll	v1,v0,0x2
8010048c:	3c028010 	lui	v0,0x8010
80100490:	24424b48 	addiu	v0,v0,19272
80100494:	00621021 	addu	v0,v1,v0
80100498:	8c420000 	lw	v0,0(v0)
8010049c:	00400008 	jr	v0
801004a0:	00000000 	nop
C:\HJJ\Career\MimicMCU\demo\function_cpus\application/main.c:39
      case 'o':
        t = va_arg(args, int);
801004a4:	8fc20020 	lw	v0,32(s8)
801004a8:	24430004 	addiu	v1,v0,4
801004ac:	afc30020 	sw	v1,32(s8)
801004b0:	8c420000 	lw	v0,0(v0)
801004b4:	afc2001c 	sw	v0,28(s8)
C:\HJJ\Career\MimicMCU\demo\function_cpus\application/main.c:40
        pml_printn(t, 8);
801004b8:	8fc2001c 	lw	v0,28(s8)
801004bc:	24050008 	li	a1,8
801004c0:	00402025 	move	a0,v0
801004c4:	0c0400d6 	jal	80100358 <pml_printn>
801004c8:	00000000 	nop
C:\HJJ\Career\MimicMCU\demo\function_cpus\application/main.c:41
        break;
801004cc:	1000009d 	b	80100744 <pml_print+0x34c>
801004d0:	00000000 	nop
C:\HJJ\Career\MimicMCU\demo\function_cpus\application/main.c:43
      case 'u':
        t = va_arg(args, int);
801004d4:	8fc20020 	lw	v0,32(s8)
801004d8:	24430004 	addiu	v1,v0,4
801004dc:	afc30020 	sw	v1,32(s8)
801004e0:	8c420000 	lw	v0,0(v0)
801004e4:	afc2001c 	sw	v0,28(s8)
C:\HJJ\Career\MimicMCU\demo\function_cpus\application/main.c:44
        pml_printn(t, 10);
801004e8:	8fc2001c 	lw	v0,28(s8)
801004ec:	2405000a 	li	a1,10
801004f0:	00402025 	move	a0,v0
801004f4:	0c0400d6 	jal	80100358 <pml_printn>
801004f8:	00000000 	nop
C:\HJJ\Career\MimicMCU\demo\function_cpus\application/main.c:45
        break;
801004fc:	10000091 	b	80100744 <pml_print+0x34c>
80100500:	00000000 	nop
C:\HJJ\Career\MimicMCU\demo\function_cpus\application/main.c:48
      case 'x':
      case 'X':
        n = va_arg(args, unsigned int);
80100504:	8fc20020 	lw	v0,32(s8)
80100508:	24430004 	addiu	v1,v0,4
8010050c:	afc30020 	sw	v1,32(s8)
80100510:	8c420000 	lw	v0,0(v0)
80100514:	afc20018 	sw	v0,24(s8)
C:\HJJ\Career\MimicMCU\demo\function_cpus\application/main.c:50

        if (n >> 28) pml_putc(charmap[(n >> 28) & 0x0f]);
80100518:	8fc20018 	lw	v0,24(s8)
8010051c:	00021702 	srl	v0,v0,0x1c
80100520:	1040000a 	beqz	v0,8010054c <pml_print+0x154>
80100524:	00000000 	nop
C:\HJJ\Career\MimicMCU\demo\function_cpus\application/main.c:50 (discriminator 1)
80100528:	8fc20018 	lw	v0,24(s8)
8010052c:	00021f02 	srl	v1,v0,0x1c
80100530:	3c028010 	lui	v0,0x8010
80100534:	24424b38 	addiu	v0,v0,19256
80100538:	00621021 	addu	v0,v1,v0
8010053c:	90420000 	lbu	v0,0(v0)
80100540:	00402025 	move	a0,v0
80100544:	0c0400c0 	jal	80100300 <pml_putc>
80100548:	00000000 	nop
C:\HJJ\Career\MimicMCU\demo\function_cpus\application/main.c:51
        if (n >> 24) pml_putc(charmap[(n >> 24) & 0x0f]);
8010054c:	8fc20018 	lw	v0,24(s8)
80100550:	00021602 	srl	v0,v0,0x18
80100554:	1040000b 	beqz	v0,80100584 <pml_print+0x18c>
80100558:	00000000 	nop
C:\HJJ\Career\MimicMCU\demo\function_cpus\application/main.c:51 (discriminator 1)
8010055c:	8fc20018 	lw	v0,24(s8)
80100560:	00021602 	srl	v0,v0,0x18
80100564:	3043000f 	andi	v1,v0,0xf
80100568:	3c028010 	lui	v0,0x8010
8010056c:	24424b38 	addiu	v0,v0,19256
80100570:	00621021 	addu	v0,v1,v0
80100574:	90420000 	lbu	v0,0(v0)
80100578:	00402025 	move	a0,v0
8010057c:	0c0400c0 	jal	80100300 <pml_putc>
80100580:	00000000 	nop
C:\HJJ\Career\MimicMCU\demo\function_cpus\application/main.c:52
        if (n >> 20) pml_putc(charmap[(n >> 20) & 0x0f]);
80100584:	8fc20018 	lw	v0,24(s8)
80100588:	00021502 	srl	v0,v0,0x14
8010058c:	1040000b 	beqz	v0,801005bc <pml_print+0x1c4>
80100590:	00000000 	nop
C:\HJJ\Career\MimicMCU\demo\function_cpus\application/main.c:52 (discriminator 1)
80100594:	8fc20018 	lw	v0,24(s8)
80100598:	00021502 	srl	v0,v0,0x14
8010059c:	3043000f 	andi	v1,v0,0xf
801005a0:	3c028010 	lui	v0,0x8010
801005a4:	24424b38 	addiu	v0,v0,19256
801005a8:	00621021 	addu	v0,v1,v0
801005ac:	90420000 	lbu	v0,0(v0)
801005b0:	00402025 	move	a0,v0
801005b4:	0c0400c0 	jal	80100300 <pml_putc>
801005b8:	00000000 	nop
C:\HJJ\Career\MimicMCU\demo\function_cpus\application/main.c:53
        if (n >> 16) pml_putc(charmap[(n >> 16) & 0x0f]);
801005bc:	8fc20018 	lw	v0,24(s8)
801005c0:	00021402 	srl	v0,v0,0x10
801005c4:	1040000b 	beqz	v0,801005f4 <pml_print+0x1fc>
801005c8:	00000000 	nop
C:\HJJ\Career\MimicMCU\demo\function_cpus\application/main.c:53 (discriminator 1)
801005cc:	8fc20018 	lw	v0,24(s8)
801005d0:	00021402 	srl	v0,v0,0x10
801005d4:	3043000f 	andi	v1,v0,0xf
801005d8:	3c028010 	lui	v0,0x8010
801005dc:	24424b38 	addiu	v0,v0,19256
801005e0:	00621021 	addu	v0,v1,v0
801005e4:	90420000 	lbu	v0,0(v0)
801005e8:	00402025 	move	a0,v0
801005ec:	0c0400c0 	jal	80100300 <pml_putc>
801005f0:	00000000 	nop
C:\HJJ\Career\MimicMCU\demo\function_cpus\application/main.c:54
        if (n >> 12) pml_putc(charmap[(n >> 12) & 0x0f]);
801005f4:	8fc20018 	lw	v0,24(s8)
801005f8:	00021302 	srl	v0,v0,0xc
801005fc:	1040000b 	beqz	v0,8010062c <pml_print+0x234>
80100600:	00000000 	nop
C:\HJJ\Career\MimicMCU\demo\function_cpus\application/main.c:54 (discriminator 1)
80100604:	8fc20018 	lw	v0,24(s8)
80100608:	00021302 	srl	v0,v0,0xc
8010060c:	3043000f 	andi	v1,v0,0xf
80100610:	3c028010 	lui	v0,0x8010
80100614:	24424b38 	addiu	v0,v0,19256
80100618:	00621021 	addu	v0,v1,v0
8010061c:	90420000 	lbu	v0,0(v0)
80100620:	00402025 	move	a0,v0
80100624:	0c0400c0 	jal	80100300 <pml_putc>
80100628:	00000000 	nop
C:\HJJ\Career\MimicMCU\demo\function_cpus\application/main.c:55
        if (n >> 8) pml_putc(charmap[(n >> 8) & 0x0f]);
8010062c:	8fc20018 	lw	v0,24(s8)
80100630:	00021202 	srl	v0,v0,0x8
80100634:	1040000b 	beqz	v0,80100664 <pml_print+0x26c>
80100638:	00000000 	nop
C:\HJJ\Career\MimicMCU\demo\function_cpus\application/main.c:55 (discriminator 1)
8010063c:	8fc20018 	lw	v0,24(s8)
80100640:	00021202 	srl	v0,v0,0x8
80100644:	3043000f 	andi	v1,v0,0xf
80100648:	3c028010 	lui	v0,0x8010
8010064c:	24424b38 	addiu	v0,v0,19256
80100650:	00621021 	addu	v0,v1,v0
80100654:	90420000 	lbu	v0,0(v0)
80100658:	00402025 	move	a0,v0
8010065c:	0c0400c0 	jal	80100300 <pml_putc>
80100660:	00000000 	nop
C:\HJJ\Career\MimicMCU\demo\function_cpus\application/main.c:56
        if (n >> 4) pml_putc(charmap[(n >> 4) & 0x0f]);
80100664:	8fc20018 	lw	v0,24(s8)
80100668:	00021102 	srl	v0,v0,0x4
8010066c:	1040000b 	beqz	v0,8010069c <pml_print+0x2a4>
80100670:	00000000 	nop
C:\HJJ\Career\MimicMCU\demo\function_cpus\application/main.c:56 (discriminator 1)
80100674:	8fc20018 	lw	v0,24(s8)
80100678:	00021102 	srl	v0,v0,0x4
8010067c:	3043000f 	andi	v1,v0,0xf
80100680:	3c028010 	lui	v0,0x8010
80100684:	24424b38 	addiu	v0,v0,19256
80100688:	00621021 	addu	v0,v1,v0
8010068c:	90420000 	lbu	v0,0(v0)
80100690:	00402025 	move	a0,v0
80100694:	0c0400c0 	jal	80100300 <pml_putc>
80100698:	00000000 	nop
C:\HJJ\Career\MimicMCU\demo\function_cpus\application/main.c:57
        pml_putc(charmap[n & 0x0f]);
8010069c:	8fc20018 	lw	v0,24(s8)
801006a0:	3043000f 	andi	v1,v0,0xf
801006a4:	3c028010 	lui	v0,0x8010
801006a8:	24424b38 	addiu	v0,v0,19256
801006ac:	00621021 	addu	v0,v1,v0
801006b0:	90420000 	lbu	v0,0(v0)
801006b4:	00402025 	move	a0,v0
801006b8:	0c0400c0 	jal	80100300 <pml_putc>
801006bc:	00000000 	nop
C:\HJJ\Career\MimicMCU\demo\function_cpus\application/main.c:58
        break;
801006c0:	10000020 	b	80100744 <pml_print+0x34c>
801006c4:	00000000 	nop
C:\HJJ\Career\MimicMCU\demo\function_cpus\application/main.c:61

      case 's':
        s = va_arg(args, char *);
801006c8:	8fc20020 	lw	v0,32(s8)
801006cc:	24430004 	addiu	v1,v0,4
801006d0:	afc30020 	sw	v1,32(s8)
801006d4:	8c420000 	lw	v0,0(v0)
801006d8:	afc20010 	sw	v0,16(s8)
C:\HJJ\Career\MimicMCU\demo\function_cpus\application/main.c:62
        for (; *s != '\0'; ++s) {
801006dc:	10000009 	b	80100704 <pml_print+0x30c>
801006e0:	00000000 	nop
C:\HJJ\Career\MimicMCU\demo\function_cpus\application/main.c:63 (discriminator 2)
          pml_putc(*s);
801006e4:	8fc20010 	lw	v0,16(s8)
801006e8:	90420000 	lbu	v0,0(v0)
801006ec:	00402025 	move	a0,v0
801006f0:	0c0400c0 	jal	80100300 <pml_putc>
801006f4:	00000000 	nop
C:\HJJ\Career\MimicMCU\demo\function_cpus\application/main.c:62 (discriminator 2)
        for (; *s != '\0'; ++s) {
801006f8:	8fc20010 	lw	v0,16(s8)
801006fc:	24420001 	addiu	v0,v0,1
80100700:	afc20010 	sw	v0,16(s8)
C:\HJJ\Career\MimicMCU\demo\function_cpus\application/main.c:62 (discriminator 1)
80100704:	8fc20010 	lw	v0,16(s8)
80100708:	90420000 	lbu	v0,0(v0)
8010070c:	1440fff5 	bnez	v0,801006e4 <pml_print+0x2ec>
80100710:	00000000 	nop
C:\HJJ\Career\MimicMCU\demo\function_cpus\application/main.c:65
        }
        break;
80100714:	1000000b 	b	80100744 <pml_print+0x34c>
80100718:	00000000 	nop
C:\HJJ\Career\MimicMCU\demo\function_cpus\application/main.c:68

      default:
        c = va_arg(args, int);
8010071c:	8fc20020 	lw	v0,32(s8)
80100720:	24430004 	addiu	v1,v0,4
80100724:	afc30020 	sw	v1,32(s8)
80100728:	8c420000 	lw	v0,0(v0)
8010072c:	a3c20014 	sb	v0,20(s8)
C:\HJJ\Career\MimicMCU\demo\function_cpus\application/main.c:69
        pml_putc(c);
80100730:	93c20014 	lbu	v0,20(s8)
80100734:	00402025 	move	a0,v0
80100738:	0c0400c0 	jal	80100300 <pml_putc>
8010073c:	00000000 	nop
C:\HJJ\Career\MimicMCU\demo\function_cpus\application/main.c:70
        continue;
80100740:	00000000 	nop
C:\HJJ\Career\MimicMCU\demo\function_cpus\application/main.c:31
  while ((c = *fmt++) != '\0') {
80100744:	8fc20030 	lw	v0,48(s8)
80100748:	24430001 	addiu	v1,v0,1
8010074c:	afc30030 	sw	v1,48(s8)
80100750:	90420000 	lbu	v0,0(v0)
80100754:	a3c20014 	sb	v0,20(s8)
80100758:	93c20014 	lbu	v0,20(s8)
8010075c:	1440ff36 	bnez	v0,80100438 <pml_print+0x40>
80100760:	00000000 	nop
C:\HJJ\Career\MimicMCU\demo\function_cpus\application/main.c:74
    }
  }
  va_end(args);
}
80100764:	00000000 	nop
80100768:	03c0e825 	move	sp,s8
8010076c:	8fbf002c 	lw	ra,44(sp)
80100770:	8fbe0028 	lw	s8,40(sp)
80100774:	27bd0030 	addiu	sp,sp,48
80100778:	03e00008 	jr	ra
8010077c:	00000000 	nop

80100780 <TestOneCPUErr>:
TestOneCPUErr():
C:\HJJ\Career\MimicMCU\demo\function_cpus\application/main.c:76

void TestOneCPUErr() {
80100780:	27bdffc8 	addiu	sp,sp,-56
80100784:	afbf0034 	sw	ra,52(sp)
80100788:	afbe0030 	sw	s8,48(sp)
8010078c:	03a0f025 	move	s8,sp
C:\HJJ\Career\MimicMCU\demo\function_cpus\application/main.c:77
  int t = 0;
80100790:	afc00010 	sw	zero,16(s8)
C:\HJJ\Career\MimicMCU\demo\function_cpus\application/main.c:78
  if (CTRL_RST_FLAG == 1) {
80100794:	3c024100 	lui	v0,0x4100
80100798:	34420058 	ori	v0,v0,0x58
8010079c:	8c430000 	lw	v1,0(v0)
801007a0:	24020001 	li	v0,1
801007a4:	14620060 	bne	v1,v0,80100928 <TestOneCPUErr+0x1a8>
801007a8:	00000000 	nop
C:\HJJ\Career\MimicMCU\demo\function_cpus\application/main.c:79
    CTRL_RST_FLAG = 0;
801007ac:	3c024100 	lui	v0,0x4100
801007b0:	34420058 	ori	v0,v0,0x58
801007b4:	ac400000 	sw	zero,0(v0)
C:\HJJ\Career\MimicMCU\demo\function_cpus\application/main.c:82
    // BOOT_FINISH_FLAG = 1; // todo, influence vary at DMR, and the next time

    if (RD_RESTORE_FROM_CHECKER == 1) {
801007b8:	3c024100 	lui	v0,0x4100
801007bc:	34420020 	ori	v0,v0,0x20
801007c0:	8c430000 	lw	v1,0(v0)
801007c4:	24020001 	li	v0,1
801007c8:	14620055 	bne	v1,v0,80100920 <TestOneCPUErr+0x1a0>
801007cc:	00000000 	nop
C:\HJJ\Career\MimicMCU\demo\function_cpus\application/main.c:83
      pml_stack_restore();
801007d0:	0c0402e6 	jal	80100b98 <pml_stack_restore>
801007d4:	00000000 	nop
C:\HJJ\Career\MimicMCU\demo\function_cpus\application/main.c:84
      pml_loc_restore();
801007d8:	0c040453 	jal	8010114c <pml_loc_restore>
801007dc:	00000000 	nop
C:\HJJ\Career\MimicMCU\demo\function_cpus\application/main.c:85
      unsigned all_cpu_err = ALL_CPU_ERROR;
801007e0:	3c024100 	lui	v0,0x4100
801007e4:	34420038 	ori	v0,v0,0x38
801007e8:	8c420000 	lw	v0,0(v0)
801007ec:	afc20014 	sw	v0,20(s8)
C:\HJJ\Career\MimicMCU\demo\function_cpus\application/main.c:86
      RESTORE_FINISH = 0x1; // this will make hardware clear ALL_CPU_ERROR
801007f0:	3c024100 	lui	v0,0x4100
801007f4:	34420018 	ori	v0,v0,0x18
801007f8:	24030001 	li	v1,1
801007fc:	ac430000 	sw	v1,0(v0)
C:\HJJ\Career\MimicMCU\demo\function_cpus\application/main.c:87
      t = 1;
80100800:	24020001 	li	v0,1
80100804:	afc20010 	sw	v0,16(s8)
C:\HJJ\Career\MimicMCU\demo\function_cpus\application/main.c:89

      if (all_cpu_err == 1) {
80100808:	8fc30014 	lw	v1,20(s8)
8010080c:	24020001 	li	v0,1
80100810:	1462000d 	bne	v1,v0,80100848 <TestOneCPUErr+0xc8>
80100814:	00000000 	nop
C:\HJJ\Career\MimicMCU\demo\function_cpus\application/main.c:90
        unsigned* lad = NULL;
80100818:	afc00020 	sw	zero,32(s8)
C:\HJJ\Career\MimicMCU\demo\function_cpus\application/main.c:92
        // pml_print("\r\nli = %u\r\n", LAST_PASS_EVENT_INDEX);
        GetLabelAddr(LAST_PASS_EVENT_INDEX, &lad);
8010081c:	3c024100 	lui	v0,0x4100
80100820:	3442003c 	ori	v0,v0,0x3c
80100824:	8c420000 	lw	v0,0(v0)
80100828:	27c30020 	addiu	v1,s8,32
8010082c:	00602825 	move	a1,v1
80100830:	00402025 	move	a0,v0
80100834:	0c040385 	jal	80100e14 <GetLabelAddr>
80100838:	00000000 	nop
C:\HJJ\Career\MimicMCU\demo\function_cpus\application/main.c:93
        goto *lad;
8010083c:	8fc20020 	lw	v0,32(s8)
80100840:	00400008 	jr	v0
80100844:	00000000 	nop
C:\HJJ\Career\MimicMCU\demo\function_cpus\application/main.c:96
      } else {
        while (1) {
          if (OTHER_CPU1_EVENT_END && OTHER_CPU2_EVENT_END) {
80100848:	3c024100 	lui	v0,0x4100
8010084c:	34420024 	ori	v0,v0,0x24
80100850:	8c420000 	lw	v0,0(v0)
80100854:	1040fffc 	beqz	v0,80100848 <TestOneCPUErr+0xc8>
80100858:	00000000 	nop
C:\HJJ\Career\MimicMCU\demo\function_cpus\application/main.c:96 (discriminator 1)
8010085c:	3c024100 	lui	v0,0x4100
80100860:	34420028 	ori	v0,v0,0x28
80100864:	8c420000 	lw	v0,0(v0)
80100868:	1040fff7 	beqz	v0,80100848 <TestOneCPUErr+0xc8>
8010086c:	00000000 	nop
C:\HJJ\Career\MimicMCU\demo\function_cpus\application/main.c:97
            if (OTHER_CPU1_EVENT_INDEX == OTHER_CPU2_EVENT_INDEX) {
80100870:	3c024100 	lui	v0,0x4100
80100874:	3442002c 	ori	v0,v0,0x2c
80100878:	8c430000 	lw	v1,0(v0)
8010087c:	3c024100 	lui	v0,0x4100
80100880:	34420030 	ori	v0,v0,0x30
80100884:	8c420000 	lw	v0,0(v0)
80100888:	1462ffef 	bne	v1,v0,80100848 <TestOneCPUErr+0xc8>
8010088c:	00000000 	nop
C:\HJJ\Career\MimicMCU\demo\function_cpus\application/main.c:98
              OTHER_CPU1_EVENT_END = 0;
80100890:	3c024100 	lui	v0,0x4100
80100894:	34420024 	ori	v0,v0,0x24
80100898:	ac400000 	sw	zero,0(v0)
C:\HJJ\Career\MimicMCU\demo\function_cpus\application/main.c:99
              OTHER_CPU2_EVENT_END = 0;
8010089c:	3c024100 	lui	v0,0x4100
801008a0:	34420028 	ori	v0,v0,0x28
801008a4:	ac400000 	sw	zero,0(v0)
C:\HJJ\Career\MimicMCU\demo\function_cpus\application/main.c:100
              break;
801008a8:	00000000 	nop
C:\HJJ\Career\MimicMCU\demo\function_cpus\application/main.c:105
            }
          }
        }

        unsigned* lad = NULL;
801008ac:	afc00024 	sw	zero,36(s8)
C:\HJJ\Career\MimicMCU\demo\function_cpus\application/main.c:106
        GetLabelAddr(OTHER_CPU1_EVENT_INDEX, &lad);
801008b0:	3c024100 	lui	v0,0x4100
801008b4:	3442002c 	ori	v0,v0,0x2c
801008b8:	8c420000 	lw	v0,0(v0)
801008bc:	27c30024 	addiu	v1,s8,36
801008c0:	00602825 	move	a1,v1
801008c4:	00402025 	move	a0,v0
801008c8:	0c040385 	jal	80100e14 <GetLabelAddr>
801008cc:	00000000 	nop
C:\HJJ\Career\MimicMCU\demo\function_cpus\application/main.c:109

        while (1) {
          if(OTHER_CPU1_SAVE_CTX_FINISH && OTHER_CPU2_SAVE_CTX_FINISH) {
801008d0:	3c024100 	lui	v0,0x4100
801008d4:	3442006c 	ori	v0,v0,0x6c
801008d8:	8c420000 	lw	v0,0(v0)
801008dc:	1040fffc 	beqz	v0,801008d0 <TestOneCPUErr+0x150>
801008e0:	00000000 	nop
C:\HJJ\Career\MimicMCU\demo\function_cpus\application/main.c:109 (discriminator 1)
801008e4:	3c024100 	lui	v0,0x4100
801008e8:	34420070 	ori	v0,v0,0x70
801008ec:	8c420000 	lw	v0,0(v0)
801008f0:	1040fff7 	beqz	v0,801008d0 <TestOneCPUErr+0x150>
801008f4:	00000000 	nop
C:\HJJ\Career\MimicMCU\demo\function_cpus\application/main.c:110
            OTHER_CPU1_SAVE_CTX_FINISH = 0;
801008f8:	3c024100 	lui	v0,0x4100
801008fc:	3442006c 	ori	v0,v0,0x6c
80100900:	ac400000 	sw	zero,0(v0)
C:\HJJ\Career\MimicMCU\demo\function_cpus\application/main.c:111
            OTHER_CPU2_SAVE_CTX_FINISH = 0;
80100904:	3c024100 	lui	v0,0x4100
80100908:	34420070 	ori	v0,v0,0x70
8010090c:	ac400000 	sw	zero,0(v0)
C:\HJJ\Career\MimicMCU\demo\function_cpus\application/main.c:112
            break;
80100910:	00000000 	nop
C:\HJJ\Career\MimicMCU\demo\function_cpus\application/main.c:115
          }
        } 
        goto *lad;
80100914:	8fc20024 	lw	v0,36(s8)
80100918:	00400008 	jr	v0
8010091c:	00000000 	nop
C:\HJJ\Career\MimicMCU\demo\function_cpus\application/main.c:118
      }
    } else {
      t = 1;
80100920:	24020001 	li	v0,1
80100924:	afc20010 	sw	v0,16(s8)
C:\HJJ\Career\MimicMCU\demo\function_cpus\application/main.c:122
    }
  }
  
  int* common = (int*)pml_com_malloc(sizeof(int));
80100928:	24040004 	li	a0,4
8010092c:	0c0403b3 	jal	80100ecc <pml_com_malloc>
80100930:	00000000 	nop
80100934:	afc20018 	sw	v0,24(s8)
C:\HJJ\Career\MimicMCU\demo\function_cpus\application/main.c:123
  *common = 1000;
80100938:	8fc20018 	lw	v0,24(s8)
8010093c:	240303e8 	li	v1,1000
80100940:	ac430000 	sw	v1,0(v0)
C:\HJJ\Career\MimicMCU\demo\function_cpus\application/main.c:124
  int* local = (int*)pml_loc_malloc(sizeof(int));
80100944:	24040004 	li	a0,4
80100948:	0c0403d3 	jal	80100f4c <pml_loc_malloc>
8010094c:	00000000 	nop
80100950:	afc2001c 	sw	v0,28(s8)
C:\HJJ\Career\MimicMCU\demo\function_cpus\application/main.c:125
  *local = 99;
80100954:	8fc2001c 	lw	v0,28(s8)
80100958:	24030063 	li	v1,99
8010095c:	ac430000 	sw	v1,0(v0)
C:\HJJ\Career\MimicMCU\demo\function_cpus\application/main.c:129
  // pml_print("o:%u,%u\r\n", *common, *local);

  // triple modular redundancy
  *common = *common - 10;
80100960:	8fc20018 	lw	v0,24(s8)
80100964:	8c420000 	lw	v0,0(v0)
80100968:	2443fff6 	addiu	v1,v0,-10
8010096c:	8fc20018 	lw	v0,24(s8)
80100970:	ac430000 	sw	v1,0(v0)
C:\HJJ\Career\MimicMCU\demo\function_cpus\application/main.c:130
  *local = *local - 10;
80100974:	8fc2001c 	lw	v0,28(s8)
80100978:	8c420000 	lw	v0,0(v0)
8010097c:	2443fff6 	addiu	v1,v0,-10
80100980:	8fc2001c 	lw	v0,28(s8)
80100984:	ac430000 	sw	v1,0(v0)
C:\HJJ\Career\MimicMCU\demo\function_cpus\application/main.c:131
  EVENT_END_WITH_LABEL(10);
80100988:	afc00028 	sw	zero,40(s8)
8010098c:	03a01025 	move	v0,sp
80100990:	afc20028 	sw	v0,40(s8)
80100994:	3c028012 	lui	v0,0x8012
80100998:	3442e000 	ori	v0,v0,0xe000
8010099c:	8fc30028 	lw	v1,40(s8)
801009a0:	ac430000 	sw	v1,0(v0)
801009a4:	3c024100 	lui	v0,0x4100
801009a8:	34420034 	ori	v0,v0,0x34
801009ac:	2403000a 	li	v1,10
801009b0:	ac430000 	sw	v1,0(v0)
801009b4:	3c024100 	lui	v0,0x4100
801009b8:	3442001c 	ori	v0,v0,0x1c
801009bc:	24030001 	li	v1,1
801009c0:	ac430000 	sw	v1,0(v0)
801009c4:	0c040498 	jal	80101260 <event_delay>
801009c8:	00000000 	nop
C:\HJJ\Career\MimicMCU\demo\function_cpus\application/main.c:133

  if (t == 0) {
801009cc:	8fc20010 	lw	v0,16(s8)
801009d0:	1440000d 	bnez	v0,80100a08 <TestOneCPUErr+0x288>
801009d4:	00000000 	nop
C:\HJJ\Career\MimicMCU\demo\function_cpus\application/main.c:134
    pml_print("\r\n********************   DemoAttack start...   ********************\r\n");
801009d8:	3c028010 	lui	v0,0x8010
801009dc:	24444bcc 	addiu	a0,v0,19404
801009e0:	0c0400fe 	jal	801003f8 <pml_print>
801009e4:	00000000 	nop
C:\HJJ\Career\MimicMCU\demo\function_cpus\application/main.c:135
    DemoAttack();
801009e8:	0c040342 	jal	80100d08 <DemoAttack>
801009ec:	00000000 	nop
C:\HJJ\Career\MimicMCU\demo\function_cpus\application/main.c:136
    pml_print("********************   DemoAttack end.       ********************\r\n");
801009f0:	3c028010 	lui	v0,0x8010
801009f4:	24444c14 	addiu	a0,v0,19476
801009f8:	0c0400fe 	jal	801003f8 <pml_print>
801009fc:	00000000 	nop
80100a00:	10000009 	b	80100a28 <TestOneCPUErr+0x2a8>
80100a04:	00000000 	nop
C:\HJJ\Career\MimicMCU\demo\function_cpus\application/main.c:138
  } else {
    pml_print("\r\n********************   DemoAttack end.       ********************\r\n");
80100a08:	3c028010 	lui	v0,0x8010
80100a0c:	24444c58 	addiu	a0,v0,19544
80100a10:	0c0400fe 	jal	801003f8 <pml_print>
80100a14:	00000000 	nop
C:\HJJ\Career\MimicMCU\demo\function_cpus\application/main.c:139
    pml_print("Reboot end.\r\n");
80100a18:	3c028010 	lui	v0,0x8010
80100a1c:	24444ca0 	addiu	a0,v0,19616
80100a20:	0c0400fe 	jal	801003f8 <pml_print>
80100a24:	00000000 	nop
C:\HJJ\Career\MimicMCU\demo\function_cpus\application/main.c:144
  }
  

  // dual modular redundancy
  *common = *common - *local;
80100a28:	8fc20018 	lw	v0,24(s8)
80100a2c:	8c430000 	lw	v1,0(v0)
80100a30:	8fc2001c 	lw	v0,28(s8)
80100a34:	8c420000 	lw	v0,0(v0)
80100a38:	00621823 	subu	v1,v1,v0
80100a3c:	8fc20018 	lw	v0,24(s8)
80100a40:	ac430000 	sw	v1,0(v0)
C:\HJJ\Career\MimicMCU\demo\function_cpus\application/main.c:146
  // *local = *local - 1;  // 2cpu-mode, change *local will cause the err cpu's value different below.
  pml_print("chk_pass_cnt=%u,%u,%u\r\n", S0_CHK_PASS_CNT, S1_CHK_PASS_CNT, S2_CHK_PASS_CNT);
80100a44:	3c024100 	lui	v0,0x4100
80100a48:	34420048 	ori	v0,v0,0x48
80100a4c:	8c430000 	lw	v1,0(v0)
80100a50:	3c024100 	lui	v0,0x4100
80100a54:	3442004c 	ori	v0,v0,0x4c
80100a58:	8c440000 	lw	a0,0(v0)
80100a5c:	3c024100 	lui	v0,0x4100
80100a60:	34420050 	ori	v0,v0,0x50
80100a64:	8c420000 	lw	v0,0(v0)
80100a68:	00403825 	move	a3,v0
80100a6c:	00803025 	move	a2,a0
80100a70:	00602825 	move	a1,v1
80100a74:	3c028010 	lui	v0,0x8010
80100a78:	24444cb0 	addiu	a0,v0,19632
80100a7c:	0c0400fe 	jal	801003f8 <pml_print>
80100a80:	00000000 	nop
C:\HJJ\Career\MimicMCU\demo\function_cpus\application/main.c:149
  
  // wait for the failed cpu recovering
  Delay(5);
80100a84:	24040005 	li	a0,5
80100a88:	0c04050f 	jal	8010143c <Delay>
80100a8c:	00000000 	nop
C:\HJJ\Career\MimicMCU\demo\function_cpus\application/main.c:150
  EVENT_END_WITH_LABEL(11);
80100a90:	afc0002c 	sw	zero,44(s8)
80100a94:	03a01025 	move	v0,sp
80100a98:	afc2002c 	sw	v0,44(s8)
80100a9c:	3c028012 	lui	v0,0x8012
80100aa0:	3442e000 	ori	v0,v0,0xe000
80100aa4:	8fc3002c 	lw	v1,44(s8)
80100aa8:	ac430000 	sw	v1,0(v0)
80100aac:	3c024100 	lui	v0,0x4100
80100ab0:	34420034 	ori	v0,v0,0x34
80100ab4:	2403000b 	li	v1,11
80100ab8:	ac430000 	sw	v1,0(v0)
80100abc:	3c024100 	lui	v0,0x4100
80100ac0:	3442001c 	ori	v0,v0,0x1c
80100ac4:	24030001 	li	v1,1
80100ac8:	ac430000 	sw	v1,0(v0)
80100acc:	0c040498 	jal	80101260 <event_delay>
80100ad0:	00000000 	nop
C:\HJJ\Career\MimicMCU\demo\function_cpus\application/main.c:153
  
  // If recovered, here should be equal; otherwise, wait more time.
  pml_print("chk_pass_cnt=%u,%u,%u\r\n", S0_CHK_PASS_CNT, S1_CHK_PASS_CNT, S2_CHK_PASS_CNT);
80100ad4:	3c024100 	lui	v0,0x4100
80100ad8:	34420048 	ori	v0,v0,0x48
80100adc:	8c430000 	lw	v1,0(v0)
80100ae0:	3c024100 	lui	v0,0x4100
80100ae4:	3442004c 	ori	v0,v0,0x4c
80100ae8:	8c440000 	lw	a0,0(v0)
80100aec:	3c024100 	lui	v0,0x4100
80100af0:	34420050 	ori	v0,v0,0x50
80100af4:	8c420000 	lw	v0,0(v0)
80100af8:	00403825 	move	a3,v0
80100afc:	00803025 	move	a2,a0
80100b00:	00602825 	move	a1,v1
80100b04:	3c028010 	lui	v0,0x8010
80100b08:	24444cb0 	addiu	a0,v0,19632
80100b0c:	0c0400fe 	jal	801003f8 <pml_print>
80100b10:	00000000 	nop
C:\HJJ\Career\MimicMCU\demo\function_cpus\application/main.c:155
  
  *common = *common - 10;
80100b14:	8fc20018 	lw	v0,24(s8)
80100b18:	8c420000 	lw	v0,0(v0)
80100b1c:	2443fff6 	addiu	v1,v0,-10
80100b20:	8fc20018 	lw	v0,24(s8)
80100b24:	ac430000 	sw	v1,0(v0)
C:\HJJ\Career\MimicMCU\demo\function_cpus\application/main.c:156
  *local = *local - 10;
80100b28:	8fc2001c 	lw	v0,28(s8)
80100b2c:	8c420000 	lw	v0,0(v0)
80100b30:	2443fff6 	addiu	v1,v0,-10
80100b34:	8fc2001c 	lw	v0,28(s8)
80100b38:	ac430000 	sw	v1,0(v0)
C:\HJJ\Career\MimicMCU\demo\function_cpus\application/main.c:158
  // pml_print("r:%u,%u\r\n", *common, *local); // 891,79p
}
80100b3c:	00000000 	nop
80100b40:	03c0e825 	move	sp,s8
80100b44:	8fbf0034 	lw	ra,52(sp)
80100b48:	8fbe0030 	lw	s8,48(sp)
80100b4c:	27bd0038 	addiu	sp,sp,56
80100b50:	03e00008 	jr	ra
80100b54:	00000000 	nop

80100b58 <main>:
main():
C:\HJJ\Career\MimicMCU\demo\function_cpus\application/main.c:161


int main() {
80100b58:	27bdffe8 	addiu	sp,sp,-24
80100b5c:	afbf0014 	sw	ra,20(sp)
80100b60:	afbe0010 	sw	s8,16(sp)
80100b64:	03a0f025 	move	s8,sp
C:\HJJ\Career\MimicMCU\demo\function_cpus\application/main.c:162
  SetEDAMode(1);
80100b68:	24040001 	li	a0,1
80100b6c:	0c040553 	jal	8010154c <SetEDAMode>
80100b70:	00000000 	nop
C:\HJJ\Career\MimicMCU\demo\function_cpus\application/main.c:164

  TestOneCPUErr();  // 0don't test irq; 1: test irq.
80100b74:	0c0401e0 	jal	80100780 <TestOneCPUErr>
80100b78:	00000000 	nop
C:\HJJ\Career\MimicMCU\demo\function_cpus\application/main.c:165
  return 0;
80100b7c:	00001025 	move	v0,zero
C:\HJJ\Career\MimicMCU\demo\function_cpus\application/main.c:166
}
80100b80:	03c0e825 	move	sp,s8
80100b84:	8fbf0014 	lw	ra,20(sp)
80100b88:	8fbe0010 	lw	s8,16(sp)
80100b8c:	27bd0018 	addiu	sp,sp,24
80100b90:	03e00008 	jr	ra
80100b94:	00000000 	nop

80100b98 <pml_stack_restore>:
C:\HJJ\Career\MimicMCU\demo\function_cpus\MIPS\src/gen.S:6
#include <mips/asm.h>
#include <mips/regdef.h>
#include <mips/cpu.h>

LEAF(pml_stack_restore)
    addiu	sp,sp,-32
80100b98:	27bdffe0 	addiu	sp,sp,-32
C:\HJJ\Career\MimicMCU\demo\function_cpus\MIPS\src/gen.S:7
	sw	ra,28(sp)
80100b9c:	afbf001c 	sw	ra,28(sp)
C:\HJJ\Career\MimicMCU\demo\function_cpus\MIPS\src/gen.S:8
	sw	s8,24(sp)
80100ba0:	afbe0018 	sw	s8,24(sp)
C:\HJJ\Career\MimicMCU\demo\function_cpus\MIPS\src/gen.S:9
	move	s8,sp
80100ba4:	03a0f025 	move	s8,sp
C:\HJJ\Career\MimicMCU\demo\function_cpus\MIPS\src/gen.S:10
	sw	zero,16(s8)
80100ba8:	afc00010 	sw	zero,16(s8)
C:\HJJ\Career\MimicMCU\demo\function_cpus\MIPS\src/gen.S:11
	addiu s7, s8, 24
80100bac:	27d70018 	addiu	s7,s8,24
C:\HJJ\Career\MimicMCU\demo\function_cpus\MIPS\src/gen.S:12
	lw  s6, 0(s7)
80100bb0:	8ef60000 	lw	s6,0(s7)
C:\HJJ\Career\MimicMCU\demo\function_cpus\MIPS\src/gen.S:13
	sw	s6,16(s8)
80100bb4:	afd60010 	sw	s6,16(s8)
C:\HJJ\Career\MimicMCU\demo\function_cpus\MIPS\src/gen.S:14
	lw	a0,16(s8)
80100bb8:	8fc40010 	lw	a0,16(s8)
C:\HJJ\Career\MimicMCU\demo\function_cpus\MIPS\src/gen.S:15
	la  t0, stack_restore_helper
80100bbc:	3c088010 	lui	t0,0x8010
80100bc0:	2508137c 	addiu	t0,t0,4988
C:\HJJ\Career\MimicMCU\demo\function_cpus\MIPS\src/gen.S:16
	jalr t0
80100bc4:	0100f809 	jalr	t0
80100bc8:	00000000 	nop
	...
C:\HJJ\Career\MimicMCU\demo\function_cpus\MIPS\src/gen.S:19
	nop
	nop
    move	sp,s8
80100bd4:	03c0e825 	move	sp,s8
C:\HJJ\Career\MimicMCU\demo\function_cpus\MIPS\src/gen.S:20
    lw	ra,28(sp)
80100bd8:	8fbf001c 	lw	ra,28(sp)
C:\HJJ\Career\MimicMCU\demo\function_cpus\MIPS\src/gen.S:21
    lw	s8,24(sp)
80100bdc:	8fbe0018 	lw	s8,24(sp)
C:\HJJ\Career\MimicMCU\demo\function_cpus\MIPS\src/gen.S:22
    addiu	sp,sp,32
80100be0:	27bd0020 	addiu	sp,sp,32
C:\HJJ\Career\MimicMCU\demo\function_cpus\MIPS\src/gen.S:23
    jr	ra
80100be4:	03e00008 	jr	ra
80100be8:	00000000 	nop
C:\HJJ\Career\MimicMCU\demo\function_cpus\MIPS\src/gen.S:24
    nop
80100bec:	00000000 	nop

80100bf0 <register_callback>:
register_callback():
C:\HJJ\Career\MimicMCU\demo\function_cpus\application\work/work.c:8
typedef void (*callback_t)(void);
#define MAX_CALLBACKS 4
callback_t callback_table[MAX_CALLBACKS];
volatile callback_t emergency_stop_callback = 0;

void register_callback(int index, callback_t cb) { callback_table[index] = cb; }
80100bf0:	27bdfff8 	addiu	sp,sp,-8
80100bf4:	afbe0004 	sw	s8,4(sp)
80100bf8:	03a0f025 	move	s8,sp
80100bfc:	afc40008 	sw	a0,8(s8)
80100c00:	afc5000c 	sw	a1,12(s8)
80100c04:	3c028012 	lui	v0,0x8012
80100c08:	8fc30008 	lw	v1,8(s8)
80100c0c:	00031880 	sll	v1,v1,0x2
80100c10:	24420108 	addiu	v0,v0,264
80100c14:	00621021 	addu	v0,v1,v0
80100c18:	8fc3000c 	lw	v1,12(s8)
80100c1c:	ac430000 	sw	v1,0(v0)
80100c20:	00000000 	nop
80100c24:	03c0e825 	move	sp,s8
80100c28:	8fbe0004 	lw	s8,4(sp)
80100c2c:	27bd0008 	addiu	sp,sp,8
80100c30:	03e00008 	jr	ra
80100c34:	00000000 	nop

80100c38 <legitimate_callback>:
legitimate_callback():
C:\HJJ\Career\MimicMCU\demo\function_cpus\application\work/work.c:14

char incMsg[2][100] = {
  {"The battery voltage exceeds the permissible threshold! Stop it now!!!\n"},
  {"The battery voltage is normal.\n"}
};
void legitimate_callback() { pml_print(incMsg[0]); }
80100c38:	27bdffe8 	addiu	sp,sp,-24
80100c3c:	afbf0014 	sw	ra,20(sp)
80100c40:	afbe0010 	sw	s8,16(sp)
80100c44:	03a0f025 	move	s8,sp
80100c48:	3c028012 	lui	v0,0x8012
80100c4c:	24440000 	addiu	a0,v0,0
80100c50:	0c0400fe 	jal	801003f8 <pml_print>
80100c54:	00000000 	nop
80100c58:	00000000 	nop
80100c5c:	03c0e825 	move	sp,s8
80100c60:	8fbf0014 	lw	ra,20(sp)
80100c64:	8fbe0010 	lw	s8,16(sp)
80100c68:	27bd0018 	addiu	sp,sp,24
80100c6c:	03e00008 	jr	ra
80100c70:	00000000 	nop

80100c74 <malicious_payload>:
malicious_payload():
C:\HJJ\Career\MimicMCU\demo\function_cpus\application\work/work.c:16

void malicious_payload() { pml_print(incMsg[1]); }
80100c74:	27bdffe8 	addiu	sp,sp,-24
80100c78:	afbf0014 	sw	ra,20(sp)
80100c7c:	afbe0010 	sw	s8,16(sp)
80100c80:	03a0f025 	move	s8,sp
80100c84:	3c028012 	lui	v0,0x8012
80100c88:	24440064 	addiu	a0,v0,100
80100c8c:	0c0400fe 	jal	801003f8 <pml_print>
80100c90:	00000000 	nop
80100c94:	00000000 	nop
80100c98:	03c0e825 	move	sp,s8
80100c9c:	8fbf0014 	lw	ra,20(sp)
80100ca0:	8fbe0010 	lw	s8,16(sp)
80100ca4:	27bd0018 	addiu	sp,sp,24
80100ca8:	03e00008 	jr	ra
80100cac:	00000000 	nop

80100cb0 <set_emergency_stop_callback>:
set_emergency_stop_callback():
C:\HJJ\Career\MimicMCU\demo\function_cpus\application\work/work.c:18

void set_emergency_stop_callback(callback_t cb) { emergency_stop_callback = cb; }
80100cb0:	27bdfff8 	addiu	sp,sp,-8
80100cb4:	afbe0004 	sw	s8,4(sp)
80100cb8:	03a0f025 	move	s8,sp
80100cbc:	afc40008 	sw	a0,8(s8)
80100cc0:	3c028012 	lui	v0,0x8012
80100cc4:	8fc30008 	lw	v1,8(s8)
80100cc8:	ac430118 	sw	v1,280(v0)
80100ccc:	00000000 	nop
80100cd0:	03c0e825 	move	sp,s8
80100cd4:	8fbe0004 	lw	s8,4(sp)
80100cd8:	27bd0008 	addiu	sp,sp,8
80100cdc:	03e00008 	jr	ra
80100ce0:	00000000 	nop

80100ce4 <read_battery_voltage>:
read_battery_voltage():
C:\HJJ\Career\MimicMCU\demo\function_cpus\application\work/work.c:21

#define MAX_SAFE_VOLTAGE (420)  // GB/T 18487.1-2015
unsigned read_battery_voltage() { return 500; }
80100ce4:	27bdfff8 	addiu	sp,sp,-8
80100ce8:	afbe0004 	sw	s8,4(sp)
80100cec:	03a0f025 	move	s8,sp
80100cf0:	240201f4 	li	v0,500
80100cf4:	03c0e825 	move	sp,s8
80100cf8:	8fbe0004 	lw	s8,4(sp)
80100cfc:	27bd0008 	addiu	sp,sp,8
80100d00:	03e00008 	jr	ra
80100d04:	00000000 	nop

80100d08 <DemoAttack>:
DemoAttack():
C:\HJJ\Career\MimicMCU\demo\function_cpus\application\work/work.c:24

const FunctionCPUID id = kCPU2;
void DemoAttack(void) {
80100d08:	27bdffd8 	addiu	sp,sp,-40
80100d0c:	afbf0024 	sw	ra,36(sp)
80100d10:	afbe0020 	sw	s8,32(sp)
80100d14:	03a0f025 	move	s8,sp
C:\HJJ\Career\MimicMCU\demo\function_cpus\application\work/work.c:25
  set_emergency_stop_callback(legitimate_callback);
80100d18:	3c028010 	lui	v0,0x8010
80100d1c:	24440c38 	addiu	a0,v0,3128
80100d20:	0c04032c 	jal	80100cb0 <set_emergency_stop_callback>
80100d24:	00000000 	nop
C:\HJJ\Career\MimicMCU\demo\function_cpus\application\work/work.c:28

  // exploiting callback register vulnerability
  unsigned malicious_addr = (unsigned)malicious_payload;
80100d28:	3c028010 	lui	v0,0x8010
80100d2c:	24420c74 	addiu	v0,v0,3188
80100d30:	afc20010 	sw	v0,16(s8)
C:\HJJ\Career\MimicMCU\demo\function_cpus\application\work/work.c:29
  int byte_offset = (char*)&emergency_stop_callback - (char*)callback_table;
80100d34:	3c028012 	lui	v0,0x8012
80100d38:	24430118 	addiu	v1,v0,280
80100d3c:	3c028012 	lui	v0,0x8012
80100d40:	24420108 	addiu	v0,v0,264
80100d44:	00621023 	subu	v0,v1,v0
80100d48:	afc20014 	sw	v0,20(s8)
C:\HJJ\Career\MimicMCU\demo\function_cpus\application\work/work.c:30
  int exploit_index = byte_offset / sizeof(callback_t);
80100d4c:	8fc20014 	lw	v0,20(s8)
80100d50:	00021082 	srl	v0,v0,0x2
80100d54:	afc20018 	sw	v0,24(s8)
C:\HJJ\Career\MimicMCU\demo\function_cpus\application\work/work.c:32
#ifdef TARGET_MIPS
  if (id == kCPU0) {
80100d58:	24020002 	li	v0,2
80100d5c:	14400006 	bnez	v0,80100d78 <DemoAttack+0x70>
80100d60:	00000000 	nop
C:\HJJ\Career\MimicMCU\demo\function_cpus\application\work/work.c:33
    register_callback(exploit_index, (callback_t)malicious_addr);
80100d64:	8fc20010 	lw	v0,16(s8)
80100d68:	00402825 	move	a1,v0
80100d6c:	8fc40018 	lw	a0,24(s8)
80100d70:	0c0402fc 	jal	80100bf0 <register_callback>
80100d74:	00000000 	nop
C:\HJJ\Career\MimicMCU\demo\function_cpus\application\work/work.c:48
    register_callback(exploit_index, (callback_t)malicious_addr);
  }
#endif

  // trigger 2vs.1
  unsigned voltage = read_battery_voltage();
80100d78:	0c040339 	jal	80100ce4 <read_battery_voltage>
80100d7c:	00000000 	nop
80100d80:	afc2001c 	sw	v0,28(s8)
C:\HJJ\Career\MimicMCU\demo\function_cpus\application\work/work.c:49
  if (voltage > MAX_SAFE_VOLTAGE) {
80100d84:	8fc2001c 	lw	v0,28(s8)
80100d88:	2c4201a5 	sltiu	v0,v0,421
80100d8c:	14400005 	bnez	v0,80100da4 <DemoAttack+0x9c>
80100d90:	00000000 	nop
C:\HJJ\Career\MimicMCU\demo\function_cpus\application\work/work.c:50
    emergency_stop_callback();
80100d94:	3c028012 	lui	v0,0x8012
80100d98:	8c420118 	lw	v0,280(v0)
80100d9c:	0040f809 	jalr	v0
80100da0:	00000000 	nop
C:\HJJ\Career\MimicMCU\demo\function_cpus\application\work/work.c:52
  }
80100da4:	00000000 	nop
80100da8:	03c0e825 	move	sp,s8
80100dac:	8fbf0024 	lw	ra,36(sp)
80100db0:	8fbe0020 	lw	s8,32(sp)
80100db4:	27bd0028 	addiu	sp,sp,40
80100db8:	03e00008 	jr	ra
80100dbc:	00000000 	nop

80100dc0 <SRAM_Init>:
SRAM_Init():
80100dc0:	27bdfff8 	addiu	sp,sp,-8
80100dc4:	afbe0004 	sw	s8,4(sp)
80100dc8:	03a0f025 	move	s8,sp
80100dcc:	3c024100 	lui	v0,0x4100
80100dd0:	34420058 	ori	v0,v0,0x58
80100dd4:	8c420000 	lw	v0,0(v0)
80100dd8:	14400008 	bnez	v0,80100dfc <SRAM_Init+0x3c>
80100ddc:	00000000 	nop
80100de0:	3c028012 	lui	v0,0x8012
80100de4:	3442c000 	ori	v0,v0,0xc000
80100de8:	24030004 	li	v1,4
80100dec:	ac430000 	sw	v1,0(v0)
80100df0:	3c024400 	lui	v0,0x4400
80100df4:	24030004 	li	v1,4
80100df8:	ac430000 	sw	v1,0(v0)
80100dfc:	00000000 	nop
80100e00:	03c0e825 	move	sp,s8
80100e04:	8fbe0004 	lw	s8,4(sp)
80100e08:	27bd0008 	addiu	sp,sp,8
80100e0c:	03e00008 	jr	ra
80100e10:	00000000 	nop

80100e14 <GetLabelAddr>:
GetLabelAddr():
80100e14:	27bdfff0 	addiu	sp,sp,-16
80100e18:	afbe000c 	sw	s8,12(sp)
80100e1c:	03a0f025 	move	s8,sp
80100e20:	afc40010 	sw	a0,16(s8)
80100e24:	afc50014 	sw	a1,20(s8)
80100e28:	3c028010 	lui	v0,0x8010
80100e2c:	24434ec4 	addiu	v1,v0,20164
80100e30:	3c028010 	lui	v0,0x8010
80100e34:	24424eb4 	addiu	v0,v0,20148
80100e38:	00621023 	subu	v0,v1,v0
80100e3c:	000210c3 	sra	v0,v0,0x3
80100e40:	afc20004 	sw	v0,4(s8)
80100e44:	3c028010 	lui	v0,0x8010
80100e48:	24424eb4 	addiu	v0,v0,20148
80100e4c:	afc20000 	sw	v0,0(s8)
80100e50:	1000000e 	b	80100e8c <GetLabelAddr+0x78>
80100e54:	00000000 	nop
80100e58:	8fc20000 	lw	v0,0(s8)
80100e5c:	8c420000 	lw	v0,0(v0)
80100e60:	8fc30010 	lw	v1,16(s8)
80100e64:	14620006 	bne	v1,v0,80100e80 <GetLabelAddr+0x6c>
80100e68:	00000000 	nop
80100e6c:	8fc20000 	lw	v0,0(s8)
80100e70:	24420004 	addiu	v0,v0,4
80100e74:	afc20000 	sw	v0,0(s8)
80100e78:	1000000a 	b	80100ea4 <GetLabelAddr+0x90>
80100e7c:	00000000 	nop
80100e80:	8fc20000 	lw	v0,0(s8)
80100e84:	24420008 	addiu	v0,v0,8
80100e88:	afc20000 	sw	v0,0(s8)
80100e8c:	8fc30000 	lw	v1,0(s8)
80100e90:	3c028010 	lui	v0,0x8010
80100e94:	24424ec4 	addiu	v0,v0,20164
80100e98:	0062102b 	sltu	v0,v1,v0
80100e9c:	1440ffee 	bnez	v0,80100e58 <GetLabelAddr+0x44>
80100ea0:	00000000 	nop
80100ea4:	8fc20000 	lw	v0,0(s8)
80100ea8:	8c430000 	lw	v1,0(v0)
80100eac:	8fc20014 	lw	v0,20(s8)
80100eb0:	ac430000 	sw	v1,0(v0)
80100eb4:	00000000 	nop
80100eb8:	03c0e825 	move	sp,s8
80100ebc:	8fbe000c 	lw	s8,12(sp)
80100ec0:	27bd0010 	addiu	sp,sp,16
80100ec4:	03e00008 	jr	ra
80100ec8:	00000000 	nop

80100ecc <pml_com_malloc>:
pml_com_malloc():
80100ecc:	27bdfff0 	addiu	sp,sp,-16
80100ed0:	afbe000c 	sw	s8,12(sp)
80100ed4:	03a0f025 	move	s8,sp
80100ed8:	afc40010 	sw	a0,16(s8)
80100edc:	3c024400 	lui	v0,0x4400
80100ee0:	8c430000 	lw	v1,0(v0)
80100ee4:	8fc20010 	lw	v0,16(s8)
80100ee8:	00621821 	addu	v1,v1,v0
80100eec:	34028001 	li	v0,0x8001
80100ef0:	0062102b 	sltu	v0,v1,v0
80100ef4:	14400004 	bnez	v0,80100f08 <pml_com_malloc+0x3c>
80100ef8:	00000000 	nop
80100efc:	00001025 	move	v0,zero
80100f00:	1000000d 	b	80100f38 <pml_com_malloc+0x6c>
80100f04:	00000000 	nop
80100f08:	3c024400 	lui	v0,0x4400
80100f0c:	8c420000 	lw	v0,0(v0)
80100f10:	afc20000 	sw	v0,0(s8)
80100f14:	3c024400 	lui	v0,0x4400
80100f18:	8c440000 	lw	a0,0(v0)
80100f1c:	8fc30010 	lw	v1,16(s8)
80100f20:	3c024400 	lui	v0,0x4400
80100f24:	00831821 	addu	v1,a0,v1
80100f28:	ac430000 	sw	v1,0(v0)
80100f2c:	8fc30000 	lw	v1,0(s8)
80100f30:	3c024400 	lui	v0,0x4400
80100f34:	00621021 	addu	v0,v1,v0
80100f38:	03c0e825 	move	sp,s8
80100f3c:	8fbe000c 	lw	s8,12(sp)
80100f40:	27bd0010 	addiu	sp,sp,16
80100f44:	03e00008 	jr	ra
80100f48:	00000000 	nop

80100f4c <pml_loc_malloc>:
pml_loc_malloc():
80100f4c:	27bdfff0 	addiu	sp,sp,-16
80100f50:	afbe000c 	sw	s8,12(sp)
80100f54:	03a0f025 	move	s8,sp
80100f58:	afc40010 	sw	a0,16(s8)
80100f5c:	3c028012 	lui	v0,0x8012
80100f60:	3442c000 	ori	v0,v0,0xc000
80100f64:	8c430000 	lw	v1,0(v0)
80100f68:	8fc20010 	lw	v0,16(s8)
80100f6c:	00621021 	addu	v0,v1,v0
80100f70:	2c421001 	sltiu	v0,v0,4097
80100f74:	14400004 	bnez	v0,80100f88 <pml_loc_malloc+0x3c>
80100f78:	00000000 	nop
80100f7c:	00001025 	move	v0,zero
80100f80:	10000011 	b	80100fc8 <pml_loc_malloc+0x7c>
80100f84:	00000000 	nop
80100f88:	3c028012 	lui	v0,0x8012
80100f8c:	3442c000 	ori	v0,v0,0xc000
80100f90:	8c420000 	lw	v0,0(v0)
80100f94:	afc20000 	sw	v0,0(s8)
80100f98:	3c028012 	lui	v0,0x8012
80100f9c:	3442c000 	ori	v0,v0,0xc000
80100fa0:	8c440000 	lw	a0,0(v0)
80100fa4:	8fc30010 	lw	v1,16(s8)
80100fa8:	3c028012 	lui	v0,0x8012
80100fac:	3442c000 	ori	v0,v0,0xc000
80100fb0:	00831821 	addu	v1,a0,v1
80100fb4:	ac430000 	sw	v1,0(v0)
80100fb8:	8fc30000 	lw	v1,0(s8)
80100fbc:	3c028012 	lui	v0,0x8012
80100fc0:	3442c000 	ori	v0,v0,0xc000
80100fc4:	00621021 	addu	v0,v1,v0
80100fc8:	03c0e825 	move	sp,s8
80100fcc:	8fbe000c 	lw	s8,12(sp)
80100fd0:	27bd0010 	addiu	sp,sp,16
80100fd4:	03e00008 	jr	ra
80100fd8:	00000000 	nop

80100fdc <pml_save_inc>:
pml_save_inc():
80100fdc:	27bdfff0 	addiu	sp,sp,-16
80100fe0:	afbe000c 	sw	s8,12(sp)
80100fe4:	03a0f025 	move	s8,sp
80100fe8:	afc40010 	sw	a0,16(s8)
80100fec:	afc50014 	sw	a1,20(s8)
80100ff0:	afc60018 	sw	a2,24(s8)
80100ff4:	afc00000 	sw	zero,0(s8)
80100ff8:	1000000e 	b	80101034 <pml_save_inc+0x58>
80100ffc:	00000000 	nop
80101000:	8fc20010 	lw	v0,16(s8)
80101004:	8c430000 	lw	v1,0(v0)
80101008:	8fc20014 	lw	v0,20(s8)
8010100c:	ac430000 	sw	v1,0(v0)
80101010:	8fc20010 	lw	v0,16(s8)
80101014:	24420004 	addiu	v0,v0,4
80101018:	afc20010 	sw	v0,16(s8)
8010101c:	8fc20014 	lw	v0,20(s8)
80101020:	24420004 	addiu	v0,v0,4
80101024:	afc20014 	sw	v0,20(s8)
80101028:	8fc20000 	lw	v0,0(s8)
8010102c:	24420001 	addiu	v0,v0,1
80101030:	afc20000 	sw	v0,0(s8)
80101034:	8fc30000 	lw	v1,0(s8)
80101038:	8fc20018 	lw	v0,24(s8)
8010103c:	0062102b 	sltu	v0,v1,v0
80101040:	1440ffef 	bnez	v0,80101000 <pml_save_inc+0x24>
80101044:	00000000 	nop
	...
80101050:	03c0e825 	move	sp,s8
80101054:	8fbe000c 	lw	s8,12(sp)
80101058:	27bd0010 	addiu	sp,sp,16
8010105c:	03e00008 	jr	ra
80101060:	00000000 	nop

80101064 <pml_save_dec>:
pml_save_dec():
80101064:	27bdfff0 	addiu	sp,sp,-16
80101068:	afbe000c 	sw	s8,12(sp)
8010106c:	03a0f025 	move	s8,sp
80101070:	afc40010 	sw	a0,16(s8)
80101074:	afc50014 	sw	a1,20(s8)
80101078:	afc60018 	sw	a2,24(s8)
8010107c:	afc00000 	sw	zero,0(s8)
80101080:	1000000e 	b	801010bc <pml_save_dec+0x58>
80101084:	00000000 	nop
80101088:	8fc20010 	lw	v0,16(s8)
8010108c:	8c430000 	lw	v1,0(v0)
80101090:	8fc20014 	lw	v0,20(s8)
80101094:	ac430000 	sw	v1,0(v0)
80101098:	8fc20010 	lw	v0,16(s8)
8010109c:	2442fffc 	addiu	v0,v0,-4
801010a0:	afc20010 	sw	v0,16(s8)
801010a4:	8fc20014 	lw	v0,20(s8)
801010a8:	2442fffc 	addiu	v0,v0,-4
801010ac:	afc20014 	sw	v0,20(s8)
801010b0:	8fc20000 	lw	v0,0(s8)
801010b4:	24420001 	addiu	v0,v0,1
801010b8:	afc20000 	sw	v0,0(s8)
801010bc:	8fc30000 	lw	v1,0(s8)
801010c0:	8fc20018 	lw	v0,24(s8)
801010c4:	0062102b 	sltu	v0,v1,v0
801010c8:	1440ffef 	bnez	v0,80101088 <pml_save_dec+0x24>
801010cc:	00000000 	nop
	...
801010d8:	03c0e825 	move	sp,s8
801010dc:	8fbe000c 	lw	s8,12(sp)
801010e0:	27bd0010 	addiu	sp,sp,16
801010e4:	03e00008 	jr	ra
801010e8:	00000000 	nop

801010ec <pml_loc_save>:
pml_loc_save():
801010ec:	27bdffd8 	addiu	sp,sp,-40
801010f0:	afbf0024 	sw	ra,36(sp)
801010f4:	afbe0020 	sw	s8,32(sp)
801010f8:	03a0f025 	move	s8,sp
801010fc:	3c028012 	lui	v0,0x8012
80101100:	3442c000 	ori	v0,v0,0xc000
80101104:	afc20010 	sw	v0,16(s8)
80101108:	3c028012 	lui	v0,0x8012
8010110c:	3442d000 	ori	v0,v0,0xd000
80101110:	afc20014 	sw	v0,20(s8)
80101114:	24020400 	li	v0,1024
80101118:	afc20018 	sw	v0,24(s8)
8010111c:	8fc60018 	lw	a2,24(s8)
80101120:	8fc50014 	lw	a1,20(s8)
80101124:	8fc40010 	lw	a0,16(s8)
80101128:	0c0403f7 	jal	80100fdc <pml_save_inc>
8010112c:	00000000 	nop
80101130:	00000000 	nop
80101134:	03c0e825 	move	sp,s8
80101138:	8fbf0024 	lw	ra,36(sp)
8010113c:	8fbe0020 	lw	s8,32(sp)
80101140:	27bd0028 	addiu	sp,sp,40
80101144:	03e00008 	jr	ra
80101148:	00000000 	nop

8010114c <pml_loc_restore>:
pml_loc_restore():
8010114c:	27bdffd8 	addiu	sp,sp,-40
80101150:	afbf0024 	sw	ra,36(sp)
80101154:	afbe0020 	sw	s8,32(sp)
80101158:	03a0f025 	move	s8,sp
8010115c:	3c028012 	lui	v0,0x8012
80101160:	3442d000 	ori	v0,v0,0xd000
80101164:	afc20010 	sw	v0,16(s8)
80101168:	3c028012 	lui	v0,0x8012
8010116c:	3442c000 	ori	v0,v0,0xc000
80101170:	afc20014 	sw	v0,20(s8)
80101174:	24020400 	li	v0,1024
80101178:	afc20018 	sw	v0,24(s8)
8010117c:	8fc60018 	lw	a2,24(s8)
80101180:	8fc50014 	lw	a1,20(s8)
80101184:	8fc40010 	lw	a0,16(s8)
80101188:	0c0403f7 	jal	80100fdc <pml_save_inc>
8010118c:	00000000 	nop
80101190:	00000000 	nop
80101194:	03c0e825 	move	sp,s8
80101198:	8fbf0024 	lw	ra,36(sp)
8010119c:	8fbe0020 	lw	s8,32(sp)
801011a0:	27bd0028 	addiu	sp,sp,40
801011a4:	03e00008 	jr	ra
801011a8:	00000000 	nop

801011ac <pml_stack_save>:
pml_stack_save():
801011ac:	27bdffd8 	addiu	sp,sp,-40
801011b0:	afbf0024 	sw	ra,36(sp)
801011b4:	afbe0020 	sw	s8,32(sp)
801011b8:	03a0f025 	move	s8,sp
801011bc:	afc00010 	sw	zero,16(s8)
801011c0:	3c028013 	lui	v0,0x8013
801011c4:	2442c000 	addiu	v0,v0,-16384
801011c8:	afc20010 	sw	v0,16(s8)
801011cc:	8fc20010 	lw	v0,16(s8)
801011d0:	2442fffc 	addiu	v0,v0,-4
801011d4:	afc20010 	sw	v0,16(s8)
801011d8:	3c028012 	lui	v0,0x8012
801011dc:	3442bc00 	ori	v0,v0,0xbc00
801011e0:	afc20014 	sw	v0,20(s8)
801011e4:	8fc20014 	lw	v0,20(s8)
801011e8:	24423ffc 	addiu	v0,v0,16380
801011ec:	afc20014 	sw	v0,20(s8)
801011f0:	3c028013 	lui	v0,0x8013
801011f4:	2443c000 	addiu	v1,v0,-16384
801011f8:	3c028012 	lui	v0,0x8012
801011fc:	3442e000 	ori	v0,v0,0xe000
80101200:	8c420000 	lw	v0,0(v0)
80101204:	00621023 	subu	v0,v1,v0
80101208:	afc20018 	sw	v0,24(s8)
8010120c:	8fc20018 	lw	v0,24(s8)
80101210:	00021023 	negu	v0,v0
80101214:	30420003 	andi	v0,v0,0x3
80101218:	afc2001c 	sw	v0,28(s8)
8010121c:	8fc30018 	lw	v1,24(s8)
80101220:	8fc2001c 	lw	v0,28(s8)
80101224:	00621021 	addu	v0,v1,v0
80101228:	00021082 	srl	v0,v0,0x2
8010122c:	afc20018 	sw	v0,24(s8)
80101230:	8fc60018 	lw	a2,24(s8)
80101234:	8fc50014 	lw	a1,20(s8)
80101238:	8fc40010 	lw	a0,16(s8)
8010123c:	0c040419 	jal	80101064 <pml_save_dec>
80101240:	00000000 	nop
80101244:	00000000 	nop
80101248:	03c0e825 	move	sp,s8
8010124c:	8fbf0024 	lw	ra,36(sp)
80101250:	8fbe0020 	lw	s8,32(sp)
80101254:	27bd0028 	addiu	sp,sp,40
80101258:	03e00008 	jr	ra
8010125c:	00000000 	nop

80101260 <event_delay>:
event_delay():
80101260:	27bdfff8 	addiu	sp,sp,-8
80101264:	afbe0004 	sw	s8,4(sp)
80101268:	03a0f025 	move	s8,sp
	...
801012e8:	03c0e825 	move	sp,s8
801012ec:	8fbe0004 	lw	s8,4(sp)
801012f0:	27bd0008 	addiu	sp,sp,8
801012f4:	03e00008 	jr	ra
801012f8:	00000000 	nop

801012fc <TellSche>:
TellSche():
801012fc:	27bdffe8 	addiu	sp,sp,-24
80101300:	afbf0014 	sw	ra,20(sp)
80101304:	afbe0010 	sw	s8,16(sp)
80101308:	03a0f025 	move	s8,sp
8010130c:	afc40018 	sw	a0,24(s8)
80101310:	3c028012 	lui	v0,0x8012
80101314:	3442f3fc 	ori	v0,v0,0xf3fc
80101318:	8fc30018 	lw	v1,24(s8)
8010131c:	ac430000 	sw	v1,0(v0)
80101320:	10000004 	b	80101334 <TellSche+0x38>
80101324:	00000000 	nop
80101328:	24040001 	li	a0,1
8010132c:	0c04050f 	jal	8010143c <Delay>
80101330:	00000000 	nop
80101334:	3c028012 	lui	v0,0x8012
80101338:	3442f3f8 	ori	v0,v0,0xf3f8
8010133c:	8c420000 	lw	v0,0(v0)
80101340:	1040fff9 	beqz	v0,80101328 <TellSche+0x2c>
80101344:	00000000 	nop
80101348:	3c028012 	lui	v0,0x8012
8010134c:	3442f3f8 	ori	v0,v0,0xf3f8
80101350:	ac400000 	sw	zero,0(v0)
80101354:	24040002 	li	a0,2
80101358:	0c04050f 	jal	8010143c <Delay>
8010135c:	00000000 	nop
80101360:	00000000 	nop
80101364:	03c0e825 	move	sp,s8
80101368:	8fbf0014 	lw	ra,20(sp)
8010136c:	8fbe0010 	lw	s8,16(sp)
80101370:	27bd0018 	addiu	sp,sp,24
80101374:	03e00008 	jr	ra
80101378:	00000000 	nop

8010137c <stack_restore_helper>:
stack_restore_helper():
8010137c:	27bdffd8 	addiu	sp,sp,-40
80101380:	afbf0024 	sw	ra,36(sp)
80101384:	afbe0020 	sw	s8,32(sp)
80101388:	03a0f025 	move	s8,sp
8010138c:	afc40028 	sw	a0,40(s8)
80101390:	3c028012 	lui	v0,0x8012
80101394:	3442f3d8 	ori	v0,v0,0xf3d8
80101398:	8fc30028 	lw	v1,40(s8)
8010139c:	ac430000 	sw	v1,0(v0)
801013a0:	3c028013 	lui	v0,0x8013
801013a4:	2443c000 	addiu	v1,v0,-16384
801013a8:	8fc20028 	lw	v0,40(s8)
801013ac:	00621023 	subu	v0,v1,v0
801013b0:	afc20010 	sw	v0,16(s8)
801013b4:	3c028012 	lui	v0,0x8012
801013b8:	3442bc00 	ori	v0,v0,0xbc00
801013bc:	afc20014 	sw	v0,20(s8)
801013c0:	8fc20014 	lw	v0,20(s8)
801013c4:	24423ffc 	addiu	v0,v0,16380
801013c8:	afc20014 	sw	v0,20(s8)
801013cc:	afc00018 	sw	zero,24(s8)
801013d0:	3c028013 	lui	v0,0x8013
801013d4:	2442c000 	addiu	v0,v0,-16384
801013d8:	afc20018 	sw	v0,24(s8)
801013dc:	8fc20018 	lw	v0,24(s8)
801013e0:	2442fffc 	addiu	v0,v0,-4
801013e4:	afc20018 	sw	v0,24(s8)
801013e8:	8fc20010 	lw	v0,16(s8)
801013ec:	00021023 	negu	v0,v0
801013f0:	30420003 	andi	v0,v0,0x3
801013f4:	afc2001c 	sw	v0,28(s8)
801013f8:	8fc30010 	lw	v1,16(s8)
801013fc:	8fc2001c 	lw	v0,28(s8)
80101400:	00621021 	addu	v0,v1,v0
80101404:	00021082 	srl	v0,v0,0x2
80101408:	afc20010 	sw	v0,16(s8)
8010140c:	8fc60010 	lw	a2,16(s8)
80101410:	8fc50018 	lw	a1,24(s8)
80101414:	8fc40014 	lw	a0,20(s8)
80101418:	0c040419 	jal	80101064 <pml_save_dec>
8010141c:	00000000 	nop
80101420:	00000000 	nop
80101424:	03c0e825 	move	sp,s8
80101428:	8fbf0024 	lw	ra,36(sp)
8010142c:	8fbe0020 	lw	s8,32(sp)
80101430:	27bd0028 	addiu	sp,sp,40
80101434:	03e00008 	jr	ra
80101438:	00000000 	nop

8010143c <Delay>:
Delay():
8010143c:	27bdffe8 	addiu	sp,sp,-24
80101440:	afbe0014 	sw	s8,20(sp)
80101444:	03a0f025 	move	s8,sp
80101448:	afc40018 	sw	a0,24(s8)
8010144c:	3c028012 	lui	v0,0x8012
80101450:	8c43011c 	lw	v1,284(v0)
80101454:	24020001 	li	v0,1
80101458:	1462001c 	bne	v1,v0,801014cc <Delay+0x90>
8010145c:	00000000 	nop
80101460:	2402000c 	li	v0,12
80101464:	afc20000 	sw	v0,0(s8)
80101468:	afc00004 	sw	zero,4(s8)
8010146c:	10000012 	b	801014b8 <Delay+0x7c>
80101470:	00000000 	nop
80101474:	afc00008 	sw	zero,8(s8)
80101478:	10000005 	b	80101490 <Delay+0x54>
8010147c:	00000000 	nop
80101480:	00000000 	nop
80101484:	8fc20008 	lw	v0,8(s8)
80101488:	24420001 	addiu	v0,v0,1
8010148c:	afc20008 	sw	v0,8(s8)
80101490:	8fc30018 	lw	v1,24(s8)
80101494:	8fc20000 	lw	v0,0(s8)
80101498:	70621802 	mul	v1,v1,v0
8010149c:	8fc20008 	lw	v0,8(s8)
801014a0:	0043102b 	sltu	v0,v0,v1
801014a4:	1440fff6 	bnez	v0,80101480 <Delay+0x44>
801014a8:	00000000 	nop
801014ac:	8fc20004 	lw	v0,4(s8)
801014b0:	24420001 	addiu	v0,v0,1
801014b4:	afc20004 	sw	v0,4(s8)
801014b8:	8fc20004 	lw	v0,4(s8)
801014bc:	1040ffed 	beqz	v0,80101474 <Delay+0x38>
801014c0:	00000000 	nop
801014c4:	1000001b 	b	80101534 <Delay+0xf8>
801014c8:	00000000 	nop
801014cc:	24020078 	li	v0,120
801014d0:	afc20000 	sw	v0,0(s8)
801014d4:	afc00004 	sw	zero,4(s8)
801014d8:	10000012 	b	80101524 <Delay+0xe8>
801014dc:	00000000 	nop
801014e0:	afc00008 	sw	zero,8(s8)
801014e4:	10000005 	b	801014fc <Delay+0xc0>
801014e8:	00000000 	nop
801014ec:	00000000 	nop
801014f0:	8fc20008 	lw	v0,8(s8)
801014f4:	24420001 	addiu	v0,v0,1
801014f8:	afc20008 	sw	v0,8(s8)
801014fc:	8fc30018 	lw	v1,24(s8)
80101500:	8fc20000 	lw	v0,0(s8)
80101504:	70621802 	mul	v1,v1,v0
80101508:	8fc20008 	lw	v0,8(s8)
8010150c:	0043102b 	sltu	v0,v0,v1
80101510:	1440fff6 	bnez	v0,801014ec <Delay+0xb0>
80101514:	00000000 	nop
80101518:	8fc20004 	lw	v0,4(s8)
8010151c:	24420001 	addiu	v0,v0,1
80101520:	afc20004 	sw	v0,4(s8)
80101524:	8fc20004 	lw	v0,4(s8)
80101528:	2c420bb8 	sltiu	v0,v0,3000
8010152c:	1440ffec 	bnez	v0,801014e0 <Delay+0xa4>
80101530:	00000000 	nop
80101534:	00000000 	nop
80101538:	03c0e825 	move	sp,s8
8010153c:	8fbe0014 	lw	s8,20(sp)
80101540:	27bd0018 	addiu	sp,sp,24
80101544:	03e00008 	jr	ra
80101548:	00000000 	nop

8010154c <SetEDAMode>:
SetEDAMode():
8010154c:	27bdfff8 	addiu	sp,sp,-8
80101550:	afbe0004 	sw	s8,4(sp)
80101554:	03a0f025 	move	s8,sp
80101558:	afc40008 	sw	a0,8(s8)
8010155c:	3c028012 	lui	v0,0x8012
80101560:	8fc30008 	lw	v1,8(s8)
80101564:	ac43011c 	sw	v1,284(v0)
80101568:	00000000 	nop
8010156c:	03c0e825 	move	sp,s8
80101570:	8fbe0004 	lw	s8,4(sp)
80101574:	27bd0008 	addiu	sp,sp,8
80101578:	03e00008 	jr	ra
8010157c:	00000000 	nop

80101580 <GetMainCLK>:
GetMainCLK():
80101580:	27bdfff8 	addiu	sp,sp,-8
80101584:	afbe0004 	sw	s8,4(sp)
80101588:	03a0f025 	move	s8,sp
8010158c:	3c028012 	lui	v0,0x8012
80101590:	8c4200c8 	lw	v0,200(v0)
80101594:	03c0e825 	move	sp,s8
80101598:	8fbe0004 	lw	s8,4(sp)
8010159c:	27bd0008 	addiu	sp,sp,8
801015a0:	03e00008 	jr	ra
801015a4:	00000000 	nop

801015a8 <SetMainCLK>:
SetMainCLK():
801015a8:	27bdfff8 	addiu	sp,sp,-8
801015ac:	afbe0004 	sw	s8,4(sp)
801015b0:	03a0f025 	move	s8,sp
801015b4:	afc40008 	sw	a0,8(s8)
801015b8:	3c028012 	lui	v0,0x8012
801015bc:	8fc30008 	lw	v1,8(s8)
801015c0:	ac4300c8 	sw	v1,200(v0)
801015c4:	00000000 	nop
801015c8:	03c0e825 	move	sp,s8
801015cc:	8fbe0004 	lw	s8,4(sp)
801015d0:	27bd0008 	addiu	sp,sp,8
801015d4:	03e00008 	jr	ra
801015d8:	00000000 	nop

801015dc <PLL_Init>:
PLL_Init():
801015dc:	27bdffe0 	addiu	sp,sp,-32
801015e0:	afbf001c 	sw	ra,28(sp)
801015e4:	afbe0018 	sw	s8,24(sp)
801015e8:	03a0f025 	move	s8,sp
801015ec:	afc40020 	sw	a0,32(s8)
801015f0:	8fc40020 	lw	a0,32(s8)
801015f4:	0c04056a 	jal	801015a8 <SetMainCLK>
801015f8:	00000000 	nop
801015fc:	8fc30020 	lw	v1,32(s8)
80101600:	24020010 	li	v0,16
80101604:	10620044 	beq	v1,v0,80101718 <PLL_Init+0x13c>
80101608:	00000000 	nop
8010160c:	3c02400f 	lui	v0,0x400f
80101610:	3442e000 	ori	v0,v0,0xe000
80101614:	8c430b18 	lw	v1,2840(v0)
80101618:	3c02400f 	lui	v0,0x400f
8010161c:	3442e000 	ori	v0,v0,0xe000
80101620:	34630003 	ori	v1,v1,0x3
80101624:	ac430b18 	sw	v1,2840(v0)
80101628:	3c02400f 	lui	v0,0x400f
8010162c:	3442e000 	ori	v0,v0,0xe000
80101630:	24030169 	li	v1,361
80101634:	ac430b40 	sw	v1,2880(v0)
80101638:	8fc30020 	lw	v1,32(s8)
8010163c:	24020028 	li	v0,40
80101640:	14620007 	bne	v1,v0,80101660 <PLL_Init+0x84>
80101644:	00000000 	nop
80101648:	3c02400f 	lui	v0,0x400f
8010164c:	3442e000 	ori	v0,v0,0xe000
80101650:	24030074 	li	v1,116
80101654:	ac430b50 	sw	v1,2896(v0)
80101658:	10000013 	b	801016a8 <PLL_Init+0xcc>
8010165c:	00000000 	nop
80101660:	8fc30020 	lw	v1,32(s8)
80101664:	24020050 	li	v0,80
80101668:	14620007 	bne	v1,v0,80101688 <PLL_Init+0xac>
8010166c:	00000000 	nop
80101670:	3c02400f 	lui	v0,0x400f
80101674:	3442e000 	ori	v0,v0,0xe000
80101678:	2403003b 	li	v1,59
8010167c:	ac430b50 	sw	v1,2896(v0)
80101680:	10000009 	b	801016a8 <PLL_Init+0xcc>
80101684:	00000000 	nop
80101688:	8fc30020 	lw	v1,32(s8)
8010168c:	24020078 	li	v0,120
80101690:	14620005 	bne	v1,v0,801016a8 <PLL_Init+0xcc>
80101694:	00000000 	nop
80101698:	3c02400f 	lui	v0,0x400f
8010169c:	3442e000 	ori	v0,v0,0xe000
801016a0:	24030013 	li	v1,19
801016a4:	ac430b50 	sw	v1,2896(v0)
801016a8:	3c02400f 	lui	v0,0x400f
801016ac:	3442e000 	ori	v0,v0,0xe000
801016b0:	24030169 	li	v1,361
801016b4:	ac430b60 	sw	v1,2912(v0)
801016b8:	3c02400f 	lui	v0,0x400f
801016bc:	3442e000 	ori	v0,v0,0xe000
801016c0:	2403004c 	li	v1,76
801016c4:	ac430b64 	sw	v1,2916(v0)
801016c8:	3c02400f 	lui	v0,0x400f
801016cc:	3442e000 	ori	v0,v0,0xe000
801016d0:	24030040 	li	v1,64
801016d4:	ac430b30 	sw	v1,2864(v0)
801016d8:	24020064 	li	v0,100
801016dc:	afc20010 	sw	v0,16(s8)
801016e0:	00000000 	nop
801016e4:	8fc20010 	lw	v0,16(s8)
801016e8:	2443ffff 	addiu	v1,v0,-1
801016ec:	afc30010 	sw	v1,16(s8)
801016f0:	1440fffc 	bnez	v0,801016e4 <PLL_Init+0x108>
801016f4:	00000000 	nop
801016f8:	24020064 	li	v0,100
801016fc:	afc20014 	sw	v0,20(s8)
80101700:	00000000 	nop
80101704:	8fc20014 	lw	v0,20(s8)
80101708:	2443ffff 	addiu	v1,v0,-1
8010170c:	afc30014 	sw	v1,20(s8)
80101710:	1440fffc 	bnez	v0,80101704 <PLL_Init+0x128>
80101714:	00000000 	nop
80101718:	00000000 	nop
8010171c:	03c0e825 	move	sp,s8
80101720:	8fbf001c 	lw	ra,28(sp)
80101724:	8fbe0018 	lw	s8,24(sp)
80101728:	27bd0020 	addiu	sp,sp,32
8010172c:	03e00008 	jr	ra
80101730:	00000000 	nop

80101734 <Driver_IRQ_Close>:
Driver_IRQ_Close():
80101734:	27bdfff8 	addiu	sp,sp,-8
80101738:	afbe0004 	sw	s8,4(sp)
8010173c:	03a0f025 	move	s8,sp
80101740:	3c02400f 	lui	v0,0x400f
80101744:	3442e000 	ori	v0,v0,0xe000
80101748:	8c430058 	lw	v1,88(v0)
8010174c:	3c02400f 	lui	v0,0x400f
80101750:	3442e000 	ori	v0,v0,0xe000
80101754:	34630002 	ori	v1,v1,0x2
80101758:	ac430058 	sw	v1,88(v0)
8010175c:	3c02400f 	lui	v0,0x400f
80101760:	3442e000 	ori	v0,v0,0xe000
80101764:	8c430058 	lw	v1,88(v0)
80101768:	3c02400f 	lui	v0,0x400f
8010176c:	3442e000 	ori	v0,v0,0xe000
80101770:	34630040 	ori	v1,v1,0x40
80101774:	ac430058 	sw	v1,88(v0)
80101778:	3c02400f 	lui	v0,0x400f
8010177c:	3442e000 	ori	v0,v0,0xe000
80101780:	8c430058 	lw	v1,88(v0)
80101784:	3c02400f 	lui	v0,0x400f
80101788:	3442e000 	ori	v0,v0,0xe000
8010178c:	34630080 	ori	v1,v1,0x80
80101790:	ac430058 	sw	v1,88(v0)
80101794:	3c02400f 	lui	v0,0x400f
80101798:	3442e000 	ori	v0,v0,0xe000
8010179c:	8c430058 	lw	v1,88(v0)
801017a0:	3c02400f 	lui	v0,0x400f
801017a4:	3442e000 	ori	v0,v0,0xe000
801017a8:	34630100 	ori	v1,v1,0x100
801017ac:	ac430058 	sw	v1,88(v0)
801017b0:	00000000 	nop
801017b4:	03c0e825 	move	sp,s8
801017b8:	8fbe0004 	lw	s8,4(sp)
801017bc:	27bd0008 	addiu	sp,sp,8
801017c0:	03e00008 	jr	ra
801017c4:	00000000 	nop

801017c8 <Driver_Init>:
Driver_Init():
801017c8:	27bdffe8 	addiu	sp,sp,-24
801017cc:	afbf0014 	sw	ra,20(sp)
801017d0:	afbe0010 	sw	s8,16(sp)
801017d4:	03a0f025 	move	s8,sp
801017d8:	3c024100 	lui	v0,0x4100
801017dc:	34420058 	ori	v0,v0,0x58
801017e0:	8c420000 	lw	v0,0(v0)
801017e4:	14400012 	bnez	v0,80101830 <Driver_Init+0x68>
801017e8:	00000000 	nop
801017ec:	0c0405cd 	jal	80101734 <Driver_IRQ_Close>
801017f0:	00000000 	nop
801017f4:	0c040560 	jal	80101580 <GetMainCLK>
801017f8:	00000000 	nop
801017fc:	00402025 	move	a0,v0
80101800:	0c040577 	jal	801015dc <PLL_Init>
80101804:	00000000 	nop
80101808:	0c040560 	jal	80101580 <GetMainCLK>
8010180c:	00000000 	nop
80101810:	00402025 	move	a0,v0
80101814:	0c04092c 	jal	801024b0 <uart_stdout_init>
80101818:	00000000 	nop
8010181c:	0c040560 	jal	80101580 <GetMainCLK>
80101820:	00000000 	nop
80101824:	00402025 	move	a0,v0
80101828:	0c0408f3 	jal	801023cc <uart2_init>
8010182c:	00000000 	nop
80101830:	00000000 	nop
80101834:	03c0e825 	move	sp,s8
80101838:	8fbf0014 	lw	ra,20(sp)
8010183c:	8fbe0010 	lw	s8,16(sp)
80101840:	27bd0018 	addiu	sp,sp,24
80101844:	03e00008 	jr	ra
80101848:	00000000 	nop

8010184c <Resource_Init>:
Resource_Init():
8010184c:	27bdffe8 	addiu	sp,sp,-24
80101850:	afbf0014 	sw	ra,20(sp)
80101854:	afbe0010 	sw	s8,16(sp)
80101858:	03a0f025 	move	s8,sp
8010185c:	3c024100 	lui	v0,0x4100
80101860:	34420058 	ori	v0,v0,0x58
80101864:	8c420000 	lw	v0,0(v0)
80101868:	1440000d 	bnez	v0,801018a0 <Resource_Init+0x54>
8010186c:	00000000 	nop
80101870:	3c024100 	lui	v0,0x4100
80101874:	34420064 	ori	v0,v0,0x64
80101878:	24030001 	li	v1,1
8010187c:	ac430000 	sw	v1,0(v0)
80101880:	00000000 	nop
80101884:	3c024100 	lui	v0,0x4100
80101888:	34420068 	ori	v0,v0,0x68
8010188c:	8c420000 	lw	v0,0(v0)
80101890:	1040fffc 	beqz	v0,80101884 <Resource_Init+0x38>
80101894:	00000000 	nop
80101898:	10000004 	b	801018ac <Resource_Init+0x60>
8010189c:	00000000 	nop
801018a0:	3c024100 	lui	v0,0x4100
801018a4:	34420064 	ori	v0,v0,0x64
801018a8:	ac400000 	sw	zero,0(v0)
801018ac:	0c0405f2 	jal	801017c8 <Driver_Init>
801018b0:	00000000 	nop
801018b4:	0c040693 	jal	80101a4c <IRQ_Init>
801018b8:	00000000 	nop
801018bc:	0c040370 	jal	80100dc0 <SRAM_Init>
801018c0:	00000000 	nop
801018c4:	0c0402d6 	jal	80100b58 <main>
801018c8:	00000000 	nop
801018cc:	1000ffff 	b	801018cc <Resource_Init+0x80>
801018d0:	00000000 	nop

801018d4 <save_context_handler>:
save_context_handler():
801018d4:	27bdffe8 	addiu	sp,sp,-24
801018d8:	afbf0014 	sw	ra,20(sp)
801018dc:	afbe0010 	sw	s8,16(sp)
801018e0:	03a0f025 	move	s8,sp
801018e4:	3c024100 	lui	v0,0x4100
801018e8:	34420010 	ori	v0,v0,0x10
801018ec:	ac400000 	sw	zero,0(v0)
801018f0:	0c04046b 	jal	801011ac <pml_stack_save>
801018f4:	00000000 	nop
801018f8:	0c04043b 	jal	801010ec <pml_loc_save>
801018fc:	00000000 	nop
80101900:	3c024100 	lui	v0,0x4100
80101904:	34420014 	ori	v0,v0,0x14
80101908:	24030001 	li	v1,1
8010190c:	ac430000 	sw	v1,0(v0)
80101910:	00000000 	nop
80101914:	03c0e825 	move	sp,s8
80101918:	8fbf0014 	lw	ra,20(sp)
8010191c:	8fbe0010 	lw	s8,16(sp)
80101920:	27bd0018 	addiu	sp,sp,24
80101924:	03e00008 	jr	ra
80101928:	00000000 	nop

8010192c <user_handle_helper>:
user_handle_helper():
8010192c:	27bdffe0 	addiu	sp,sp,-32
80101930:	afbf001c 	sw	ra,28(sp)
80101934:	afbe0018 	sw	s8,24(sp)
80101938:	03a0f025 	move	s8,sp
8010193c:	afc40020 	sw	a0,32(s8)
80101940:	8fc30020 	lw	v1,32(s8)
80101944:	3c021000 	lui	v0,0x1000
80101948:	3442003f 	ori	v0,v0,0x3f
8010194c:	00621021 	addu	v0,v1,v0
80101950:	00021080 	sll	v0,v0,0x2
80101954:	afc20010 	sw	v0,16(s8)
80101958:	8fc20010 	lw	v0,16(s8)
8010195c:	ac400000 	sw	zero,0(v0)
80101960:	8fc50020 	lw	a1,32(s8)
80101964:	3c028010 	lui	v0,0x8010
80101968:	24444cc8 	addiu	a0,v0,19656
8010196c:	0c04098f 	jal	8010263c <uart_printf>
80101970:	00000000 	nop
80101974:	3c028012 	lui	v0,0x8012
80101978:	8c420128 	lw	v0,296(v0)
8010197c:	24430001 	addiu	v1,v0,1
80101980:	3c028012 	lui	v0,0x8012
80101984:	ac430128 	sw	v1,296(v0)
80101988:	00000000 	nop
8010198c:	03c0e825 	move	sp,s8
80101990:	8fbf001c 	lw	ra,28(sp)
80101994:	8fbe0018 	lw	s8,24(sp)
80101998:	27bd0020 	addiu	sp,sp,32
8010199c:	03e00008 	jr	ra
801019a0:	00000000 	nop

801019a4 <user5_handler>:
user5_handler():
801019a4:	27bdffe8 	addiu	sp,sp,-24
801019a8:	afbf0014 	sw	ra,20(sp)
801019ac:	afbe0010 	sw	s8,16(sp)
801019b0:	03a0f025 	move	s8,sp
801019b4:	24040006 	li	a0,6
801019b8:	0c04064b 	jal	8010192c <user_handle_helper>
801019bc:	00000000 	nop
801019c0:	00000000 	nop
801019c4:	03c0e825 	move	sp,s8
801019c8:	8fbf0014 	lw	ra,20(sp)
801019cc:	8fbe0010 	lw	s8,16(sp)
801019d0:	27bd0018 	addiu	sp,sp,24
801019d4:	03e00008 	jr	ra
801019d8:	00000000 	nop

801019dc <timer0a_handler>:
timer0a_handler():
801019dc:	27bdffe8 	addiu	sp,sp,-24
801019e0:	afbf0014 	sw	ra,20(sp)
801019e4:	afbe0010 	sw	s8,16(sp)
801019e8:	03a0f025 	move	s8,sp
801019ec:	24040011 	li	a0,17
801019f0:	0c04064b 	jal	8010192c <user_handle_helper>
801019f4:	00000000 	nop
801019f8:	00000000 	nop
801019fc:	03c0e825 	move	sp,s8
80101a00:	8fbf0014 	lw	ra,20(sp)
80101a04:	8fbe0010 	lw	s8,16(sp)
80101a08:	27bd0018 	addiu	sp,sp,24
80101a0c:	03e00008 	jr	ra
80101a10:	00000000 	nop

80101a14 <timer0b_handler>:
timer0b_handler():
80101a14:	27bdffe8 	addiu	sp,sp,-24
80101a18:	afbf0014 	sw	ra,20(sp)
80101a1c:	afbe0010 	sw	s8,16(sp)
80101a20:	03a0f025 	move	s8,sp
80101a24:	24040012 	li	a0,18
80101a28:	0c04064b 	jal	8010192c <user_handle_helper>
80101a2c:	00000000 	nop
80101a30:	00000000 	nop
80101a34:	03c0e825 	move	sp,s8
80101a38:	8fbf0014 	lw	ra,20(sp)
80101a3c:	8fbe0010 	lw	s8,16(sp)
80101a40:	27bd0018 	addiu	sp,sp,24
80101a44:	03e00008 	jr	ra
80101a48:	00000000 	nop

80101a4c <IRQ_Init>:
IRQ_Init():
80101a4c:	27bdffe8 	addiu	sp,sp,-24
80101a50:	afbf0014 	sw	ra,20(sp)
80101a54:	afbe0010 	sw	s8,16(sp)
80101a58:	03a0f025 	move	s8,sp
80101a5c:	40026000 	mfc0	v0,c0_status
80101a60:	0040f825 	move	ra,v0
80101a64:	03e01025 	move	v0,ra
80101a68:	0040f825 	move	ra,v0
80101a6c:	03e01025 	move	v0,ra
80101a70:	7c02b584 	ins	v0,zero,0x16,0x1
80101a74:	40826000 	mtc0	v0,c0_status
80101a78:	000000c0 	ehb
80101a7c:	40026000 	mfc0	v0,c0_status
80101a80:	0040f825 	move	ra,v0
80101a84:	03e01025 	move	v0,ra
80101a88:	0040f825 	move	ra,v0
80101a8c:	37e20c01 	ori	v0,ra,0xc01
80101a90:	40826000 	mtc0	v0,c0_status
80101a94:	000000c0 	ehb
80101a98:	3c028010 	lui	v0,0x8010
80101a9c:	40827801 	mtc0	v0,c0_ebase
80101aa0:	000000c0 	ehb
80101aa4:	24040040 	li	a0,64
80101aa8:	0c0408dd 	jal	80102374 <PLIC_Init>
80101aac:	00000000 	nop
80101ab0:	3c028010 	lui	v0,0x8010
80101ab4:	244619a4 	addiu	a2,v0,6564
80101ab8:	24050002 	li	a1,2
80101abc:	24040006 	li	a0,6
80101ac0:	0c040860 	jal	80102180 <PLIC_Register_IRQ>
80101ac4:	00000000 	nop
80101ac8:	3c028010 	lui	v0,0x8010
80101acc:	244619dc 	addiu	a2,v0,6620
80101ad0:	24050003 	li	a1,3
80101ad4:	24040011 	li	a0,17
80101ad8:	0c040860 	jal	80102180 <PLIC_Register_IRQ>
80101adc:	00000000 	nop
80101ae0:	3c028010 	lui	v0,0x8010
80101ae4:	24461a14 	addiu	a2,v0,6676
80101ae8:	24050003 	li	a1,3
80101aec:	24040012 	li	a0,18
80101af0:	0c040860 	jal	80102180 <PLIC_Register_IRQ>
80101af4:	00000000 	nop
80101af8:	00000000 	nop
80101afc:	03c0e825 	move	sp,s8
80101b00:	8fbf0014 	lw	ra,20(sp)
80101b04:	8fbe0010 	lw	s8,16(sp)
80101b08:	27bd0018 	addiu	sp,sp,24
80101b0c:	03e00008 	jr	ra
80101b10:	00000000 	nop

80101b14 <NMI_Handler>:
NMI_Handler():
80101b14:	27bdffe0 	addiu	sp,sp,-32
80101b18:	afbf001c 	sw	ra,28(sp)
80101b1c:	afbe0018 	sw	s8,24(sp)
80101b20:	03a0f025 	move	s8,sp
80101b24:	3c02c000 	lui	v0,0xc000
80101b28:	34420008 	ori	v0,v0,0x8
80101b2c:	3c034000 	lui	v1,0x4000
80101b30:	34630003 	ori	v1,v1,0x3
80101b34:	ac430000 	sw	v1,0(v0)
80101b38:	000000c0 	ehb
80101b3c:	0000000f 	sync
80101b40:	3c028010 	lui	v0,0x8010
80101b44:	24444cdc 	addiu	a0,v0,19676
80101b48:	0c04098f 	jal	8010263c <uart_printf>
80101b4c:	00000000 	nop
80101b50:	3c028012 	lui	v0,0x8012
80101b54:	8c420120 	lw	v0,288(v0)
80101b58:	10400027 	beqz	v0,80101bf8 <NMI_Handler+0xe4>
80101b5c:	00000000 	nop
80101b60:	3c028012 	lui	v0,0x8012
80101b64:	8c420124 	lw	v0,292(v0)
80101b68:	00402825 	move	a1,v0
80101b6c:	3c028010 	lui	v0,0x8010
80101b70:	24444cfc 	addiu	a0,v0,19708
80101b74:	0c04098f 	jal	8010263c <uart_printf>
80101b78:	00000000 	nop
80101b7c:	3c028012 	lui	v0,0x8012
80101b80:	8c420124 	lw	v0,292(v0)
80101b84:	14400007 	bnez	v0,80101ba4 <NMI_Handler+0x90>
80101b88:	00000000 	nop
80101b8c:	3c028013 	lui	v0,0x8013
80101b90:	3442000c 	ori	v0,v0,0xc
80101b94:	24030001 	li	v1,1
80101b98:	ac430000 	sw	v1,0(v0)
80101b9c:	10000018 	b	80101c00 <NMI_Handler+0xec>
80101ba0:	00000000 	nop
80101ba4:	3c028012 	lui	v0,0x8012
80101ba8:	8c430124 	lw	v1,292(v0)
80101bac:	24020001 	li	v0,1
80101bb0:	14620013 	bne	v1,v0,80101c00 <NMI_Handler+0xec>
80101bb4:	00000000 	nop
80101bb8:	3c028013 	lui	v0,0x8013
80101bbc:	3442100c 	ori	v0,v0,0x100c
80101bc0:	24030001 	li	v1,1
80101bc4:	ac430000 	sw	v1,0(v0)
80101bc8:	afc00010 	sw	zero,16(s8)
80101bcc:	10000004 	b	80101be0 <NMI_Handler+0xcc>
80101bd0:	00000000 	nop
80101bd4:	8fc20010 	lw	v0,16(s8)
80101bd8:	24420001 	addiu	v0,v0,1
80101bdc:	afc20010 	sw	v0,16(s8)
80101be0:	8fc20010 	lw	v0,16(s8)
80101be4:	28420032 	slti	v0,v0,50
80101be8:	1440fffa 	bnez	v0,80101bd4 <NMI_Handler+0xc0>
80101bec:	00000000 	nop
80101bf0:	10000003 	b	80101c00 <NMI_Handler+0xec>
80101bf4:	00000000 	nop
80101bf8:	1000ffff 	b	80101bf8 <NMI_Handler+0xe4>
80101bfc:	00000000 	nop
80101c00:	3c02c000 	lui	v0,0xc000
80101c04:	34420008 	ori	v0,v0,0x8
80101c08:	3c038000 	lui	v1,0x8000
80101c0c:	34630003 	ori	v1,v1,0x3
80101c10:	ac430000 	sw	v1,0(v0)
80101c14:	000000c0 	ehb
80101c18:	0000000f 	sync
80101c1c:	00000000 	nop
80101c20:	03c0e825 	move	sp,s8
80101c24:	8fbf001c 	lw	ra,28(sp)
80101c28:	8fbe0018 	lw	s8,24(sp)
80101c2c:	27bd0020 	addiu	sp,sp,32
80101c30:	03e00008 	jr	ra
80101c34:	00000000 	nop

80101c38 <_mips_general_exception>:
_mips_general_exception():
80101c38:	401b7000 	mfc0	k1,c0_epc
80101c3c:	27bdff80 	addiu	sp,sp,-128
80101c40:	afbb007c 	sw	k1,124(sp)
80101c44:	401b6000 	mfc0	k1,c0_status
80101c48:	afbb0078 	sw	k1,120(sp)
80101c4c:	7c1b2004 	ins	k1,zero,0x0,0x5
80101c50:	0000d012 	mflo	k0
80101c54:	afba0074 	sw	k0,116(sp)
80101c58:	0000d010 	mfhi	k0
80101c5c:	afba0070 	sw	k0,112(sp)
80101c60:	409b6000 	mtc0	k1,c0_status
80101c64:	afbf006c 	sw	ra,108(sp)
80101c68:	afbe0068 	sw	s8,104(sp)
80101c6c:	afb90064 	sw	t9,100(sp)
80101c70:	afb80060 	sw	t8,96(sp)
80101c74:	afaf005c 	sw	t7,92(sp)
80101c78:	afae0058 	sw	t6,88(sp)
80101c7c:	afad0054 	sw	t5,84(sp)
80101c80:	afac0050 	sw	t4,80(sp)
80101c84:	afab004c 	sw	t3,76(sp)
80101c88:	afaa0048 	sw	t2,72(sp)
80101c8c:	afa90044 	sw	t1,68(sp)
80101c90:	afa80040 	sw	t0,64(sp)
80101c94:	afa7003c 	sw	a3,60(sp)
80101c98:	afa60038 	sw	a2,56(sp)
80101c9c:	afa50034 	sw	a1,52(sp)
80101ca0:	afa40030 	sw	a0,48(sp)
80101ca4:	afa3002c 	sw	v1,44(sp)
80101ca8:	afa20028 	sw	v0,40(sp)
80101cac:	afa10024 	sw	at,36(sp)
80101cb0:	03a0f025 	move	s8,sp
80101cb4:	40026800 	mfc0	v0,c0_cause
80101cb8:	0040f825 	move	ra,v0
80101cbc:	03e01025 	move	v0,ra
80101cc0:	afc20018 	sw	v0,24(s8)
80101cc4:	40027000 	mfc0	v0,c0_epc
80101cc8:	0040f825 	move	ra,v0
80101ccc:	03e01025 	move	v0,ra
80101cd0:	afc2001c 	sw	v0,28(s8)
80101cd4:	8fc20018 	lw	v0,24(s8)
80101cd8:	3042007c 	andi	v0,v0,0x7c
80101cdc:	1040000d 	beqz	v0,80101d14 <_mips_general_exception+0xdc>
80101ce0:	00000000 	nop
80101ce4:	8fc2001c 	lw	v0,28(s8)
80101ce8:	afa20010 	sw	v0,16(sp)
80101cec:	8fc70018 	lw	a3,24(s8)
80101cf0:	2406006b 	li	a2,107
80101cf4:	3c028010 	lui	v0,0x8010
80101cf8:	24454d0c 	addiu	a1,v0,19724
80101cfc:	3c028010 	lui	v0,0x8010
80101d00:	24444d64 	addiu	a0,v0,19812
80101d04:	0c04098f 	jal	8010263c <uart_printf>
80101d08:	00000000 	nop
80101d0c:	1000ffff 	b	80101d0c <_mips_general_exception+0xd4>
80101d10:	00000000 	nop
80101d14:	8fc20018 	lw	v0,24(s8)
80101d18:	30420400 	andi	v0,v0,0x400
80101d1c:	10400005 	beqz	v0,80101d34 <_mips_general_exception+0xfc>
80101d20:	00000000 	nop
80101d24:	0c040635 	jal	801018d4 <save_context_handler>
80101d28:	00000000 	nop
80101d2c:	10000013 	b	80101d7c <_mips_general_exception+0x144>
80101d30:	00000000 	nop
80101d34:	8fc20018 	lw	v0,24(s8)
80101d38:	30420800 	andi	v0,v0,0x800
80101d3c:	10400005 	beqz	v0,80101d54 <_mips_general_exception+0x11c>
80101d40:	00000000 	nop
80101d44:	0c0407cf 	jal	80101f3c <plic_handler>
80101d48:	00000000 	nop
80101d4c:	1000000b 	b	80101d7c <_mips_general_exception+0x144>
80101d50:	00000000 	nop
80101d54:	8fc70018 	lw	a3,24(s8)
80101d58:	24060075 	li	a2,117
80101d5c:	3c028010 	lui	v0,0x8010
80101d60:	24454d0c 	addiu	a1,v0,19724
80101d64:	3c028010 	lui	v0,0x8010
80101d68:	24444dbc 	addiu	a0,v0,19900
80101d6c:	0c04098f 	jal	8010263c <uart_printf>
80101d70:	00000000 	nop
80101d74:	1000ffff 	b	80101d74 <_mips_general_exception+0x13c>
80101d78:	00000000 	nop
80101d7c:	03c0e825 	move	sp,s8
80101d80:	8fba0074 	lw	k0,116(sp)
80101d84:	03400013 	mtlo	k0
80101d88:	8fba0070 	lw	k0,112(sp)
80101d8c:	03400011 	mthi	k0
80101d90:	8fbf006c 	lw	ra,108(sp)
80101d94:	8fbe0068 	lw	s8,104(sp)
80101d98:	8fb90064 	lw	t9,100(sp)
80101d9c:	8fb80060 	lw	t8,96(sp)
80101da0:	8faf005c 	lw	t7,92(sp)
80101da4:	8fae0058 	lw	t6,88(sp)
80101da8:	8fad0054 	lw	t5,84(sp)
80101dac:	8fac0050 	lw	t4,80(sp)
80101db0:	8fab004c 	lw	t3,76(sp)
80101db4:	8faa0048 	lw	t2,72(sp)
80101db8:	8fa90044 	lw	t1,68(sp)
80101dbc:	8fa80040 	lw	t0,64(sp)
80101dc0:	8fa7003c 	lw	a3,60(sp)
80101dc4:	8fa60038 	lw	a2,56(sp)
80101dc8:	8fa50034 	lw	a1,52(sp)
80101dcc:	8fa40030 	lw	a0,48(sp)
80101dd0:	8fa3002c 	lw	v1,44(sp)
80101dd4:	8fa20028 	lw	v0,40(sp)
80101dd8:	8fa10024 	lw	at,36(sp)
80101ddc:	8fbb007c 	lw	k1,124(sp)
80101de0:	409b7000 	mtc0	k1,c0_epc
80101de4:	8fbb0078 	lw	k1,120(sp)
80101de8:	27bd0080 	addiu	sp,sp,128
80101dec:	409b6000 	mtc0	k1,c0_status
80101df0:	42000018 	eret

80101df4 <system_default_interrupt_handler>:
system_default_interrupt_handler():
80101df4:	27bdffe8 	addiu	sp,sp,-24
80101df8:	afbf0014 	sw	ra,20(sp)
80101dfc:	afbe0010 	sw	s8,16(sp)
80101e00:	03a0f025 	move	s8,sp
80101e04:	3c028010 	lui	v0,0x8010
80101e08:	24444e04 	addiu	a0,v0,19972
80101e0c:	0c04098f 	jal	8010263c <uart_printf>
80101e10:	00000000 	nop
80101e14:	1000ffff 	b	80101e14 <system_default_interrupt_handler+0x20>
80101e18:	00000000 	nop

80101e1c <Interrupt_Init>:
Interrupt_Init():
80101e1c:	27bdfff0 	addiu	sp,sp,-16
80101e20:	afbe000c 	sw	s8,12(sp)
80101e24:	03a0f025 	move	s8,sp
80101e28:	afc00000 	sw	zero,0(s8)
80101e2c:	1000000c 	b	80101e60 <Interrupt_Init+0x44>
80101e30:	00000000 	nop
80101e34:	3c028010 	lui	v0,0x8010
80101e38:	24431df4 	addiu	v1,v0,7668
80101e3c:	3c028012 	lui	v0,0x8012
80101e40:	8fc40000 	lw	a0,0(s8)
80101e44:	00042080 	sll	a0,a0,0x2
80101e48:	2442012c 	addiu	v0,v0,300
80101e4c:	00821021 	addu	v0,a0,v0
80101e50:	ac430000 	sw	v1,0(v0)
80101e54:	8fc20000 	lw	v0,0(s8)
80101e58:	24420001 	addiu	v0,v0,1
80101e5c:	afc20000 	sw	v0,0(s8)
80101e60:	8fc20000 	lw	v0,0(s8)
80101e64:	28420040 	slti	v0,v0,64
80101e68:	1440fff2 	bnez	v0,80101e34 <Interrupt_Init+0x18>
80101e6c:	00000000 	nop
	...
80101e78:	03c0e825 	move	sp,s8
80101e7c:	8fbe000c 	lw	s8,12(sp)
80101e80:	27bd0010 	addiu	sp,sp,16
80101e84:	03e00008 	jr	ra
80101e88:	00000000 	nop

80101e8c <Interrupt_Register_ExtIRQ>:
Interrupt_Register_ExtIRQ():
80101e8c:	27bdfff8 	addiu	sp,sp,-8
80101e90:	afbe0004 	sw	s8,4(sp)
80101e94:	03a0f025 	move	s8,sp
80101e98:	afc40008 	sw	a0,8(s8)
80101e9c:	afc5000c 	sw	a1,12(s8)
80101ea0:	8fc20008 	lw	v0,8(s8)
80101ea4:	2c420041 	sltiu	v0,v0,65
80101ea8:	10400008 	beqz	v0,80101ecc <Interrupt_Register_ExtIRQ+0x40>
80101eac:	00000000 	nop
80101eb0:	3c028012 	lui	v0,0x8012
80101eb4:	8fc30008 	lw	v1,8(s8)
80101eb8:	00031880 	sll	v1,v1,0x2
80101ebc:	2442012c 	addiu	v0,v0,300
80101ec0:	00621021 	addu	v0,v1,v0
80101ec4:	8fc3000c 	lw	v1,12(s8)
80101ec8:	ac430000 	sw	v1,0(v0)
80101ecc:	00000000 	nop
80101ed0:	03c0e825 	move	sp,s8
80101ed4:	8fbe0004 	lw	s8,4(sp)
80101ed8:	27bd0008 	addiu	sp,sp,8
80101edc:	03e00008 	jr	ra
80101ee0:	00000000 	nop

80101ee4 <Interrupt_Get_ExtIRQ>:
Interrupt_Get_ExtIRQ():
80101ee4:	27bdfff8 	addiu	sp,sp,-8
80101ee8:	afbe0004 	sw	s8,4(sp)
80101eec:	03a0f025 	move	s8,sp
80101ef0:	afc40008 	sw	a0,8(s8)
80101ef4:	8fc20008 	lw	v0,8(s8)
80101ef8:	2c420041 	sltiu	v0,v0,65
80101efc:	10400009 	beqz	v0,80101f24 <Interrupt_Get_ExtIRQ+0x40>
80101f00:	00000000 	nop
80101f04:	3c028012 	lui	v0,0x8012
80101f08:	8fc30008 	lw	v1,8(s8)
80101f0c:	00031880 	sll	v1,v1,0x2
80101f10:	2442012c 	addiu	v0,v0,300
80101f14:	00621021 	addu	v0,v1,v0
80101f18:	8c420000 	lw	v0,0(v0)
80101f1c:	10000002 	b	80101f28 <Interrupt_Get_ExtIRQ+0x44>
80101f20:	00000000 	nop
80101f24:	00001025 	move	v0,zero
80101f28:	03c0e825 	move	sp,s8
80101f2c:	8fbe0004 	lw	s8,4(sp)
80101f30:	27bd0008 	addiu	sp,sp,8
80101f34:	03e00008 	jr	ra
80101f38:	00000000 	nop

80101f3c <plic_handler>:
plic_handler():
80101f3c:	27bdffc8 	addiu	sp,sp,-56
80101f40:	afbf0034 	sw	ra,52(sp)
80101f44:	afbe0030 	sw	s8,48(sp)
80101f48:	03a0f025 	move	s8,sp
80101f4c:	afc00018 	sw	zero,24(s8)
80101f50:	8fc20018 	lw	v0,24(s8)
80101f54:	00021b00 	sll	v1,v0,0xc
80101f58:	3c024110 	lui	v0,0x4110
80101f5c:	34420604 	ori	v0,v0,0x604
80101f60:	00621021 	addu	v0,v1,v0
80101f64:	afc2001c 	sw	v0,28(s8)
80101f68:	8fc2001c 	lw	v0,28(s8)
80101f6c:	8c420000 	lw	v0,0(v0)
80101f70:	afc20010 	sw	v0,16(s8)
80101f74:	afc00014 	sw	zero,20(s8)
80101f78:	8fc20010 	lw	v0,16(s8)
80101f7c:	2c420040 	sltiu	v0,v0,64
80101f80:	1040001e 	beqz	v0,80101ffc <plic_handler+0xc0>
80101f84:	00000000 	nop
80101f88:	3c028012 	lui	v0,0x8012
80101f8c:	8fc30010 	lw	v1,16(s8)
80101f90:	00031880 	sll	v1,v1,0x2
80101f94:	2442012c 	addiu	v0,v0,300
80101f98:	00621021 	addu	v0,v1,v0
80101f9c:	8c420000 	lw	v0,0(v0)
80101fa0:	afc20014 	sw	v0,20(s8)
80101fa4:	8fc20014 	lw	v0,20(s8)
80101fa8:	10400004 	beqz	v0,80101fbc <plic_handler+0x80>
80101fac:	00000000 	nop
80101fb0:	8fc20014 	lw	v0,20(s8)
80101fb4:	0040f809 	jalr	v0
80101fb8:	00000000 	nop
80101fbc:	8fc20010 	lw	v0,16(s8)
80101fc0:	afc20020 	sw	v0,32(s8)
80101fc4:	afc00024 	sw	zero,36(s8)
80101fc8:	8fc20024 	lw	v0,36(s8)
80101fcc:	00021b00 	sll	v1,v0,0xc
80101fd0:	3c024110 	lui	v0,0x4110
80101fd4:	34420604 	ori	v0,v0,0x604
80101fd8:	00621021 	addu	v0,v1,v0
80101fdc:	afc20028 	sw	v0,40(s8)
80101fe0:	8fc20028 	lw	v0,40(s8)
80101fe4:	8fc30020 	lw	v1,32(s8)
80101fe8:	ac430000 	sw	v1,0(v0)
80101fec:	00000000 	nop
80101ff0:	24020001 	li	v0,1
80101ff4:	10000004 	b	80102008 <plic_handler+0xcc>
80101ff8:	00000000 	nop
80101ffc:	0c04077d 	jal	80101df4 <system_default_interrupt_handler>
80102000:	00000000 	nop
80102004:	00001025 	move	v0,zero
80102008:	03c0e825 	move	sp,s8
8010200c:	8fbf0034 	lw	ra,52(sp)
80102010:	8fbe0030 	lw	s8,48(sp)
80102014:	27bd0038 	addiu	sp,sp,56
80102018:	03e00008 	jr	ra
8010201c:	00000000 	nop

80102020 <PLIC_Register_IRQ_Hard>:
PLIC_Register_IRQ_Hard():
80102020:	27bdffd8 	addiu	sp,sp,-40
80102024:	afbe0024 	sw	s8,36(sp)
80102028:	03a0f025 	move	s8,sp
8010202c:	afc40028 	sw	a0,40(s8)
80102030:	00a01025 	move	v0,a1
80102034:	a3c2002c 	sb	v0,44(s8)
80102038:	8fc20028 	lw	v0,40(s8)
8010203c:	2c420040 	sltiu	v0,v0,64
80102040:	14400004 	bnez	v0,80102054 <PLIC_Register_IRQ_Hard+0x34>
80102044:	00000000 	nop
80102048:	2402ffff 	li	v0,-1
8010204c:	1000002b 	b	801020fc <PLIC_Register_IRQ_Hard+0xdc>
80102050:	00000000 	nop
80102054:	93c2002c 	lbu	v0,44(s8)
80102058:	8fc30028 	lw	v1,40(s8)
8010205c:	afc30010 	sw	v1,16(s8)
80102060:	afc20014 	sw	v0,20(s8)
80102064:	8fc20010 	lw	v0,16(s8)
80102068:	00021880 	sll	v1,v0,0x2
8010206c:	3c024110 	lui	v0,0x4110
80102070:	00621021 	addu	v0,v1,v0
80102074:	afc20018 	sw	v0,24(s8)
80102078:	8fc20018 	lw	v0,24(s8)
8010207c:	8fc30014 	lw	v1,20(s8)
80102080:	ac430000 	sw	v1,0(v0)
80102084:	00000000 	nop
80102088:	8fc20028 	lw	v0,40(s8)
8010208c:	afc20000 	sw	v0,0(s8)
80102090:	afc00004 	sw	zero,4(s8)
80102094:	8fc20004 	lw	v0,4(s8)
80102098:	000219c0 	sll	v1,v0,0x7
8010209c:	8fc20000 	lw	v0,0(s8)
801020a0:	00021142 	srl	v0,v0,0x5
801020a4:	00021080 	sll	v0,v0,0x2
801020a8:	00621821 	addu	v1,v1,v0
801020ac:	3c024110 	lui	v0,0x4110
801020b0:	34420400 	ori	v0,v0,0x400
801020b4:	00621021 	addu	v0,v1,v0
801020b8:	afc20008 	sw	v0,8(s8)
801020bc:	8fc20008 	lw	v0,8(s8)
801020c0:	8c420000 	lw	v0,0(v0)
801020c4:	afc2000c 	sw	v0,12(s8)
801020c8:	8fc20000 	lw	v0,0(s8)
801020cc:	3042001f 	andi	v0,v0,0x1f
801020d0:	24030001 	li	v1,1
801020d4:	00431004 	sllv	v0,v1,v0
801020d8:	00401825 	move	v1,v0
801020dc:	8fc2000c 	lw	v0,12(s8)
801020e0:	00431025 	or	v0,v0,v1
801020e4:	afc2000c 	sw	v0,12(s8)
801020e8:	8fc20008 	lw	v0,8(s8)
801020ec:	8fc3000c 	lw	v1,12(s8)
801020f0:	ac430000 	sw	v1,0(v0)
801020f4:	00000000 	nop
801020f8:	00001025 	move	v0,zero
801020fc:	03c0e825 	move	sp,s8
80102100:	8fbe0024 	lw	s8,36(sp)
80102104:	27bd0028 	addiu	sp,sp,40
80102108:	03e00008 	jr	ra
8010210c:	00000000 	nop

80102110 <PLIC_Register_IRQ_Soft>:
PLIC_Register_IRQ_Soft():
80102110:	27bdffe8 	addiu	sp,sp,-24
80102114:	afbf0014 	sw	ra,20(sp)
80102118:	afbe0010 	sw	s8,16(sp)
8010211c:	03a0f025 	move	s8,sp
80102120:	afc40018 	sw	a0,24(s8)
80102124:	afc5001c 	sw	a1,28(s8)
80102128:	8fc20018 	lw	v0,24(s8)
8010212c:	2c420040 	sltiu	v0,v0,64
80102130:	14400004 	bnez	v0,80102144 <PLIC_Register_IRQ_Soft+0x34>
80102134:	00000000 	nop
80102138:	2402ffff 	li	v0,-1
8010213c:	1000000a 	b	80102168 <PLIC_Register_IRQ_Soft+0x58>
80102140:	00000000 	nop
80102144:	8fc2001c 	lw	v0,28(s8)
80102148:	10400006 	beqz	v0,80102164 <PLIC_Register_IRQ_Soft+0x54>
8010214c:	00000000 	nop
80102150:	8fc2001c 	lw	v0,28(s8)
80102154:	00402825 	move	a1,v0
80102158:	8fc40018 	lw	a0,24(s8)
8010215c:	0c0407a3 	jal	80101e8c <Interrupt_Register_ExtIRQ>
80102160:	00000000 	nop
80102164:	00001025 	move	v0,zero
80102168:	03c0e825 	move	sp,s8
8010216c:	8fbf0014 	lw	ra,20(sp)
80102170:	8fbe0010 	lw	s8,16(sp)
80102174:	27bd0018 	addiu	sp,sp,24
80102178:	03e00008 	jr	ra
8010217c:	00000000 	nop

80102180 <PLIC_Register_IRQ>:
PLIC_Register_IRQ():
80102180:	27bdffe0 	addiu	sp,sp,-32
80102184:	afbf001c 	sw	ra,28(sp)
80102188:	afbe0018 	sw	s8,24(sp)
8010218c:	03a0f025 	move	s8,sp
80102190:	afc40020 	sw	a0,32(s8)
80102194:	00a01025 	move	v0,a1
80102198:	afc60028 	sw	a2,40(s8)
8010219c:	a3c20024 	sb	v0,36(s8)
801021a0:	8fc50028 	lw	a1,40(s8)
801021a4:	8fc40020 	lw	a0,32(s8)
801021a8:	0c040844 	jal	80102110 <PLIC_Register_IRQ_Soft>
801021ac:	00000000 	nop
801021b0:	afc20010 	sw	v0,16(s8)
801021b4:	8fc30010 	lw	v1,16(s8)
801021b8:	2402ffff 	li	v0,-1
801021bc:	14620004 	bne	v1,v0,801021d0 <PLIC_Register_IRQ+0x50>
801021c0:	00000000 	nop
801021c4:	8fc20010 	lw	v0,16(s8)
801021c8:	1000000d 	b	80102200 <PLIC_Register_IRQ+0x80>
801021cc:	00000000 	nop
801021d0:	3c024100 	lui	v0,0x4100
801021d4:	34420058 	ori	v0,v0,0x58
801021d8:	8c420000 	lw	v0,0(v0)
801021dc:	14400007 	bnez	v0,801021fc <PLIC_Register_IRQ+0x7c>
801021e0:	00000000 	nop
801021e4:	93c20024 	lbu	v0,36(s8)
801021e8:	00402825 	move	a1,v0
801021ec:	8fc40020 	lw	a0,32(s8)
801021f0:	0c040808 	jal	80102020 <PLIC_Register_IRQ_Hard>
801021f4:	00000000 	nop
801021f8:	afc20010 	sw	v0,16(s8)
801021fc:	8fc20010 	lw	v0,16(s8)
80102200:	03c0e825 	move	sp,s8
80102204:	8fbf001c 	lw	ra,28(sp)
80102208:	8fbe0018 	lw	s8,24(sp)
8010220c:	27bd0020 	addiu	sp,sp,32
80102210:	03e00008 	jr	ra
80102214:	00000000 	nop

80102218 <PLIC_Init_Hard>:
PLIC_Init_Hard():
80102218:	27bdffc8 	addiu	sp,sp,-56
8010221c:	afbe0034 	sw	s8,52(sp)
80102220:	03a0f025 	move	s8,sp
80102224:	afc40038 	sw	a0,56(s8)
80102228:	afc00000 	sw	zero,0(s8)
8010222c:	1000002d 	b	801022e4 <PLIC_Init_Hard+0xcc>
80102230:	00000000 	nop
80102234:	8fc20000 	lw	v0,0(s8)
80102238:	afc20010 	sw	v0,16(s8)
8010223c:	afc00014 	sw	zero,20(s8)
80102240:	8fc20014 	lw	v0,20(s8)
80102244:	000219c0 	sll	v1,v0,0x7
80102248:	8fc20010 	lw	v0,16(s8)
8010224c:	00021142 	srl	v0,v0,0x5
80102250:	00021080 	sll	v0,v0,0x2
80102254:	00621821 	addu	v1,v1,v0
80102258:	3c024110 	lui	v0,0x4110
8010225c:	34420400 	ori	v0,v0,0x400
80102260:	00621021 	addu	v0,v1,v0
80102264:	afc20018 	sw	v0,24(s8)
80102268:	8fc20018 	lw	v0,24(s8)
8010226c:	8c420000 	lw	v0,0(v0)
80102270:	afc2001c 	sw	v0,28(s8)
80102274:	8fc20010 	lw	v0,16(s8)
80102278:	3042001f 	andi	v0,v0,0x1f
8010227c:	24030001 	li	v1,1
80102280:	00431004 	sllv	v0,v1,v0
80102284:	00021027 	nor	v0,zero,v0
80102288:	00401825 	move	v1,v0
8010228c:	8fc2001c 	lw	v0,28(s8)
80102290:	00431024 	and	v0,v0,v1
80102294:	afc2001c 	sw	v0,28(s8)
80102298:	8fc20018 	lw	v0,24(s8)
8010229c:	8fc3001c 	lw	v1,28(s8)
801022a0:	ac430000 	sw	v1,0(v0)
801022a4:	00000000 	nop
801022a8:	8fc20000 	lw	v0,0(s8)
801022ac:	afc20004 	sw	v0,4(s8)
801022b0:	afc00008 	sw	zero,8(s8)
801022b4:	8fc20004 	lw	v0,4(s8)
801022b8:	00021880 	sll	v1,v0,0x2
801022bc:	3c024110 	lui	v0,0x4110
801022c0:	00621021 	addu	v0,v1,v0
801022c4:	afc2000c 	sw	v0,12(s8)
801022c8:	8fc2000c 	lw	v0,12(s8)
801022cc:	8fc30008 	lw	v1,8(s8)
801022d0:	ac430000 	sw	v1,0(v0)
801022d4:	00000000 	nop
801022d8:	8fc20000 	lw	v0,0(s8)
801022dc:	24420001 	addiu	v0,v0,1
801022e0:	afc20000 	sw	v0,0(s8)
801022e4:	8fc30000 	lw	v1,0(s8)
801022e8:	8fc20038 	lw	v0,56(s8)
801022ec:	0062102b 	sltu	v0,v1,v0
801022f0:	1440ffd0 	bnez	v0,80102234 <PLIC_Init_Hard+0x1c>
801022f4:	00000000 	nop
801022f8:	afc00020 	sw	zero,32(s8)
801022fc:	afc00024 	sw	zero,36(s8)
80102300:	8fc20024 	lw	v0,36(s8)
80102304:	00021b00 	sll	v1,v0,0xc
80102308:	3c024110 	lui	v0,0x4110
8010230c:	34420600 	ori	v0,v0,0x600
80102310:	00621021 	addu	v0,v1,v0
80102314:	afc20028 	sw	v0,40(s8)
80102318:	8fc20028 	lw	v0,40(s8)
8010231c:	8fc30020 	lw	v1,32(s8)
80102320:	ac430000 	sw	v1,0(v0)
	...
8010232c:	03c0e825 	move	sp,s8
80102330:	8fbe0034 	lw	s8,52(sp)
80102334:	27bd0038 	addiu	sp,sp,56
80102338:	03e00008 	jr	ra
8010233c:	00000000 	nop

80102340 <PLIC_Init_Soft>:
PLIC_Init_Soft():
80102340:	27bdffe8 	addiu	sp,sp,-24
80102344:	afbf0014 	sw	ra,20(sp)
80102348:	afbe0010 	sw	s8,16(sp)
8010234c:	03a0f025 	move	s8,sp
80102350:	0c040787 	jal	80101e1c <Interrupt_Init>
80102354:	00000000 	nop
80102358:	00000000 	nop
8010235c:	03c0e825 	move	sp,s8
80102360:	8fbf0014 	lw	ra,20(sp)
80102364:	8fbe0010 	lw	s8,16(sp)
80102368:	27bd0018 	addiu	sp,sp,24
8010236c:	03e00008 	jr	ra
80102370:	00000000 	nop

80102374 <PLIC_Init>:
PLIC_Init():
80102374:	27bdffe8 	addiu	sp,sp,-24
80102378:	afbf0014 	sw	ra,20(sp)
8010237c:	afbe0010 	sw	s8,16(sp)
80102380:	03a0f025 	move	s8,sp
80102384:	afc40018 	sw	a0,24(s8)
80102388:	0c0408d0 	jal	80102340 <PLIC_Init_Soft>
8010238c:	00000000 	nop
80102390:	3c024100 	lui	v0,0x4100
80102394:	34420058 	ori	v0,v0,0x58
80102398:	8c420000 	lw	v0,0(v0)
8010239c:	14400004 	bnez	v0,801023b0 <PLIC_Init+0x3c>
801023a0:	00000000 	nop
801023a4:	8fc40018 	lw	a0,24(s8)
801023a8:	0c040886 	jal	80102218 <PLIC_Init_Hard>
801023ac:	00000000 	nop
801023b0:	00000000 	nop
801023b4:	03c0e825 	move	sp,s8
801023b8:	8fbf0014 	lw	ra,20(sp)
801023bc:	8fbe0010 	lw	s8,16(sp)
801023c0:	27bd0018 	addiu	sp,sp,24
801023c4:	03e00008 	jr	ra
801023c8:	00000000 	nop

801023cc <uart2_init>:
uart2_init():
801023cc:	27bdffd8 	addiu	sp,sp,-40
801023d0:	afbf0024 	sw	ra,36(sp)
801023d4:	afbe0020 	sw	s8,32(sp)
801023d8:	03a0f025 	move	s8,sp
801023dc:	afc40028 	sw	a0,40(s8)
801023e0:	3c020001 	lui	v0,0x1
801023e4:	3442c200 	ori	v0,v0,0xc200
801023e8:	afc20010 	sw	v0,16(s8)
801023ec:	24020001 	li	v0,1
801023f0:	a3c20014 	sb	v0,20(s8)
801023f4:	a3c00015 	sb	zero,21(s8)
801023f8:	24020004 	li	v0,4
801023fc:	a3c20016 	sb	v0,22(s8)
80102400:	24020001 	li	v0,1
80102404:	a3c20017 	sb	v0,23(s8)
80102408:	24020001 	li	v0,1
8010240c:	a3c20018 	sb	v0,24(s8)
80102410:	24020001 	li	v0,1
80102414:	a3c20019 	sb	v0,25(s8)
80102418:	a3c0001a 	sb	zero,26(s8)
8010241c:	a3c0001b 	sb	zero,27(s8)
80102420:	a3c0001c 	sb	zero,28(s8)
80102424:	a3c0001d 	sb	zero,29(s8)
80102428:	24050040 	li	a1,64
8010242c:	24040003 	li	a0,3
80102430:	0c04124a 	jal	80104928 <GPIO_PinTypeUART>
80102434:	00000000 	nop
80102438:	24050080 	li	a1,128
8010243c:	24040003 	li	a0,3
80102440:	0c04124a 	jal	80104928 <GPIO_PinTypeUART>
80102444:	00000000 	nop
80102448:	3c020060 	lui	v0,0x60
8010244c:	34440324 	ori	a0,v0,0x324
80102450:	0c04129b 	jal	80104a6c <GPIO_PinConfigure>
80102454:	00000000 	nop
80102458:	3c020040 	lui	v0,0x40
8010245c:	34440324 	ori	a0,v0,0x324
80102460:	0c04129b 	jal	80104a6c <GPIO_PinConfigure>
80102464:	00000000 	nop
80102468:	3c024005 	lui	v0,0x4005
8010246c:	3442b000 	ori	v0,v0,0xb000
80102470:	3c031100 	lui	v1,0x1100
80102474:	ac43052c 	sw	v1,1324(v0)
80102478:	8fc60028 	lw	a2,40(s8)
8010247c:	27c20010 	addiu	v0,s8,16
80102480:	00402825 	move	a1,v0
80102484:	3c024000 	lui	v0,0x4000
80102488:	3444e000 	ori	a0,v0,0xe000
8010248c:	0c040a72 	jal	801029c8 <UART_Init>
80102490:	00000000 	nop
80102494:	00000000 	nop
80102498:	03c0e825 	move	sp,s8
8010249c:	8fbf0024 	lw	ra,36(sp)
801024a0:	8fbe0020 	lw	s8,32(sp)
801024a4:	27bd0028 	addiu	sp,sp,40
801024a8:	03e00008 	jr	ra
801024ac:	00000000 	nop

801024b0 <uart_stdout_init>:
uart_stdout_init():
801024b0:	27bdffd8 	addiu	sp,sp,-40
801024b4:	afbf0024 	sw	ra,36(sp)
801024b8:	afbe0020 	sw	s8,32(sp)
801024bc:	03a0f025 	move	s8,sp
801024c0:	afc40028 	sw	a0,40(s8)
801024c4:	3c020001 	lui	v0,0x1
801024c8:	3442c200 	ori	v0,v0,0xc200
801024cc:	afc20010 	sw	v0,16(s8)
801024d0:	24020001 	li	v0,1
801024d4:	a3c20014 	sb	v0,20(s8)
801024d8:	a3c00015 	sb	zero,21(s8)
801024dc:	24020004 	li	v0,4
801024e0:	a3c20016 	sb	v0,22(s8)
801024e4:	24020001 	li	v0,1
801024e8:	a3c20017 	sb	v0,23(s8)
801024ec:	24020001 	li	v0,1
801024f0:	a3c20018 	sb	v0,24(s8)
801024f4:	24020001 	li	v0,1
801024f8:	a3c20019 	sb	v0,25(s8)
801024fc:	a3c0001a 	sb	zero,26(s8)
80102500:	a3c0001b 	sb	zero,27(s8)
80102504:	a3c0001c 	sb	zero,28(s8)
80102508:	a3c0001d 	sb	zero,29(s8)
8010250c:	8fc60028 	lw	a2,40(s8)
80102510:	27c20010 	addiu	v0,s8,16
80102514:	00402825 	move	a1,v0
80102518:	3c024000 	lui	v0,0x4000
8010251c:	3444c000 	ori	a0,v0,0xc000
80102520:	0c040a72 	jal	801029c8 <UART_Init>
80102524:	00000000 	nop
80102528:	00000000 	nop
8010252c:	03c0e825 	move	sp,s8
80102530:	8fbf0024 	lw	ra,36(sp)
80102534:	8fbe0020 	lw	s8,32(sp)
80102538:	27bd0028 	addiu	sp,sp,40
8010253c:	03e00008 	jr	ra
80102540:	00000000 	nop

80102544 <uart_putc>:
uart_putc():
80102544:	27bdfff8 	addiu	sp,sp,-8
80102548:	afbe0004 	sw	s8,4(sp)
8010254c:	03a0f025 	move	s8,sp
80102550:	00801025 	move	v0,a0
80102554:	a3c20008 	sb	v0,8(s8)
80102558:	00000000 	nop
8010255c:	3c024000 	lui	v0,0x4000
80102560:	3442c000 	ori	v0,v0,0xc000
80102564:	8c42002c 	lw	v0,44(v0)
80102568:	30420010 	andi	v0,v0,0x10
8010256c:	1440fffb 	bnez	v0,8010255c <uart_putc+0x18>
80102570:	00000000 	nop
80102574:	3c024000 	lui	v0,0x4000
80102578:	3442c000 	ori	v0,v0,0xc000
8010257c:	93c30008 	lbu	v1,8(s8)
80102580:	ac430030 	sw	v1,48(v0)
80102584:	00000000 	nop
80102588:	03c0e825 	move	sp,s8
8010258c:	8fbe0004 	lw	s8,4(sp)
80102590:	27bd0008 	addiu	sp,sp,8
80102594:	03e00008 	jr	ra
80102598:	00000000 	nop

8010259c <printn>:
printn():
8010259c:	27bdffe0 	addiu	sp,sp,-32
801025a0:	afbf001c 	sw	ra,28(sp)
801025a4:	afbe0018 	sw	s8,24(sp)
801025a8:	03a0f025 	move	s8,sp
801025ac:	afc40020 	sw	a0,32(s8)
801025b0:	afc50024 	sw	a1,36(s8)
801025b4:	8fc30020 	lw	v1,32(s8)
801025b8:	8fc20024 	lw	v0,36(s8)
801025bc:	004001f4 	teq	v0,zero,0x7
801025c0:	0062001b 	divu	zero,v1,v0
801025c4:	00001010 	mfhi	v0
801025c8:	00001012 	mflo	v0
801025cc:	afc20010 	sw	v0,16(s8)
801025d0:	8fc20010 	lw	v0,16(s8)
801025d4:	10400005 	beqz	v0,801025ec <printn+0x50>
801025d8:	00000000 	nop
801025dc:	8fc50024 	lw	a1,36(s8)
801025e0:	8fc40010 	lw	a0,16(s8)
801025e4:	0c040967 	jal	8010259c <printn>
801025e8:	00000000 	nop
801025ec:	8fc30020 	lw	v1,32(s8)
801025f0:	8fc20024 	lw	v0,36(s8)
801025f4:	004001f4 	teq	v0,zero,0x7
801025f8:	0062001b 	divu	zero,v1,v0
801025fc:	00001010 	mfhi	v0
80102600:	00401825 	move	v1,v0
80102604:	3c028010 	lui	v0,0x8010
80102608:	24424e20 	addiu	v0,v0,20000
8010260c:	00621021 	addu	v0,v1,v0
80102610:	90420000 	lbu	v0,0(v0)
80102614:	00402025 	move	a0,v0
80102618:	0c040951 	jal	80102544 <uart_putc>
8010261c:	00000000 	nop
80102620:	00000000 	nop
80102624:	03c0e825 	move	sp,s8
80102628:	8fbf001c 	lw	ra,28(sp)
8010262c:	8fbe0018 	lw	s8,24(sp)
80102630:	27bd0020 	addiu	sp,sp,32
80102634:	03e00008 	jr	ra
80102638:	00000000 	nop

8010263c <uart_printf>:
uart_printf():
8010263c:	27bdffd0 	addiu	sp,sp,-48
80102640:	afbf002c 	sw	ra,44(sp)
80102644:	afbe0028 	sw	s8,40(sp)
80102648:	03a0f025 	move	s8,sp
8010264c:	afc40030 	sw	a0,48(s8)
80102650:	afc50034 	sw	a1,52(s8)
80102654:	afc60038 	sw	a2,56(s8)
80102658:	afc7003c 	sw	a3,60(s8)
8010265c:	a3c00014 	sb	zero,20(s8)
80102660:	afc00010 	sw	zero,16(s8)
80102664:	afc00018 	sw	zero,24(s8)
80102668:	afc0001c 	sw	zero,28(s8)
8010266c:	27c20034 	addiu	v0,s8,52
80102670:	afc20020 	sw	v0,32(s8)
80102674:	100000c4 	b	80102988 <uart_printf+0x34c>
80102678:	00000000 	nop
8010267c:	93c30014 	lbu	v1,20(s8)
80102680:	24020025 	li	v0,37
80102684:	10620007 	beq	v1,v0,801026a4 <uart_printf+0x68>
80102688:	00000000 	nop
8010268c:	93c20014 	lbu	v0,20(s8)
80102690:	00402025 	move	a0,v0
80102694:	0c040951 	jal	80102544 <uart_putc>
80102698:	00000000 	nop
8010269c:	100000ba 	b	80102988 <uart_printf+0x34c>
801026a0:	00000000 	nop
801026a4:	8fc20030 	lw	v0,48(s8)
801026a8:	24430001 	addiu	v1,v0,1
801026ac:	afc30030 	sw	v1,48(s8)
801026b0:	90420000 	lbu	v0,0(v0)
801026b4:	a3c20014 	sb	v0,20(s8)
801026b8:	93c20014 	lbu	v0,20(s8)
801026bc:	2442ffa8 	addiu	v0,v0,-88
801026c0:	2c430021 	sltiu	v1,v0,33
801026c4:	106000a6 	beqz	v1,80102960 <uart_printf+0x324>
801026c8:	00000000 	nop
801026cc:	00021880 	sll	v1,v0,0x2
801026d0:	3c028010 	lui	v0,0x8010
801026d4:	24424e30 	addiu	v0,v0,20016
801026d8:	00621021 	addu	v0,v1,v0
801026dc:	8c420000 	lw	v0,0(v0)
801026e0:	00400008 	jr	v0
801026e4:	00000000 	nop
801026e8:	8fc20020 	lw	v0,32(s8)
801026ec:	24430004 	addiu	v1,v0,4
801026f0:	afc30020 	sw	v1,32(s8)
801026f4:	8c420000 	lw	v0,0(v0)
801026f8:	afc2001c 	sw	v0,28(s8)
801026fc:	8fc2001c 	lw	v0,28(s8)
80102700:	24050008 	li	a1,8
80102704:	00402025 	move	a0,v0
80102708:	0c040967 	jal	8010259c <printn>
8010270c:	00000000 	nop
80102710:	1000009d 	b	80102988 <uart_printf+0x34c>
80102714:	00000000 	nop
80102718:	8fc20020 	lw	v0,32(s8)
8010271c:	24430004 	addiu	v1,v0,4
80102720:	afc30020 	sw	v1,32(s8)
80102724:	8c420000 	lw	v0,0(v0)
80102728:	afc2001c 	sw	v0,28(s8)
8010272c:	8fc2001c 	lw	v0,28(s8)
80102730:	2405000a 	li	a1,10
80102734:	00402025 	move	a0,v0
80102738:	0c040967 	jal	8010259c <printn>
8010273c:	00000000 	nop
80102740:	10000091 	b	80102988 <uart_printf+0x34c>
80102744:	00000000 	nop
80102748:	8fc20020 	lw	v0,32(s8)
8010274c:	24430004 	addiu	v1,v0,4
80102750:	afc30020 	sw	v1,32(s8)
80102754:	8c420000 	lw	v0,0(v0)
80102758:	afc20018 	sw	v0,24(s8)
8010275c:	8fc20018 	lw	v0,24(s8)
80102760:	00021702 	srl	v0,v0,0x1c
80102764:	1040000a 	beqz	v0,80102790 <uart_printf+0x154>
80102768:	00000000 	nop
8010276c:	8fc20018 	lw	v0,24(s8)
80102770:	00021f02 	srl	v1,v0,0x1c
80102774:	3c028010 	lui	v0,0x8010
80102778:	24424e20 	addiu	v0,v0,20000
8010277c:	00621021 	addu	v0,v1,v0
80102780:	90420000 	lbu	v0,0(v0)
80102784:	00402025 	move	a0,v0
80102788:	0c040951 	jal	80102544 <uart_putc>
8010278c:	00000000 	nop
80102790:	8fc20018 	lw	v0,24(s8)
80102794:	00021602 	srl	v0,v0,0x18
80102798:	1040000b 	beqz	v0,801027c8 <uart_printf+0x18c>
8010279c:	00000000 	nop
801027a0:	8fc20018 	lw	v0,24(s8)
801027a4:	00021602 	srl	v0,v0,0x18
801027a8:	3043000f 	andi	v1,v0,0xf
801027ac:	3c028010 	lui	v0,0x8010
801027b0:	24424e20 	addiu	v0,v0,20000
801027b4:	00621021 	addu	v0,v1,v0
801027b8:	90420000 	lbu	v0,0(v0)
801027bc:	00402025 	move	a0,v0
801027c0:	0c040951 	jal	80102544 <uart_putc>
801027c4:	00000000 	nop
801027c8:	8fc20018 	lw	v0,24(s8)
801027cc:	00021502 	srl	v0,v0,0x14
801027d0:	1040000b 	beqz	v0,80102800 <uart_printf+0x1c4>
801027d4:	00000000 	nop
801027d8:	8fc20018 	lw	v0,24(s8)
801027dc:	00021502 	srl	v0,v0,0x14
801027e0:	3043000f 	andi	v1,v0,0xf
801027e4:	3c028010 	lui	v0,0x8010
801027e8:	24424e20 	addiu	v0,v0,20000
801027ec:	00621021 	addu	v0,v1,v0
801027f0:	90420000 	lbu	v0,0(v0)
801027f4:	00402025 	move	a0,v0
801027f8:	0c040951 	jal	80102544 <uart_putc>
801027fc:	00000000 	nop
80102800:	8fc20018 	lw	v0,24(s8)
80102804:	00021402 	srl	v0,v0,0x10
80102808:	1040000b 	beqz	v0,80102838 <uart_printf+0x1fc>
8010280c:	00000000 	nop
80102810:	8fc20018 	lw	v0,24(s8)
80102814:	00021402 	srl	v0,v0,0x10
80102818:	3043000f 	andi	v1,v0,0xf
8010281c:	3c028010 	lui	v0,0x8010
80102820:	24424e20 	addiu	v0,v0,20000
80102824:	00621021 	addu	v0,v1,v0
80102828:	90420000 	lbu	v0,0(v0)
8010282c:	00402025 	move	a0,v0
80102830:	0c040951 	jal	80102544 <uart_putc>
80102834:	00000000 	nop
80102838:	8fc20018 	lw	v0,24(s8)
8010283c:	00021302 	srl	v0,v0,0xc
80102840:	1040000b 	beqz	v0,80102870 <uart_printf+0x234>
80102844:	00000000 	nop
80102848:	8fc20018 	lw	v0,24(s8)
8010284c:	00021302 	srl	v0,v0,0xc
80102850:	3043000f 	andi	v1,v0,0xf
80102854:	3c028010 	lui	v0,0x8010
80102858:	24424e20 	addiu	v0,v0,20000
8010285c:	00621021 	addu	v0,v1,v0
80102860:	90420000 	lbu	v0,0(v0)
80102864:	00402025 	move	a0,v0
80102868:	0c040951 	jal	80102544 <uart_putc>
8010286c:	00000000 	nop
80102870:	8fc20018 	lw	v0,24(s8)
80102874:	00021202 	srl	v0,v0,0x8
80102878:	1040000b 	beqz	v0,801028a8 <uart_printf+0x26c>
8010287c:	00000000 	nop
80102880:	8fc20018 	lw	v0,24(s8)
80102884:	00021202 	srl	v0,v0,0x8
80102888:	3043000f 	andi	v1,v0,0xf
8010288c:	3c028010 	lui	v0,0x8010
80102890:	24424e20 	addiu	v0,v0,20000
80102894:	00621021 	addu	v0,v1,v0
80102898:	90420000 	lbu	v0,0(v0)
8010289c:	00402025 	move	a0,v0
801028a0:	0c040951 	jal	80102544 <uart_putc>
801028a4:	00000000 	nop
801028a8:	8fc20018 	lw	v0,24(s8)
801028ac:	00021102 	srl	v0,v0,0x4
801028b0:	1040000b 	beqz	v0,801028e0 <uart_printf+0x2a4>
801028b4:	00000000 	nop
801028b8:	8fc20018 	lw	v0,24(s8)
801028bc:	00021102 	srl	v0,v0,0x4
801028c0:	3043000f 	andi	v1,v0,0xf
801028c4:	3c028010 	lui	v0,0x8010
801028c8:	24424e20 	addiu	v0,v0,20000
801028cc:	00621021 	addu	v0,v1,v0
801028d0:	90420000 	lbu	v0,0(v0)
801028d4:	00402025 	move	a0,v0
801028d8:	0c040951 	jal	80102544 <uart_putc>
801028dc:	00000000 	nop
801028e0:	8fc20018 	lw	v0,24(s8)
801028e4:	3043000f 	andi	v1,v0,0xf
801028e8:	3c028010 	lui	v0,0x8010
801028ec:	24424e20 	addiu	v0,v0,20000
801028f0:	00621021 	addu	v0,v1,v0
801028f4:	90420000 	lbu	v0,0(v0)
801028f8:	00402025 	move	a0,v0
801028fc:	0c040951 	jal	80102544 <uart_putc>
80102900:	00000000 	nop
80102904:	10000020 	b	80102988 <uart_printf+0x34c>
80102908:	00000000 	nop
8010290c:	8fc20020 	lw	v0,32(s8)
80102910:	24430004 	addiu	v1,v0,4
80102914:	afc30020 	sw	v1,32(s8)
80102918:	8c420000 	lw	v0,0(v0)
8010291c:	afc20010 	sw	v0,16(s8)
80102920:	10000009 	b	80102948 <uart_printf+0x30c>
80102924:	00000000 	nop
80102928:	8fc20010 	lw	v0,16(s8)
8010292c:	90420000 	lbu	v0,0(v0)
80102930:	00402025 	move	a0,v0
80102934:	0c040951 	jal	80102544 <uart_putc>
80102938:	00000000 	nop
8010293c:	8fc20010 	lw	v0,16(s8)
80102940:	24420001 	addiu	v0,v0,1
80102944:	afc20010 	sw	v0,16(s8)
80102948:	8fc20010 	lw	v0,16(s8)
8010294c:	90420000 	lbu	v0,0(v0)
80102950:	1440fff5 	bnez	v0,80102928 <uart_printf+0x2ec>
80102954:	00000000 	nop
80102958:	1000000b 	b	80102988 <uart_printf+0x34c>
8010295c:	00000000 	nop
80102960:	8fc20020 	lw	v0,32(s8)
80102964:	24430004 	addiu	v1,v0,4
80102968:	afc30020 	sw	v1,32(s8)
8010296c:	8c420000 	lw	v0,0(v0)
80102970:	a3c20014 	sb	v0,20(s8)
80102974:	93c20014 	lbu	v0,20(s8)
80102978:	00402025 	move	a0,v0
8010297c:	0c040951 	jal	80102544 <uart_putc>
80102980:	00000000 	nop
80102984:	00000000 	nop
80102988:	8fc20030 	lw	v0,48(s8)
8010298c:	24430001 	addiu	v1,v0,1
80102990:	afc30030 	sw	v1,48(s8)
80102994:	90420000 	lbu	v0,0(v0)
80102998:	a3c20014 	sb	v0,20(s8)
8010299c:	93c20014 	lbu	v0,20(s8)
801029a0:	1440ff36 	bnez	v0,8010267c <uart_printf+0x40>
801029a4:	00000000 	nop
	...
801029b0:	03c0e825 	move	sp,s8
801029b4:	8fbf002c 	lw	ra,44(sp)
801029b8:	8fbe0028 	lw	s8,40(sp)
801029bc:	27bd0030 	addiu	sp,sp,48
801029c0:	03e00008 	jr	ra
801029c4:	00000000 	nop

801029c8 <UART_Init>:
UART_Init():
801029c8:	27bdffe8 	addiu	sp,sp,-24
801029cc:	afbe0014 	sw	s8,20(sp)
801029d0:	03a0f025 	move	s8,sp
801029d4:	afc40018 	sw	a0,24(s8)
801029d8:	afc5001c 	sw	a1,28(s8)
801029dc:	afc60020 	sw	a2,32(s8)
801029e0:	afc00000 	sw	zero,0(s8)
801029e4:	afc00004 	sw	zero,4(s8)
801029e8:	afc00008 	sw	zero,8(s8)
801029ec:	8fc20018 	lw	v0,24(s8)
801029f0:	8c420004 	lw	v0,4(v0)
801029f4:	afc20008 	sw	v0,8(s8)
801029f8:	8fc20008 	lw	v0,8(s8)
801029fc:	7c026804 	ins	v0,zero,0x0,0xe
80102a00:	afc20008 	sw	v0,8(s8)
80102a04:	8fc2001c 	lw	v0,28(s8)
80102a08:	90420004 	lbu	v0,4(v0)
80102a0c:	00021040 	sll	v0,v0,0x1
80102a10:	8fc30008 	lw	v1,8(s8)
80102a14:	00621025 	or	v0,v1,v0
80102a18:	afc20008 	sw	v0,8(s8)
80102a1c:	8fc2001c 	lw	v0,28(s8)
80102a20:	90420005 	lbu	v0,5(v0)
80102a24:	00021180 	sll	v0,v0,0x6
80102a28:	8fc30008 	lw	v1,8(s8)
80102a2c:	00621025 	or	v0,v1,v0
80102a30:	afc20008 	sw	v0,8(s8)
80102a34:	8fc2001c 	lw	v0,28(s8)
80102a38:	90420009 	lbu	v0,9(v0)
80102a3c:	00021300 	sll	v0,v0,0xc
80102a40:	8fc30008 	lw	v1,8(s8)
80102a44:	00621025 	or	v0,v1,v0
80102a48:	afc20008 	sw	v0,8(s8)
80102a4c:	8fc2001c 	lw	v0,28(s8)
80102a50:	9042000b 	lbu	v0,11(v0)
80102a54:	00021200 	sll	v0,v0,0x8
80102a58:	8fc30008 	lw	v1,8(s8)
80102a5c:	00621025 	or	v0,v1,v0
80102a60:	afc20008 	sw	v0,8(s8)
80102a64:	8fc2001c 	lw	v0,28(s8)
80102a68:	9042000a 	lbu	v0,10(v0)
80102a6c:	000212c0 	sll	v0,v0,0xb
80102a70:	8fc30008 	lw	v1,8(s8)
80102a74:	00621025 	or	v0,v1,v0
80102a78:	afc20008 	sw	v0,8(s8)
80102a7c:	8fc2001c 	lw	v0,28(s8)
80102a80:	9042000c 	lbu	v0,12(v0)
80102a84:	00021280 	sll	v0,v0,0xa
80102a88:	8fc30008 	lw	v1,8(s8)
80102a8c:	00621025 	or	v0,v1,v0
80102a90:	afc20008 	sw	v0,8(s8)
80102a94:	8fc2001c 	lw	v0,28(s8)
80102a98:	9042000d 	lbu	v0,13(v0)
80102a9c:	00401825 	move	v1,v0
80102aa0:	8fc20008 	lw	v0,8(s8)
80102aa4:	00431025 	or	v0,v0,v1
80102aa8:	afc20008 	sw	v0,8(s8)
80102aac:	8fc2001c 	lw	v0,28(s8)
80102ab0:	90420006 	lbu	v0,6(v0)
80102ab4:	000210c0 	sll	v0,v0,0x3
80102ab8:	8fc30008 	lw	v1,8(s8)
80102abc:	00621025 	or	v0,v1,v0
80102ac0:	afc20008 	sw	v0,8(s8)
80102ac4:	8fc30008 	lw	v1,8(s8)
80102ac8:	8fc20018 	lw	v0,24(s8)
80102acc:	ac430004 	sw	v1,4(v0)
80102ad0:	8fc30020 	lw	v1,32(s8)
80102ad4:	24020010 	li	v0,16
80102ad8:	14620007 	bne	v1,v0,80102af8 <UART_Init+0x130>
80102adc:	00000000 	nop
80102ae0:	24020044 	li	v0,68
80102ae4:	afc20000 	sw	v0,0(s8)
80102ae8:	24020001 	li	v0,1
80102aec:	afc20004 	sw	v0,4(s8)
80102af0:	1000002f 	b	80102bb0 <UART_Init+0x1e8>
80102af4:	00000000 	nop
80102af8:	8fc30020 	lw	v1,32(s8)
80102afc:	24020028 	li	v0,40
80102b00:	14620007 	bne	v1,v0,80102b20 <UART_Init+0x158>
80102b04:	00000000 	nop
80102b08:	2402001c 	li	v0,28
80102b0c:	afc20000 	sw	v0,0(s8)
80102b10:	24020006 	li	v0,6
80102b14:	afc20004 	sw	v0,4(s8)
80102b18:	10000025 	b	80102bb0 <UART_Init+0x1e8>
80102b1c:	00000000 	nop
80102b20:	8fc30020 	lw	v1,32(s8)
80102b24:	24020050 	li	v0,80
80102b28:	14620019 	bne	v1,v0,80102b90 <UART_Init+0x1c8>
80102b2c:	00000000 	nop
80102b30:	8fc2001c 	lw	v0,28(s8)
80102b34:	8c430000 	lw	v1,0(v0)
80102b38:	3c020001 	lui	v0,0x1
80102b3c:	3442c200 	ori	v0,v0,0xc200
80102b40:	14620007 	bne	v1,v0,80102b60 <UART_Init+0x198>
80102b44:	00000000 	nop
80102b48:	240200ad 	li	v0,173
80102b4c:	afc20000 	sw	v0,0(s8)
80102b50:	24020002 	li	v0,2
80102b54:	afc20004 	sw	v0,4(s8)
80102b58:	10000015 	b	80102bb0 <UART_Init+0x1e8>
80102b5c:	00000000 	nop
80102b60:	8fc2001c 	lw	v0,28(s8)
80102b64:	8c430000 	lw	v1,0(v0)
80102b68:	3c02004c 	lui	v0,0x4c
80102b6c:	34424b40 	ori	v0,v0,0x4b40
80102b70:	1462000f 	bne	v1,v0,80102bb0 <UART_Init+0x1e8>
80102b74:	00000000 	nop
80102b78:	24020007 	li	v0,7
80102b7c:	afc20000 	sw	v0,0(s8)
80102b80:	24020001 	li	v0,1
80102b84:	afc20004 	sw	v0,4(s8)
80102b88:	10000009 	b	80102bb0 <UART_Init+0x1e8>
80102b8c:	00000000 	nop
80102b90:	8fc30020 	lw	v1,32(s8)
80102b94:	24020078 	li	v0,120
80102b98:	14620005 	bne	v1,v0,80102bb0 <UART_Init+0x1e8>
80102b9c:	00000000 	nop
80102ba0:	24020081 	li	v0,129
80102ba4:	afc20000 	sw	v0,0(s8)
80102ba8:	24020004 	li	v0,4
80102bac:	afc20004 	sw	v0,4(s8)
80102bb0:	8fc20018 	lw	v0,24(s8)
80102bb4:	8c420034 	lw	v0,52(v0)
80102bb8:	afc20008 	sw	v0,8(s8)
80102bbc:	8fc20008 	lw	v0,8(s8)
80102bc0:	7c023804 	ins	v0,zero,0x0,0x8
80102bc4:	afc20008 	sw	v0,8(s8)
80102bc8:	8fc30008 	lw	v1,8(s8)
80102bcc:	8fc20000 	lw	v0,0(s8)
80102bd0:	00621025 	or	v0,v1,v0
80102bd4:	afc20008 	sw	v0,8(s8)
80102bd8:	8fc30008 	lw	v1,8(s8)
80102bdc:	8fc20018 	lw	v0,24(s8)
80102be0:	ac430034 	sw	v1,52(v0)
80102be4:	8fc20018 	lw	v0,24(s8)
80102be8:	8c420018 	lw	v0,24(v0)
80102bec:	afc20008 	sw	v0,8(s8)
80102bf0:	8fc20008 	lw	v0,8(s8)
80102bf4:	7c027804 	ins	v0,zero,0x0,0x10
80102bf8:	afc20008 	sw	v0,8(s8)
80102bfc:	8fc30008 	lw	v1,8(s8)
80102c00:	8fc20004 	lw	v0,4(s8)
80102c04:	00621025 	or	v0,v1,v0
80102c08:	afc20008 	sw	v0,8(s8)
80102c0c:	8fc30008 	lw	v1,8(s8)
80102c10:	8fc20018 	lw	v0,24(s8)
80102c14:	ac430018 	sw	v1,24(v0)
80102c18:	8fc20018 	lw	v0,24(s8)
80102c1c:	8c420000 	lw	v0,0(v0)
80102c20:	afc20008 	sw	v0,8(s8)
80102c24:	8fc20008 	lw	v0,8(s8)
80102c28:	7c024204 	ins	v0,zero,0x8,0x1
80102c2c:	afc20008 	sw	v0,8(s8)
80102c30:	8fc20008 	lw	v0,8(s8)
80102c34:	7c0239c4 	ins	v0,zero,0x7,0x1
80102c38:	afc20008 	sw	v0,8(s8)
80102c3c:	8fc2001c 	lw	v0,28(s8)
80102c40:	90430007 	lbu	v1,7(v0)
80102c44:	24020001 	li	v0,1
80102c48:	14620009 	bne	v1,v0,80102c70 <UART_Init+0x2a8>
80102c4c:	00000000 	nop
80102c50:	8fc20008 	lw	v0,8(s8)
80102c54:	34420010 	ori	v0,v0,0x10
80102c58:	afc20008 	sw	v0,8(s8)
80102c5c:	8fc20008 	lw	v0,8(s8)
80102c60:	7c022944 	ins	v0,zero,0x5,0x1
80102c64:	afc20008 	sw	v0,8(s8)
80102c68:	10000004 	b	80102c7c <UART_Init+0x2b4>
80102c6c:	00000000 	nop
80102c70:	8fc20008 	lw	v0,8(s8)
80102c74:	34420020 	ori	v0,v0,0x20
80102c78:	afc20008 	sw	v0,8(s8)
80102c7c:	8fc2001c 	lw	v0,28(s8)
80102c80:	90430008 	lbu	v1,8(v0)
80102c84:	24020001 	li	v0,1
80102c88:	14620009 	bne	v1,v0,80102cb0 <UART_Init+0x2e8>
80102c8c:	00000000 	nop
80102c90:	8fc20008 	lw	v0,8(s8)
80102c94:	34420004 	ori	v0,v0,0x4
80102c98:	afc20008 	sw	v0,8(s8)
80102c9c:	8fc20008 	lw	v0,8(s8)
80102ca0:	7c0218c4 	ins	v0,zero,0x3,0x1
80102ca4:	afc20008 	sw	v0,8(s8)
80102ca8:	10000004 	b	80102cbc <UART_Init+0x2f4>
80102cac:	00000000 	nop
80102cb0:	8fc20008 	lw	v0,8(s8)
80102cb4:	34420008 	ori	v0,v0,0x8
80102cb8:	afc20008 	sw	v0,8(s8)
80102cbc:	8fc20008 	lw	v0,8(s8)
80102cc0:	34420002 	ori	v0,v0,0x2
80102cc4:	afc20008 	sw	v0,8(s8)
80102cc8:	8fc20008 	lw	v0,8(s8)
80102ccc:	34420001 	ori	v0,v0,0x1
80102cd0:	afc20008 	sw	v0,8(s8)
80102cd4:	8fc30008 	lw	v1,8(s8)
80102cd8:	8fc20018 	lw	v0,24(s8)
80102cdc:	ac430000 	sw	v1,0(v0)
80102ce0:	00000000 	nop
80102ce4:	03c0e825 	move	sp,s8
80102ce8:	8fbe0014 	lw	s8,20(sp)
80102cec:	27bd0018 	addiu	sp,sp,24
80102cf0:	03e00008 	jr	ra
80102cf4:	00000000 	nop

80102cf8 <UART_ConfigBaud>:
UART_ConfigBaud():
80102cf8:	27bdfff0 	addiu	sp,sp,-16
80102cfc:	afbe000c 	sw	s8,12(sp)
80102d00:	03a0f025 	move	s8,sp
80102d04:	afc40010 	sw	a0,16(s8)
80102d08:	00a01025 	move	v0,a1
80102d0c:	00c01825 	move	v1,a2
80102d10:	a3c20014 	sb	v0,20(s8)
80102d14:	00601025 	move	v0,v1
80102d18:	a3c20018 	sb	v0,24(s8)
80102d1c:	afc00000 	sw	zero,0(s8)
80102d20:	8fc20010 	lw	v0,16(s8)
80102d24:	8c420034 	lw	v0,52(v0)
80102d28:	afc20000 	sw	v0,0(s8)
80102d2c:	8fc20000 	lw	v0,0(s8)
80102d30:	7c023804 	ins	v0,zero,0x0,0x8
80102d34:	afc20000 	sw	v0,0(s8)
80102d38:	93c20014 	lbu	v0,20(s8)
80102d3c:	8fc30000 	lw	v1,0(s8)
80102d40:	00621025 	or	v0,v1,v0
80102d44:	afc20000 	sw	v0,0(s8)
80102d48:	8fc20010 	lw	v0,16(s8)
80102d4c:	8fc30000 	lw	v1,0(s8)
80102d50:	ac430034 	sw	v1,52(v0)
80102d54:	8fc20010 	lw	v0,16(s8)
80102d58:	8c420018 	lw	v0,24(v0)
80102d5c:	afc20000 	sw	v0,0(s8)
80102d60:	8fc20000 	lw	v0,0(s8)
80102d64:	7c027804 	ins	v0,zero,0x0,0x10
80102d68:	afc20000 	sw	v0,0(s8)
80102d6c:	93c20018 	lbu	v0,24(s8)
80102d70:	8fc30000 	lw	v1,0(s8)
80102d74:	00621025 	or	v0,v1,v0
80102d78:	afc20000 	sw	v0,0(s8)
80102d7c:	8fc20010 	lw	v0,16(s8)
80102d80:	8fc30000 	lw	v1,0(s8)
80102d84:	ac430018 	sw	v1,24(v0)
80102d88:	00000000 	nop
80102d8c:	03c0e825 	move	sp,s8
80102d90:	8fbe000c 	lw	s8,12(sp)
80102d94:	27bd0010 	addiu	sp,sp,16
80102d98:	03e00008 	jr	ra
80102d9c:	00000000 	nop

80102da0 <UART_PollPutChar>:
UART_PollPutChar():
80102da0:	27bdfff8 	addiu	sp,sp,-8
80102da4:	afbe0004 	sw	s8,4(sp)
80102da8:	03a0f025 	move	s8,sp
80102dac:	afc40008 	sw	a0,8(s8)
80102db0:	afc5000c 	sw	a1,12(s8)
80102db4:	8fc3000c 	lw	v1,12(s8)
80102db8:	8fc20008 	lw	v0,8(s8)
80102dbc:	ac430030 	sw	v1,48(v0)
80102dc0:	00000000 	nop
80102dc4:	03c0e825 	move	sp,s8
80102dc8:	8fbe0004 	lw	s8,4(sp)
80102dcc:	27bd0008 	addiu	sp,sp,8
80102dd0:	03e00008 	jr	ra
80102dd4:	00000000 	nop

80102dd8 <UART_BlockPutChar>:
UART_BlockPutChar():
80102dd8:	27bdfff8 	addiu	sp,sp,-8
80102ddc:	afbe0004 	sw	s8,4(sp)
80102de0:	03a0f025 	move	s8,sp
80102de4:	afc40008 	sw	a0,8(s8)
80102de8:	afc5000c 	sw	a1,12(s8)
80102dec:	00000000 	nop
80102df0:	8fc20008 	lw	v0,8(s8)
80102df4:	8c42002c 	lw	v0,44(v0)
80102df8:	30420008 	andi	v0,v0,0x8
80102dfc:	1040fffc 	beqz	v0,80102df0 <UART_BlockPutChar+0x18>
80102e00:	00000000 	nop
80102e04:	8fc3000c 	lw	v1,12(s8)
80102e08:	8fc20008 	lw	v0,8(s8)
80102e0c:	ac430030 	sw	v1,48(v0)
80102e10:	00000000 	nop
80102e14:	03c0e825 	move	sp,s8
80102e18:	8fbe0004 	lw	s8,4(sp)
80102e1c:	27bd0008 	addiu	sp,sp,8
80102e20:	03e00008 	jr	ra
80102e24:	00000000 	nop

80102e28 <UART_BlockPutChars>:
UART_BlockPutChars():
80102e28:	27bdffe0 	addiu	sp,sp,-32
80102e2c:	afbf001c 	sw	ra,28(sp)
80102e30:	afbe0018 	sw	s8,24(sp)
80102e34:	03a0f025 	move	s8,sp
80102e38:	afc40020 	sw	a0,32(s8)
80102e3c:	afc50024 	sw	a1,36(s8)
80102e40:	afc60028 	sw	a2,40(s8)
80102e44:	afc00010 	sw	zero,16(s8)
80102e48:	afc00010 	sw	zero,16(s8)
80102e4c:	1000000c 	b	80102e80 <UART_BlockPutChars+0x58>
80102e50:	00000000 	nop
80102e54:	8fc30024 	lw	v1,36(s8)
80102e58:	8fc20010 	lw	v0,16(s8)
80102e5c:	00621021 	addu	v0,v1,v0
80102e60:	90420000 	lbu	v0,0(v0)
80102e64:	00402825 	move	a1,v0
80102e68:	8fc40020 	lw	a0,32(s8)
80102e6c:	0c040b76 	jal	80102dd8 <UART_BlockPutChar>
80102e70:	00000000 	nop
80102e74:	8fc20010 	lw	v0,16(s8)
80102e78:	24420001 	addiu	v0,v0,1
80102e7c:	afc20010 	sw	v0,16(s8)
80102e80:	8fc30010 	lw	v1,16(s8)
80102e84:	8fc20028 	lw	v0,40(s8)
80102e88:	0062102b 	sltu	v0,v1,v0
80102e8c:	1440fff1 	bnez	v0,80102e54 <UART_BlockPutChars+0x2c>
80102e90:	00000000 	nop
	...
80102e9c:	03c0e825 	move	sp,s8
80102ea0:	8fbf001c 	lw	ra,28(sp)
80102ea4:	8fbe0018 	lw	s8,24(sp)
80102ea8:	27bd0020 	addiu	sp,sp,32
80102eac:	03e00008 	jr	ra
80102eb0:	00000000 	nop

80102eb4 <UART_PollFifoPutChar>:
UART_PollFifoPutChar():
80102eb4:	27bdfff8 	addiu	sp,sp,-8
80102eb8:	afbe0004 	sw	s8,4(sp)
80102ebc:	03a0f025 	move	s8,sp
80102ec0:	afc40008 	sw	a0,8(s8)
80102ec4:	afc5000c 	sw	a1,12(s8)
80102ec8:	8fc3000c 	lw	v1,12(s8)
80102ecc:	8fc20008 	lw	v0,8(s8)
80102ed0:	ac430030 	sw	v1,48(v0)
80102ed4:	00000000 	nop
80102ed8:	03c0e825 	move	sp,s8
80102edc:	8fbe0004 	lw	s8,4(sp)
80102ee0:	27bd0008 	addiu	sp,sp,8
80102ee4:	03e00008 	jr	ra
80102ee8:	00000000 	nop

80102eec <UART_PollGetChar>:
UART_PollGetChar():
80102eec:	27bdfff0 	addiu	sp,sp,-16
80102ef0:	afbe000c 	sw	s8,12(sp)
80102ef4:	03a0f025 	move	s8,sp
80102ef8:	afc40010 	sw	a0,16(s8)
80102efc:	2402ffff 	li	v0,-1
80102f00:	afc20000 	sw	v0,0(s8)
80102f04:	8fc20010 	lw	v0,16(s8)
80102f08:	8c42002c 	lw	v0,44(v0)
80102f0c:	30420002 	andi	v0,v0,0x2
80102f10:	14400004 	bnez	v0,80102f24 <UART_PollGetChar+0x38>
80102f14:	00000000 	nop
80102f18:	8fc20010 	lw	v0,16(s8)
80102f1c:	8c420030 	lw	v0,48(v0)
80102f20:	afc20000 	sw	v0,0(s8)
80102f24:	8fc20000 	lw	v0,0(s8)
80102f28:	03c0e825 	move	sp,s8
80102f2c:	8fbe000c 	lw	s8,12(sp)
80102f30:	27bd0010 	addiu	sp,sp,16
80102f34:	03e00008 	jr	ra
80102f38:	00000000 	nop

80102f3c <UART_BlockGetChar>:
UART_BlockGetChar():
80102f3c:	27bdfff0 	addiu	sp,sp,-16
80102f40:	afbe000c 	sw	s8,12(sp)
80102f44:	03a0f025 	move	s8,sp
80102f48:	afc40010 	sw	a0,16(s8)
80102f4c:	2402ffff 	li	v0,-1
80102f50:	afc20000 	sw	v0,0(s8)
80102f54:	24024e20 	li	v0,20000
80102f58:	afc20004 	sw	v0,4(s8)
80102f5c:	00000000 	nop
80102f60:	8fc20010 	lw	v0,16(s8)
80102f64:	8c42002c 	lw	v0,44(v0)
80102f68:	30420002 	andi	v0,v0,0x2
80102f6c:	1440fffc 	bnez	v0,80102f60 <UART_BlockGetChar+0x24>
80102f70:	00000000 	nop
80102f74:	8fc20004 	lw	v0,4(s8)
80102f78:	04400004 	bltz	v0,80102f8c <UART_BlockGetChar+0x50>
80102f7c:	00000000 	nop
80102f80:	8fc20010 	lw	v0,16(s8)
80102f84:	8c420030 	lw	v0,48(v0)
80102f88:	afc20000 	sw	v0,0(s8)
80102f8c:	8fc20000 	lw	v0,0(s8)
80102f90:	03c0e825 	move	sp,s8
80102f94:	8fbe000c 	lw	s8,12(sp)
80102f98:	27bd0010 	addiu	sp,sp,16
80102f9c:	03e00008 	jr	ra
80102fa0:	00000000 	nop

80102fa4 <UART_WriteByte>:
UART_WriteByte():
80102fa4:	27bdfff8 	addiu	sp,sp,-8
80102fa8:	afbe0004 	sw	s8,4(sp)
80102fac:	03a0f025 	move	s8,sp
80102fb0:	afc40008 	sw	a0,8(s8)
80102fb4:	00a01025 	move	v0,a1
80102fb8:	a3c2000c 	sb	v0,12(s8)
80102fbc:	00000000 	nop
80102fc0:	8fc20008 	lw	v0,8(s8)
80102fc4:	8c42002c 	lw	v0,44(v0)
80102fc8:	30420010 	andi	v0,v0,0x10
80102fcc:	1440fffc 	bnez	v0,80102fc0 <UART_WriteByte+0x1c>
80102fd0:	00000000 	nop
80102fd4:	93c3000c 	lbu	v1,12(s8)
80102fd8:	8fc20008 	lw	v0,8(s8)
80102fdc:	ac430030 	sw	v1,48(v0)
80102fe0:	00000000 	nop
80102fe4:	03c0e825 	move	sp,s8
80102fe8:	8fbe0004 	lw	s8,4(sp)
80102fec:	27bd0008 	addiu	sp,sp,8
80102ff0:	03e00008 	jr	ra
80102ff4:	00000000 	nop

80102ff8 <UART_WriteBytes>:
UART_WriteBytes():
80102ff8:	27bdffe0 	addiu	sp,sp,-32
80102ffc:	afbf001c 	sw	ra,28(sp)
80103000:	afbe0018 	sw	s8,24(sp)
80103004:	03a0f025 	move	s8,sp
80103008:	afc40020 	sw	a0,32(s8)
8010300c:	afc50024 	sw	a1,36(s8)
80103010:	afc60028 	sw	a2,40(s8)
80103014:	afc00010 	sw	zero,16(s8)
80103018:	afc00010 	sw	zero,16(s8)
8010301c:	1000000c 	b	80103050 <UART_WriteBytes+0x58>
80103020:	00000000 	nop
80103024:	8fc30024 	lw	v1,36(s8)
80103028:	8fc20010 	lw	v0,16(s8)
8010302c:	00621021 	addu	v0,v1,v0
80103030:	90420000 	lbu	v0,0(v0)
80103034:	00402825 	move	a1,v0
80103038:	8fc40020 	lw	a0,32(s8)
8010303c:	0c040be9 	jal	80102fa4 <UART_WriteByte>
80103040:	00000000 	nop
80103044:	8fc20010 	lw	v0,16(s8)
80103048:	24420001 	addiu	v0,v0,1
8010304c:	afc20010 	sw	v0,16(s8)
80103050:	8fc30010 	lw	v1,16(s8)
80103054:	8fc20028 	lw	v0,40(s8)
80103058:	0062102b 	sltu	v0,v1,v0
8010305c:	1440fff1 	bnez	v0,80103024 <UART_WriteBytes+0x2c>
80103060:	00000000 	nop
	...
8010306c:	03c0e825 	move	sp,s8
80103070:	8fbf001c 	lw	ra,28(sp)
80103074:	8fbe0018 	lw	s8,24(sp)
80103078:	27bd0020 	addiu	sp,sp,32
8010307c:	03e00008 	jr	ra
80103080:	00000000 	nop

80103084 <UART_EnableInt>:
UART_EnableInt():
80103084:	27bdfff8 	addiu	sp,sp,-8
80103088:	afbe0004 	sw	s8,4(sp)
8010308c:	03a0f025 	move	s8,sp
80103090:	afc40008 	sw	a0,8(s8)
80103094:	afc5000c 	sw	a1,12(s8)
80103098:	8fc20008 	lw	v0,8(s8)
8010309c:	8fc3000c 	lw	v1,12(s8)
801030a0:	ac430008 	sw	v1,8(v0)
801030a4:	00000000 	nop
801030a8:	03c0e825 	move	sp,s8
801030ac:	8fbe0004 	lw	s8,4(sp)
801030b0:	27bd0008 	addiu	sp,sp,8
801030b4:	03e00008 	jr	ra
801030b8:	00000000 	nop

801030bc <UART_DisableInt>:
UART_DisableInt():
801030bc:	27bdfff8 	addiu	sp,sp,-8
801030c0:	afbe0004 	sw	s8,4(sp)
801030c4:	03a0f025 	move	s8,sp
801030c8:	afc40008 	sw	a0,8(s8)
801030cc:	afc5000c 	sw	a1,12(s8)
801030d0:	8fc20008 	lw	v0,8(s8)
801030d4:	8fc3000c 	lw	v1,12(s8)
801030d8:	ac43000c 	sw	v1,12(v0)
801030dc:	00000000 	nop
801030e0:	03c0e825 	move	sp,s8
801030e4:	8fbe0004 	lw	s8,4(sp)
801030e8:	27bd0008 	addiu	sp,sp,8
801030ec:	03e00008 	jr	ra
801030f0:	00000000 	nop

801030f4 <UART_GetIntState>:
UART_GetIntState():
801030f4:	27bdfff8 	addiu	sp,sp,-8
801030f8:	afbe0004 	sw	s8,4(sp)
801030fc:	03a0f025 	move	s8,sp
80103100:	afc40008 	sw	a0,8(s8)
80103104:	afc5000c 	sw	a1,12(s8)
80103108:	8fc20008 	lw	v0,8(s8)
8010310c:	8c430014 	lw	v1,20(v0)
80103110:	8fc2000c 	lw	v0,12(s8)
80103114:	00621024 	and	v0,v1,v0
80103118:	10400004 	beqz	v0,8010312c <UART_GetIntState+0x38>
8010311c:	00000000 	nop
80103120:	24020001 	li	v0,1
80103124:	10000002 	b	80103130 <UART_GetIntState+0x3c>
80103128:	00000000 	nop
8010312c:	00001025 	move	v0,zero
80103130:	03c0e825 	move	sp,s8
80103134:	8fbe0004 	lw	s8,4(sp)
80103138:	27bd0008 	addiu	sp,sp,8
8010313c:	03e00008 	jr	ra
80103140:	00000000 	nop

80103144 <UART_GetIntMask>:
UART_GetIntMask():
80103144:	27bdfff8 	addiu	sp,sp,-8
80103148:	afbe0004 	sw	s8,4(sp)
8010314c:	03a0f025 	move	s8,sp
80103150:	afc40008 	sw	a0,8(s8)
80103154:	afc5000c 	sw	a1,12(s8)
80103158:	8fc20008 	lw	v0,8(s8)
8010315c:	8c430010 	lw	v1,16(v0)
80103160:	8fc2000c 	lw	v0,12(s8)
80103164:	00621024 	and	v0,v1,v0
80103168:	10400004 	beqz	v0,8010317c <UART_GetIntMask+0x38>
8010316c:	00000000 	nop
80103170:	24020001 	li	v0,1
80103174:	10000002 	b	80103180 <UART_GetIntMask+0x3c>
80103178:	00000000 	nop
8010317c:	00001025 	move	v0,zero
80103180:	03c0e825 	move	sp,s8
80103184:	8fbe0004 	lw	s8,4(sp)
80103188:	27bd0008 	addiu	sp,sp,8
8010318c:	03e00008 	jr	ra
80103190:	00000000 	nop

80103194 <UART_RfifoTrigger>:
UART_RfifoTrigger():
80103194:	27bdfff8 	addiu	sp,sp,-8
80103198:	afbe0004 	sw	s8,4(sp)
8010319c:	03a0f025 	move	s8,sp
801031a0:	afc40008 	sw	a0,8(s8)
801031a4:	afc5000c 	sw	a1,12(s8)
801031a8:	8fc3000c 	lw	v1,12(s8)
801031ac:	8fc20008 	lw	v0,8(s8)
801031b0:	ac430020 	sw	v1,32(v0)
801031b4:	00000000 	nop
801031b8:	03c0e825 	move	sp,s8
801031bc:	8fbe0004 	lw	s8,4(sp)
801031c0:	27bd0008 	addiu	sp,sp,8
801031c4:	03e00008 	jr	ra
801031c8:	00000000 	nop

801031cc <UART_TfifoTrigger>:
UART_TfifoTrigger():
801031cc:	27bdfff8 	addiu	sp,sp,-8
801031d0:	afbe0004 	sw	s8,4(sp)
801031d4:	03a0f025 	move	s8,sp
801031d8:	afc40008 	sw	a0,8(s8)
801031dc:	afc5000c 	sw	a1,12(s8)
801031e0:	8fc3000c 	lw	v1,12(s8)
801031e4:	8fc20008 	lw	v0,8(s8)
801031e8:	ac430044 	sw	v1,68(v0)
801031ec:	00000000 	nop
801031f0:	03c0e825 	move	sp,s8
801031f4:	8fbe0004 	lw	s8,4(sp)
801031f8:	27bd0008 	addiu	sp,sp,8
801031fc:	03e00008 	jr	ra
80103200:	00000000 	nop

80103204 <UART_SetDmaMode>:
UART_SetDmaMode():
80103204:	27bdfff8 	addiu	sp,sp,-8
80103208:	afbe0004 	sw	s8,4(sp)
8010320c:	03a0f025 	move	s8,sp
80103210:	afc40008 	sw	a0,8(s8)
80103214:	afc5000c 	sw	a1,12(s8)
80103218:	8fc3000c 	lw	v1,12(s8)
8010321c:	24020001 	li	v0,1
80103220:	14620006 	bne	v1,v0,8010323c <UART_SetDmaMode+0x38>
80103224:	00000000 	nop
80103228:	8fc20008 	lw	v0,8(s8)
8010322c:	24030001 	li	v1,1
80103230:	ac4300a0 	sw	v1,160(v0)
80103234:	10000003 	b	80103244 <UART_SetDmaMode+0x40>
80103238:	00000000 	nop
8010323c:	8fc20008 	lw	v0,8(s8)
80103240:	ac4000a0 	sw	zero,160(v0)
80103244:	00000000 	nop
80103248:	03c0e825 	move	sp,s8
8010324c:	8fbe0004 	lw	s8,4(sp)
80103250:	27bd0008 	addiu	sp,sp,8
80103254:	03e00008 	jr	ra
80103258:	00000000 	nop

8010325c <UART_RS485Config>:
UART_RS485Config():
8010325c:	27bdffe8 	addiu	sp,sp,-24
80103260:	afbe0014 	sw	s8,20(sp)
80103264:	03a0f025 	move	s8,sp
80103268:	afc40018 	sw	a0,24(s8)
8010326c:	afc5001c 	sw	a1,28(s8)
80103270:	afc00000 	sw	zero,0(s8)
80103274:	8fc20018 	lw	v0,24(s8)
80103278:	24420088 	addiu	v0,v0,136
8010327c:	afc20004 	sw	v0,4(s8)
80103280:	8fc20018 	lw	v0,24(s8)
80103284:	24420084 	addiu	v0,v0,132
80103288:	afc20008 	sw	v0,8(s8)
8010328c:	8fc20018 	lw	v0,24(s8)
80103290:	24420080 	addiu	v0,v0,128
80103294:	afc2000c 	sw	v0,12(s8)
80103298:	8fc2001c 	lw	v0,28(s8)
8010329c:	8c43000c 	lw	v1,12(v0)
801032a0:	24020001 	li	v0,1
801032a4:	1462001e 	bne	v1,v0,80103320 <UART_RS485Config+0xc4>
801032a8:	00000000 	nop
801032ac:	8fc20000 	lw	v0,0(s8)
801032b0:	34420010 	ori	v0,v0,0x10
801032b4:	afc20000 	sw	v0,0(s8)
801032b8:	8fc2001c 	lw	v0,28(s8)
801032bc:	8c430014 	lw	v1,20(v0)
801032c0:	24020001 	li	v0,1
801032c4:	14620004 	bne	v1,v0,801032d8 <UART_RS485Config+0x7c>
801032c8:	00000000 	nop
801032cc:	8fc20000 	lw	v0,0(s8)
801032d0:	34420020 	ori	v0,v0,0x20
801032d4:	afc20000 	sw	v0,0(s8)
801032d8:	8fc2001c 	lw	v0,28(s8)
801032dc:	8c430010 	lw	v1,16(v0)
801032e0:	24020001 	li	v0,1
801032e4:	14620009 	bne	v1,v0,8010330c <UART_RS485Config+0xb0>
801032e8:	00000000 	nop
801032ec:	8fc30018 	lw	v1,24(s8)
801032f0:	3c024000 	lui	v0,0x4000
801032f4:	3442d000 	ori	v0,v0,0xd000
801032f8:	14620004 	bne	v1,v0,8010330c <UART_RS485Config+0xb0>
801032fc:	00000000 	nop
80103300:	8fc20000 	lw	v0,0(s8)
80103304:	34420008 	ori	v0,v0,0x8
80103308:	afc20000 	sw	v0,0(s8)
8010330c:	8fc2001c 	lw	v0,28(s8)
80103310:	90420019 	lbu	v0,25(v0)
80103314:	00401825 	move	v1,v0
80103318:	8fc20004 	lw	v0,4(s8)
8010331c:	ac430000 	sw	v1,0(v0)
80103320:	8fc2001c 	lw	v0,28(s8)
80103324:	8c430000 	lw	v1,0(v0)
80103328:	24020001 	li	v0,1
8010332c:	14620004 	bne	v1,v0,80103340 <UART_RS485Config+0xe4>
80103330:	00000000 	nop
80103334:	8fc20000 	lw	v0,0(s8)
80103338:	34420001 	ori	v0,v0,0x1
8010333c:	afc20000 	sw	v0,0(s8)
80103340:	8fc2001c 	lw	v0,28(s8)
80103344:	8c430008 	lw	v1,8(v0)
80103348:	24020001 	li	v0,1
8010334c:	14620009 	bne	v1,v0,80103374 <UART_RS485Config+0x118>
80103350:	00000000 	nop
80103354:	8fc20000 	lw	v0,0(s8)
80103358:	34420004 	ori	v0,v0,0x4
8010335c:	afc20000 	sw	v0,0(s8)
80103360:	8fc2001c 	lw	v0,28(s8)
80103364:	90420018 	lbu	v0,24(v0)
80103368:	00401825 	move	v1,v0
8010336c:	8fc20008 	lw	v0,8(s8)
80103370:	ac430000 	sw	v1,0(v0)
80103374:	8fc2001c 	lw	v0,28(s8)
80103378:	8c420004 	lw	v0,4(v0)
8010337c:	14400004 	bnez	v0,80103390 <UART_RS485Config+0x134>
80103380:	00000000 	nop
80103384:	8fc20000 	lw	v0,0(s8)
80103388:	34420002 	ori	v0,v0,0x2
8010338c:	afc20000 	sw	v0,0(s8)
80103390:	8fc20000 	lw	v0,0(s8)
80103394:	3043003f 	andi	v1,v0,0x3f
80103398:	8fc2000c 	lw	v0,12(s8)
8010339c:	ac430000 	sw	v1,0(v0)
801033a0:	00000000 	nop
801033a4:	03c0e825 	move	sp,s8
801033a8:	8fbe0014 	lw	s8,20(sp)
801033ac:	27bd0018 	addiu	sp,sp,24
801033b0:	03e00008 	jr	ra
801033b4:	00000000 	nop

801033b8 <UART_RS485ReceiverCmd>:
UART_RS485ReceiverCmd():
801033b8:	27bdfff8 	addiu	sp,sp,-8
801033bc:	afbe0004 	sw	s8,4(sp)
801033c0:	03a0f025 	move	s8,sp
801033c4:	afc40008 	sw	a0,8(s8)
801033c8:	afc5000c 	sw	a1,12(s8)
801033cc:	8fc3000c 	lw	v1,12(s8)
801033d0:	24020001 	li	v0,1
801033d4:	14620009 	bne	v1,v0,801033fc <UART_RS485ReceiverCmd+0x44>
801033d8:	00000000 	nop
801033dc:	8fc20008 	lw	v0,8(s8)
801033e0:	8c420080 	lw	v0,128(v0)
801033e4:	7c020844 	ins	v0,zero,0x1,0x1
801033e8:	00401825 	move	v1,v0
801033ec:	8fc20008 	lw	v0,8(s8)
801033f0:	ac430080 	sw	v1,128(v0)
801033f4:	10000006 	b	80103410 <UART_RS485ReceiverCmd+0x58>
801033f8:	00000000 	nop
801033fc:	8fc20008 	lw	v0,8(s8)
80103400:	8c420080 	lw	v0,128(v0)
80103404:	34430002 	ori	v1,v0,0x2
80103408:	8fc20008 	lw	v0,8(s8)
8010340c:	ac430080 	sw	v1,128(v0)
80103410:	00000000 	nop
80103414:	03c0e825 	move	sp,s8
80103418:	8fbe0004 	lw	s8,4(sp)
8010341c:	27bd0008 	addiu	sp,sp,8
80103420:	03e00008 	jr	ra
80103424:	00000000 	nop

80103428 <UART_RS485Send>:
UART_RS485Send():
80103428:	27bdffe0 	addiu	sp,sp,-32
8010342c:	afbf001c 	sw	ra,28(sp)
80103430:	afbe0018 	sw	s8,24(sp)
80103434:	03a0f025 	move	s8,sp
80103438:	afc40020 	sw	a0,32(s8)
8010343c:	afc50024 	sw	a1,36(s8)
80103440:	afc60028 	sw	a2,40(s8)
80103444:	00e01025 	move	v0,a3
80103448:	a3c2002c 	sb	v0,44(s8)
8010344c:	93c2002c 	lbu	v0,44(s8)
80103450:	10400020 	beqz	v0,801034d4 <UART_RS485Send+0xac>
80103454:	00000000 	nop
80103458:	8fc20020 	lw	v0,32(s8)
8010345c:	8c420004 	lw	v0,4(v0)
80103460:	a3c20010 	sb	v0,16(s8)
80103464:	93c20010 	lbu	v0,16(s8)
80103468:	7c0228c4 	ins	v0,zero,0x3,0x3
8010346c:	a3c20010 	sb	v0,16(s8)
80103470:	93c20010 	lbu	v0,16(s8)
80103474:	34420018 	ori	v0,v0,0x18
80103478:	a3c20010 	sb	v0,16(s8)
8010347c:	93c30010 	lbu	v1,16(s8)
80103480:	8fc20020 	lw	v0,32(s8)
80103484:	ac430004 	sw	v1,4(v0)
80103488:	8fc60028 	lw	a2,40(s8)
8010348c:	8fc50024 	lw	a1,36(s8)
80103490:	8fc40020 	lw	a0,32(s8)
80103494:	0c040b8a 	jal	80102e28 <UART_BlockPutChars>
80103498:	00000000 	nop
8010349c:	00000000 	nop
801034a0:	8fc20020 	lw	v0,32(s8)
801034a4:	8c42002c 	lw	v0,44(v0)
801034a8:	30420008 	andi	v0,v0,0x8
801034ac:	1040fffc 	beqz	v0,801034a0 <UART_RS485Send+0x78>
801034b0:	00000000 	nop
801034b4:	93c20010 	lbu	v0,16(s8)
801034b8:	7c0228c4 	ins	v0,zero,0x3,0x3
801034bc:	a3c20010 	sb	v0,16(s8)
801034c0:	93c20010 	lbu	v0,16(s8)
801034c4:	34420010 	ori	v0,v0,0x10
801034c8:	a3c20010 	sb	v0,16(s8)
801034cc:	10000018 	b	80103530 <UART_RS485Send+0x108>
801034d0:	00000000 	nop
801034d4:	8fc20020 	lw	v0,32(s8)
801034d8:	8c420004 	lw	v0,4(v0)
801034dc:	a3c20010 	sb	v0,16(s8)
801034e0:	93c20010 	lbu	v0,16(s8)
801034e4:	7c0228c4 	ins	v0,zero,0x3,0x3
801034e8:	a3c20010 	sb	v0,16(s8)
801034ec:	93c20010 	lbu	v0,16(s8)
801034f0:	34420010 	ori	v0,v0,0x10
801034f4:	a3c20010 	sb	v0,16(s8)
801034f8:	93c30010 	lbu	v1,16(s8)
801034fc:	8fc20020 	lw	v0,32(s8)
80103500:	ac430004 	sw	v1,4(v0)
80103504:	8fc60028 	lw	a2,40(s8)
80103508:	8fc50024 	lw	a1,36(s8)
8010350c:	8fc40020 	lw	a0,32(s8)
80103510:	0c040b8a 	jal	80102e28 <UART_BlockPutChars>
80103514:	00000000 	nop
80103518:	00000000 	nop
8010351c:	8fc20020 	lw	v0,32(s8)
80103520:	8c42002c 	lw	v0,44(v0)
80103524:	30420008 	andi	v0,v0,0x8
80103528:	1040fffc 	beqz	v0,8010351c <UART_RS485Send+0xf4>
8010352c:	00000000 	nop
80103530:	00000000 	nop
80103534:	03c0e825 	move	sp,s8
80103538:	8fbf001c 	lw	ra,28(sp)
8010353c:	8fbe0018 	lw	s8,24(sp)
80103540:	27bd0020 	addiu	sp,sp,32
80103544:	03e00008 	jr	ra
80103548:	00000000 	nop

8010354c <UART_RS485SendSlvAddr>:
UART_RS485SendSlvAddr():
8010354c:	27bdffe8 	addiu	sp,sp,-24
80103550:	afbf0014 	sw	ra,20(sp)
80103554:	afbe0010 	sw	s8,16(sp)
80103558:	03a0f025 	move	s8,sp
8010355c:	afc40018 	sw	a0,24(s8)
80103560:	00a01025 	move	v0,a1
80103564:	a3c2001c 	sb	v0,28(s8)
80103568:	27c2001c 	addiu	v0,s8,28
8010356c:	24070001 	li	a3,1
80103570:	24060001 	li	a2,1
80103574:	00402825 	move	a1,v0
80103578:	8fc40018 	lw	a0,24(s8)
8010357c:	0c040d0a 	jal	80103428 <UART_RS485Send>
80103580:	00000000 	nop
80103584:	00000000 	nop
80103588:	03c0e825 	move	sp,s8
8010358c:	8fbf0014 	lw	ra,20(sp)
80103590:	8fbe0010 	lw	s8,16(sp)
80103594:	27bd0018 	addiu	sp,sp,24
80103598:	03e00008 	jr	ra
8010359c:	00000000 	nop

801035a0 <UART_RS485SendData>:
UART_RS485SendData():
801035a0:	27bdffe8 	addiu	sp,sp,-24
801035a4:	afbf0014 	sw	ra,20(sp)
801035a8:	afbe0010 	sw	s8,16(sp)
801035ac:	03a0f025 	move	s8,sp
801035b0:	afc40018 	sw	a0,24(s8)
801035b4:	afc5001c 	sw	a1,28(s8)
801035b8:	afc60020 	sw	a2,32(s8)
801035bc:	00003825 	move	a3,zero
801035c0:	8fc60020 	lw	a2,32(s8)
801035c4:	8fc5001c 	lw	a1,28(s8)
801035c8:	8fc40018 	lw	a0,24(s8)
801035cc:	0c040d0a 	jal	80103428 <UART_RS485Send>
801035d0:	00000000 	nop
801035d4:	00000000 	nop
801035d8:	03c0e825 	move	sp,s8
801035dc:	8fbf0014 	lw	ra,20(sp)
801035e0:	8fbe0010 	lw	s8,16(sp)
801035e4:	27bd0018 	addiu	sp,sp,24
801035e8:	03e00008 	jr	ra
801035ec:	00000000 	nop

801035f0 <GPIO_DirModeSet>:
GPIO_DirModeSet():
801035f0:	27bdfff0 	addiu	sp,sp,-16
801035f4:	afbe000c 	sw	s8,12(sp)
801035f8:	03a0f025 	move	s8,sp
801035fc:	afc40010 	sw	a0,16(s8)
80103600:	afc50014 	sw	a1,20(s8)
80103604:	afc60018 	sw	a2,24(s8)
80103608:	3c028012 	lui	v0,0x8012
8010360c:	8fc30010 	lw	v1,16(s8)
80103610:	00031880 	sll	v1,v1,0x2
80103614:	244200cc 	addiu	v0,v0,204
80103618:	00621021 	addu	v0,v1,v0
8010361c:	8c420000 	lw	v0,0(v0)
80103620:	afc20000 	sw	v0,0(s8)
80103624:	8fc20000 	lw	v0,0(s8)
80103628:	24030001 	li	v1,1
8010362c:	ac430520 	sw	v1,1312(v0)
80103630:	8fc20000 	lw	v0,0(s8)
80103634:	3c034c4f 	lui	v1,0x4c4f
80103638:	3463434b 	ori	v1,v1,0x434b
8010363c:	ac430520 	sw	v1,1312(v0)
80103640:	8fc20000 	lw	v0,0(s8)
80103644:	8c430524 	lw	v1,1316(v0)
80103648:	8fc20014 	lw	v0,20(s8)
8010364c:	00621825 	or	v1,v1,v0
80103650:	8fc20000 	lw	v0,0(s8)
80103654:	ac430524 	sw	v1,1316(v0)
80103658:	8fc20018 	lw	v0,24(s8)
8010365c:	30420001 	andi	v0,v0,0x1
80103660:	10400007 	beqz	v0,80103680 <GPIO_DirModeSet+0x90>
80103664:	00000000 	nop
80103668:	8fc20000 	lw	v0,0(s8)
8010366c:	8c430400 	lw	v1,1024(v0)
80103670:	8fc20014 	lw	v0,20(s8)
80103674:	00621025 	or	v0,v1,v0
80103678:	10000006 	b	80103694 <GPIO_DirModeSet+0xa4>
8010367c:	00000000 	nop
80103680:	8fc20000 	lw	v0,0(s8)
80103684:	8c430400 	lw	v1,1024(v0)
80103688:	8fc20014 	lw	v0,20(s8)
8010368c:	00021027 	nor	v0,zero,v0
80103690:	00621024 	and	v0,v1,v0
80103694:	8fc30000 	lw	v1,0(s8)
80103698:	ac620400 	sw	v0,1024(v1)
8010369c:	8fc20018 	lw	v0,24(s8)
801036a0:	30420002 	andi	v0,v0,0x2
801036a4:	10400007 	beqz	v0,801036c4 <GPIO_DirModeSet+0xd4>
801036a8:	00000000 	nop
801036ac:	8fc20000 	lw	v0,0(s8)
801036b0:	8c430420 	lw	v1,1056(v0)
801036b4:	8fc20014 	lw	v0,20(s8)
801036b8:	00621025 	or	v0,v1,v0
801036bc:	10000006 	b	801036d8 <GPIO_DirModeSet+0xe8>
801036c0:	00000000 	nop
801036c4:	8fc20000 	lw	v0,0(s8)
801036c8:	8c430420 	lw	v1,1056(v0)
801036cc:	8fc20014 	lw	v0,20(s8)
801036d0:	00021027 	nor	v0,zero,v0
801036d4:	00621024 	and	v0,v1,v0
801036d8:	8fc30000 	lw	v1,0(s8)
801036dc:	ac620420 	sw	v0,1056(v1)
801036e0:	00000000 	nop
801036e4:	03c0e825 	move	sp,s8
801036e8:	8fbe000c 	lw	s8,12(sp)
801036ec:	27bd0010 	addiu	sp,sp,16
801036f0:	03e00008 	jr	ra
801036f4:	00000000 	nop

801036f8 <GPIODirModeGet>:
GPIODirModeGet():
801036f8:	27bdffe8 	addiu	sp,sp,-24
801036fc:	afbe0014 	sw	s8,20(sp)
80103700:	03a0f025 	move	s8,sp
80103704:	afc40018 	sw	a0,24(s8)
80103708:	00a01025 	move	v0,a1
8010370c:	a3c2001c 	sb	v0,28(s8)
80103710:	3c028012 	lui	v0,0x8012
80103714:	8fc30018 	lw	v1,24(s8)
80103718:	00031880 	sll	v1,v1,0x2
8010371c:	244200cc 	addiu	v0,v0,204
80103720:	00621021 	addu	v0,v1,v0
80103724:	8c420000 	lw	v0,0(v0)
80103728:	afc20000 	sw	v0,0(s8)
8010372c:	93c2001c 	lbu	v0,28(s8)
80103730:	24030001 	li	v1,1
80103734:	00431004 	sllv	v0,v1,v0
80103738:	a3c2001c 	sb	v0,28(s8)
8010373c:	8fc20000 	lw	v0,0(s8)
80103740:	8c420400 	lw	v0,1024(v0)
80103744:	afc20004 	sw	v0,4(s8)
80103748:	8fc20000 	lw	v0,0(s8)
8010374c:	8c420420 	lw	v0,1056(v0)
80103750:	afc20008 	sw	v0,8(s8)
80103754:	93c3001c 	lbu	v1,28(s8)
80103758:	8fc20004 	lw	v0,4(s8)
8010375c:	00621024 	and	v0,v1,v0
80103760:	0002102b 	sltu	v0,zero,v0
80103764:	304200ff 	andi	v0,v0,0xff
80103768:	00402025 	move	a0,v0
8010376c:	93c3001c 	lbu	v1,28(s8)
80103770:	8fc20008 	lw	v0,8(s8)
80103774:	00621024 	and	v0,v1,v0
80103778:	10400004 	beqz	v0,8010378c <GPIODirModeGet+0x94>
8010377c:	00000000 	nop
80103780:	24020002 	li	v0,2
80103784:	10000002 	b	80103790 <GPIODirModeGet+0x98>
80103788:	00000000 	nop
8010378c:	00001025 	move	v0,zero
80103790:	00441025 	or	v0,v0,a0
80103794:	03c0e825 	move	sp,s8
80103798:	8fbe0014 	lw	s8,20(sp)
8010379c:	27bd0018 	addiu	sp,sp,24
801037a0:	03e00008 	jr	ra
801037a4:	00000000 	nop

801037a8 <GPIO_IntTypeSet>:
GPIO_IntTypeSet():
801037a8:	27bdfff0 	addiu	sp,sp,-16
801037ac:	afbe000c 	sw	s8,12(sp)
801037b0:	03a0f025 	move	s8,sp
801037b4:	afc40010 	sw	a0,16(s8)
801037b8:	00a01025 	move	v0,a1
801037bc:	afc60018 	sw	a2,24(s8)
801037c0:	a3c20014 	sb	v0,20(s8)
801037c4:	3c028012 	lui	v0,0x8012
801037c8:	8fc30010 	lw	v1,16(s8)
801037cc:	00031880 	sll	v1,v1,0x2
801037d0:	244200cc 	addiu	v0,v0,204
801037d4:	00621021 	addu	v0,v1,v0
801037d8:	8c420000 	lw	v0,0(v0)
801037dc:	afc20000 	sw	v0,0(s8)
801037e0:	8fc20018 	lw	v0,24(s8)
801037e4:	30420001 	andi	v0,v0,0x1
801037e8:	10400007 	beqz	v0,80103808 <GPIO_IntTypeSet+0x60>
801037ec:	00000000 	nop
801037f0:	8fc20000 	lw	v0,0(s8)
801037f4:	8c430408 	lw	v1,1032(v0)
801037f8:	93c20014 	lbu	v0,20(s8)
801037fc:	00621025 	or	v0,v1,v0
80103800:	10000006 	b	8010381c <GPIO_IntTypeSet+0x74>
80103804:	00000000 	nop
80103808:	8fc20000 	lw	v0,0(s8)
8010380c:	8c420408 	lw	v0,1032(v0)
80103810:	93c30014 	lbu	v1,20(s8)
80103814:	00031827 	nor	v1,zero,v1
80103818:	00431024 	and	v0,v0,v1
8010381c:	8fc30000 	lw	v1,0(s8)
80103820:	ac620408 	sw	v0,1032(v1)
80103824:	8fc20018 	lw	v0,24(s8)
80103828:	30420004 	andi	v0,v0,0x4
8010382c:	10400007 	beqz	v0,8010384c <GPIO_IntTypeSet+0xa4>
80103830:	00000000 	nop
80103834:	8fc20000 	lw	v0,0(s8)
80103838:	8c43040c 	lw	v1,1036(v0)
8010383c:	93c20014 	lbu	v0,20(s8)
80103840:	00621025 	or	v0,v1,v0
80103844:	10000006 	b	80103860 <GPIO_IntTypeSet+0xb8>
80103848:	00000000 	nop
8010384c:	8fc20000 	lw	v0,0(s8)
80103850:	8c42040c 	lw	v0,1036(v0)
80103854:	93c30014 	lbu	v1,20(s8)
80103858:	00031827 	nor	v1,zero,v1
8010385c:	00431024 	and	v0,v0,v1
80103860:	8fc30000 	lw	v1,0(s8)
80103864:	ac62040c 	sw	v0,1036(v1)
80103868:	8fc20018 	lw	v0,24(s8)
8010386c:	30420002 	andi	v0,v0,0x2
80103870:	10400007 	beqz	v0,80103890 <GPIO_IntTypeSet+0xe8>
80103874:	00000000 	nop
80103878:	8fc20000 	lw	v0,0(s8)
8010387c:	8c430404 	lw	v1,1028(v0)
80103880:	93c20014 	lbu	v0,20(s8)
80103884:	00621025 	or	v0,v1,v0
80103888:	10000006 	b	801038a4 <GPIO_IntTypeSet+0xfc>
8010388c:	00000000 	nop
80103890:	8fc20000 	lw	v0,0(s8)
80103894:	8c420404 	lw	v0,1028(v0)
80103898:	93c30014 	lbu	v1,20(s8)
8010389c:	00031827 	nor	v1,zero,v1
801038a0:	00431024 	and	v0,v0,v1
801038a4:	8fc30000 	lw	v1,0(s8)
801038a8:	ac620404 	sw	v0,1028(v1)
801038ac:	00000000 	nop
801038b0:	03c0e825 	move	sp,s8
801038b4:	8fbe000c 	lw	s8,12(sp)
801038b8:	27bd0010 	addiu	sp,sp,16
801038bc:	03e00008 	jr	ra
801038c0:	00000000 	nop

801038c4 <GPIO_IntTypeGet>:
GPIO_IntTypeGet():
801038c4:	27bdffe8 	addiu	sp,sp,-24
801038c8:	afbe0014 	sw	s8,20(sp)
801038cc:	03a0f025 	move	s8,sp
801038d0:	afc40018 	sw	a0,24(s8)
801038d4:	00a01025 	move	v0,a1
801038d8:	a3c2001c 	sb	v0,28(s8)
801038dc:	3c028012 	lui	v0,0x8012
801038e0:	8fc30018 	lw	v1,24(s8)
801038e4:	00031880 	sll	v1,v1,0x2
801038e8:	244200cc 	addiu	v0,v0,204
801038ec:	00621021 	addu	v0,v1,v0
801038f0:	8c420000 	lw	v0,0(v0)
801038f4:	afc20000 	sw	v0,0(s8)
801038f8:	93c2001c 	lbu	v0,28(s8)
801038fc:	24030001 	li	v1,1
80103900:	00431004 	sllv	v0,v1,v0
80103904:	a3c2001c 	sb	v0,28(s8)
80103908:	8fc20000 	lw	v0,0(s8)
8010390c:	8c420408 	lw	v0,1032(v0)
80103910:	afc20004 	sw	v0,4(s8)
80103914:	8fc20000 	lw	v0,0(s8)
80103918:	8c420404 	lw	v0,1028(v0)
8010391c:	afc20008 	sw	v0,8(s8)
80103920:	8fc20000 	lw	v0,0(s8)
80103924:	8c42040c 	lw	v0,1036(v0)
80103928:	afc2000c 	sw	v0,12(s8)
8010392c:	93c3001c 	lbu	v1,28(s8)
80103930:	8fc20004 	lw	v0,4(s8)
80103934:	00621024 	and	v0,v1,v0
80103938:	0002102b 	sltu	v0,zero,v0
8010393c:	304200ff 	andi	v0,v0,0xff
80103940:	00402025 	move	a0,v0
80103944:	93c3001c 	lbu	v1,28(s8)
80103948:	8fc20008 	lw	v0,8(s8)
8010394c:	00621024 	and	v0,v1,v0
80103950:	10400004 	beqz	v0,80103964 <GPIO_IntTypeGet+0xa0>
80103954:	00000000 	nop
80103958:	24020002 	li	v0,2
8010395c:	10000002 	b	80103968 <GPIO_IntTypeGet+0xa4>
80103960:	00000000 	nop
80103964:	00001025 	move	v0,zero
80103968:	00441825 	or	v1,v0,a0
8010396c:	93c4001c 	lbu	a0,28(s8)
80103970:	8fc2000c 	lw	v0,12(s8)
80103974:	00821024 	and	v0,a0,v0
80103978:	10400004 	beqz	v0,8010398c <GPIO_IntTypeGet+0xc8>
8010397c:	00000000 	nop
80103980:	24020004 	li	v0,4
80103984:	10000002 	b	80103990 <GPIO_IntTypeGet+0xcc>
80103988:	00000000 	nop
8010398c:	00001025 	move	v0,zero
80103990:	00431025 	or	v0,v0,v1
80103994:	03c0e825 	move	sp,s8
80103998:	8fbe0014 	lw	s8,20(sp)
8010399c:	27bd0018 	addiu	sp,sp,24
801039a0:	03e00008 	jr	ra
801039a4:	00000000 	nop

801039a8 <GPIO_PadConfigSet>:
GPIO_PadConfigSet():
801039a8:	27bdfff0 	addiu	sp,sp,-16
801039ac:	afbe000c 	sw	s8,12(sp)
801039b0:	03a0f025 	move	s8,sp
801039b4:	afc40010 	sw	a0,16(s8)
801039b8:	afc50014 	sw	a1,20(s8)
801039bc:	afc60018 	sw	a2,24(s8)
801039c0:	afc7001c 	sw	a3,28(s8)
801039c4:	3c028012 	lui	v0,0x8012
801039c8:	8fc30010 	lw	v1,16(s8)
801039cc:	00031880 	sll	v1,v1,0x2
801039d0:	244200cc 	addiu	v0,v0,204
801039d4:	00621021 	addu	v0,v1,v0
801039d8:	8c420000 	lw	v0,0(v0)
801039dc:	afc20000 	sw	v0,0(s8)
801039e0:	8fc20018 	lw	v0,24(s8)
801039e4:	30420001 	andi	v0,v0,0x1
801039e8:	10400007 	beqz	v0,80103a08 <GPIO_PadConfigSet+0x60>
801039ec:	00000000 	nop
801039f0:	8fc20000 	lw	v0,0(s8)
801039f4:	8c430500 	lw	v1,1280(v0)
801039f8:	8fc20014 	lw	v0,20(s8)
801039fc:	00621025 	or	v0,v1,v0
80103a00:	10000006 	b	80103a1c <GPIO_PadConfigSet+0x74>
80103a04:	00000000 	nop
80103a08:	8fc20000 	lw	v0,0(s8)
80103a0c:	8c430500 	lw	v1,1280(v0)
80103a10:	8fc20014 	lw	v0,20(s8)
80103a14:	00021027 	nor	v0,zero,v0
80103a18:	00621024 	and	v0,v1,v0
80103a1c:	8fc30000 	lw	v1,0(s8)
80103a20:	ac620500 	sw	v0,1280(v1)
80103a24:	8fc20018 	lw	v0,24(s8)
80103a28:	30420002 	andi	v0,v0,0x2
80103a2c:	10400007 	beqz	v0,80103a4c <GPIO_PadConfigSet+0xa4>
80103a30:	00000000 	nop
80103a34:	8fc20000 	lw	v0,0(s8)
80103a38:	8c430504 	lw	v1,1284(v0)
80103a3c:	8fc20014 	lw	v0,20(s8)
80103a40:	00621025 	or	v0,v1,v0
80103a44:	10000006 	b	80103a60 <GPIO_PadConfigSet+0xb8>
80103a48:	00000000 	nop
80103a4c:	8fc20000 	lw	v0,0(s8)
80103a50:	8c430504 	lw	v1,1284(v0)
80103a54:	8fc20014 	lw	v0,20(s8)
80103a58:	00021027 	nor	v0,zero,v0
80103a5c:	00621024 	and	v0,v1,v0
80103a60:	8fc30000 	lw	v1,0(s8)
80103a64:	ac620504 	sw	v0,1284(v1)
80103a68:	8fc20018 	lw	v0,24(s8)
80103a6c:	30420004 	andi	v0,v0,0x4
80103a70:	10400007 	beqz	v0,80103a90 <GPIO_PadConfigSet+0xe8>
80103a74:	00000000 	nop
80103a78:	8fc20000 	lw	v0,0(s8)
80103a7c:	8c430508 	lw	v1,1288(v0)
80103a80:	8fc20014 	lw	v0,20(s8)
80103a84:	00621025 	or	v0,v1,v0
80103a88:	10000006 	b	80103aa4 <GPIO_PadConfigSet+0xfc>
80103a8c:	00000000 	nop
80103a90:	8fc20000 	lw	v0,0(s8)
80103a94:	8c430508 	lw	v1,1288(v0)
80103a98:	8fc20014 	lw	v0,20(s8)
80103a9c:	00021027 	nor	v0,zero,v0
80103aa0:	00621024 	and	v0,v1,v0
80103aa4:	8fc30000 	lw	v1,0(s8)
80103aa8:	ac620508 	sw	v0,1288(v1)
80103aac:	8fc2001c 	lw	v0,28(s8)
80103ab0:	30420001 	andi	v0,v0,0x1
80103ab4:	10400007 	beqz	v0,80103ad4 <GPIO_PadConfigSet+0x12c>
80103ab8:	00000000 	nop
80103abc:	8fc20000 	lw	v0,0(s8)
80103ac0:	8c43050c 	lw	v1,1292(v0)
80103ac4:	8fc20014 	lw	v0,20(s8)
80103ac8:	00621025 	or	v0,v1,v0
80103acc:	10000006 	b	80103ae8 <GPIO_PadConfigSet+0x140>
80103ad0:	00000000 	nop
80103ad4:	8fc20000 	lw	v0,0(s8)
80103ad8:	8c43050c 	lw	v1,1292(v0)
80103adc:	8fc20014 	lw	v0,20(s8)
80103ae0:	00021027 	nor	v0,zero,v0
80103ae4:	00621024 	and	v0,v1,v0
80103ae8:	8fc30000 	lw	v1,0(s8)
80103aec:	ac62050c 	sw	v0,1292(v1)
80103af0:	8fc2001c 	lw	v0,28(s8)
80103af4:	30420002 	andi	v0,v0,0x2
80103af8:	10400007 	beqz	v0,80103b18 <GPIO_PadConfigSet+0x170>
80103afc:	00000000 	nop
80103b00:	8fc20000 	lw	v0,0(s8)
80103b04:	8c430510 	lw	v1,1296(v0)
80103b08:	8fc20014 	lw	v0,20(s8)
80103b0c:	00621025 	or	v0,v1,v0
80103b10:	10000006 	b	80103b2c <GPIO_PadConfigSet+0x184>
80103b14:	00000000 	nop
80103b18:	8fc20000 	lw	v0,0(s8)
80103b1c:	8c430510 	lw	v1,1296(v0)
80103b20:	8fc20014 	lw	v0,20(s8)
80103b24:	00021027 	nor	v0,zero,v0
80103b28:	00621024 	and	v0,v1,v0
80103b2c:	8fc30000 	lw	v1,0(s8)
80103b30:	ac620510 	sw	v0,1296(v1)
80103b34:	8fc2001c 	lw	v0,28(s8)
80103b38:	30420004 	andi	v0,v0,0x4
80103b3c:	10400007 	beqz	v0,80103b5c <GPIO_PadConfigSet+0x1b4>
80103b40:	00000000 	nop
80103b44:	8fc20000 	lw	v0,0(s8)
80103b48:	8c430514 	lw	v1,1300(v0)
80103b4c:	8fc20014 	lw	v0,20(s8)
80103b50:	00621025 	or	v0,v1,v0
80103b54:	10000006 	b	80103b70 <GPIO_PadConfigSet+0x1c8>
80103b58:	00000000 	nop
80103b5c:	8fc20000 	lw	v0,0(s8)
80103b60:	8c430514 	lw	v1,1300(v0)
80103b64:	8fc20014 	lw	v0,20(s8)
80103b68:	00021027 	nor	v0,zero,v0
80103b6c:	00621024 	and	v0,v1,v0
80103b70:	8fc30000 	lw	v1,0(s8)
80103b74:	ac620514 	sw	v0,1300(v1)
80103b78:	8fc20000 	lw	v0,0(s8)
80103b7c:	3c034c4f 	lui	v1,0x4c4f
80103b80:	3463434b 	ori	v1,v1,0x434b
80103b84:	ac430520 	sw	v1,1312(v0)
80103b88:	8fc20000 	lw	v0,0(s8)
80103b8c:	8c430524 	lw	v1,1316(v0)
80103b90:	8fc20014 	lw	v0,20(s8)
80103b94:	00621825 	or	v1,v1,v0
80103b98:	8fc20000 	lw	v0,0(s8)
80103b9c:	ac430524 	sw	v1,1316(v0)
80103ba0:	8fc2001c 	lw	v0,28(s8)
80103ba4:	30420008 	andi	v0,v0,0x8
80103ba8:	10400007 	beqz	v0,80103bc8 <GPIO_PadConfigSet+0x220>
80103bac:	00000000 	nop
80103bb0:	8fc20000 	lw	v0,0(s8)
80103bb4:	8c43051c 	lw	v1,1308(v0)
80103bb8:	8fc20014 	lw	v0,20(s8)
80103bbc:	00621025 	or	v0,v1,v0
80103bc0:	10000006 	b	80103bdc <GPIO_PadConfigSet+0x234>
80103bc4:	00000000 	nop
80103bc8:	8fc20000 	lw	v0,0(s8)
80103bcc:	8c43051c 	lw	v1,1308(v0)
80103bd0:	8fc20014 	lw	v0,20(s8)
80103bd4:	00021027 	nor	v0,zero,v0
80103bd8:	00621024 	and	v0,v1,v0
80103bdc:	8fc30000 	lw	v1,0(s8)
80103be0:	ac62051c 	sw	v0,1308(v1)
80103be4:	8fc2001c 	lw	v0,28(s8)
80103be8:	14400007 	bnez	v0,80103c08 <GPIO_PadConfigSet+0x260>
80103bec:	00000000 	nop
80103bf0:	8fc20000 	lw	v0,0(s8)
80103bf4:	8c430528 	lw	v1,1320(v0)
80103bf8:	8fc20014 	lw	v0,20(s8)
80103bfc:	00621025 	or	v0,v1,v0
80103c00:	10000006 	b	80103c1c <GPIO_PadConfigSet+0x274>
80103c04:	00000000 	nop
80103c08:	8fc20000 	lw	v0,0(s8)
80103c0c:	8c430528 	lw	v1,1320(v0)
80103c10:	8fc20014 	lw	v0,20(s8)
80103c14:	00021027 	nor	v0,zero,v0
80103c18:	00621024 	and	v0,v1,v0
80103c1c:	8fc30000 	lw	v1,0(s8)
80103c20:	ac620528 	sw	v0,1320(v1)
80103c24:	00000000 	nop
80103c28:	03c0e825 	move	sp,s8
80103c2c:	8fbe000c 	lw	s8,12(sp)
80103c30:	27bd0010 	addiu	sp,sp,16
80103c34:	03e00008 	jr	ra
80103c38:	00000000 	nop

80103c3c <GPIO_PadConfigGet>:
GPIO_PadConfigGet():
80103c3c:	27bdffe8 	addiu	sp,sp,-24
80103c40:	afbe0014 	sw	s8,20(sp)
80103c44:	03a0f025 	move	s8,sp
80103c48:	afc40018 	sw	a0,24(s8)
80103c4c:	00a01025 	move	v0,a1
80103c50:	afc60020 	sw	a2,32(s8)
80103c54:	afc70024 	sw	a3,36(s8)
80103c58:	a3c2001c 	sb	v0,28(s8)
80103c5c:	3c028012 	lui	v0,0x8012
80103c60:	8fc30018 	lw	v1,24(s8)
80103c64:	00031880 	sll	v1,v1,0x2
80103c68:	244200cc 	addiu	v0,v0,204
80103c6c:	00621021 	addu	v0,v1,v0
80103c70:	8c420000 	lw	v0,0(v0)
80103c74:	afc20000 	sw	v0,0(s8)
80103c78:	93c2001c 	lbu	v0,28(s8)
80103c7c:	24030001 	li	v1,1
80103c80:	00431004 	sllv	v0,v1,v0
80103c84:	a3c2001c 	sb	v0,28(s8)
80103c88:	8fc20000 	lw	v0,0(s8)
80103c8c:	8c430500 	lw	v1,1280(v0)
80103c90:	93c2001c 	lbu	v0,28(s8)
80103c94:	00621024 	and	v0,v1,v0
80103c98:	0002102b 	sltu	v0,zero,v0
80103c9c:	304200ff 	andi	v0,v0,0xff
80103ca0:	afc20004 	sw	v0,4(s8)
80103ca4:	8fc20000 	lw	v0,0(s8)
80103ca8:	8c430504 	lw	v1,1284(v0)
80103cac:	93c2001c 	lbu	v0,28(s8)
80103cb0:	00621024 	and	v0,v1,v0
80103cb4:	10400004 	beqz	v0,80103cc8 <GPIO_PadConfigGet+0x8c>
80103cb8:	00000000 	nop
80103cbc:	24020002 	li	v0,2
80103cc0:	10000002 	b	80103ccc <GPIO_PadConfigGet+0x90>
80103cc4:	00000000 	nop
80103cc8:	00001025 	move	v0,zero
80103ccc:	00401825 	move	v1,v0
80103cd0:	8fc20004 	lw	v0,4(s8)
80103cd4:	00431025 	or	v0,v0,v1
80103cd8:	afc20004 	sw	v0,4(s8)
80103cdc:	8fc20000 	lw	v0,0(s8)
80103ce0:	8c430508 	lw	v1,1288(v0)
80103ce4:	93c2001c 	lbu	v0,28(s8)
80103ce8:	00621024 	and	v0,v1,v0
80103cec:	10400004 	beqz	v0,80103d00 <GPIO_PadConfigGet+0xc4>
80103cf0:	00000000 	nop
80103cf4:	24020004 	li	v0,4
80103cf8:	10000002 	b	80103d04 <GPIO_PadConfigGet+0xc8>
80103cfc:	00000000 	nop
80103d00:	00001025 	move	v0,zero
80103d04:	00401825 	move	v1,v0
80103d08:	8fc20004 	lw	v0,4(s8)
80103d0c:	00431025 	or	v0,v0,v1
80103d10:	afc20004 	sw	v0,4(s8)
80103d14:	8fc20020 	lw	v0,32(s8)
80103d18:	8fc30004 	lw	v1,4(s8)
80103d1c:	ac430000 	sw	v1,0(v0)
80103d20:	8fc20000 	lw	v0,0(s8)
80103d24:	8c43050c 	lw	v1,1292(v0)
80103d28:	93c2001c 	lbu	v0,28(s8)
80103d2c:	00621024 	and	v0,v1,v0
80103d30:	0002102b 	sltu	v0,zero,v0
80103d34:	304200ff 	andi	v0,v0,0xff
80103d38:	afc20008 	sw	v0,8(s8)
80103d3c:	8fc20000 	lw	v0,0(s8)
80103d40:	8c430510 	lw	v1,1296(v0)
80103d44:	93c2001c 	lbu	v0,28(s8)
80103d48:	00621024 	and	v0,v1,v0
80103d4c:	10400004 	beqz	v0,80103d60 <GPIO_PadConfigGet+0x124>
80103d50:	00000000 	nop
80103d54:	24020002 	li	v0,2
80103d58:	10000002 	b	80103d64 <GPIO_PadConfigGet+0x128>
80103d5c:	00000000 	nop
80103d60:	00001025 	move	v0,zero
80103d64:	00401825 	move	v1,v0
80103d68:	8fc20008 	lw	v0,8(s8)
80103d6c:	00431025 	or	v0,v0,v1
80103d70:	afc20008 	sw	v0,8(s8)
80103d74:	8fc20000 	lw	v0,0(s8)
80103d78:	8c430514 	lw	v1,1300(v0)
80103d7c:	93c2001c 	lbu	v0,28(s8)
80103d80:	00621024 	and	v0,v1,v0
80103d84:	10400004 	beqz	v0,80103d98 <GPIO_PadConfigGet+0x15c>
80103d88:	00000000 	nop
80103d8c:	24020004 	li	v0,4
80103d90:	10000002 	b	80103d9c <GPIO_PadConfigGet+0x160>
80103d94:	00000000 	nop
80103d98:	00001025 	move	v0,zero
80103d9c:	00401825 	move	v1,v0
80103da0:	8fc20008 	lw	v0,8(s8)
80103da4:	00431025 	or	v0,v0,v1
80103da8:	afc20008 	sw	v0,8(s8)
80103dac:	8fc20024 	lw	v0,36(s8)
80103db0:	8fc30008 	lw	v1,8(s8)
80103db4:	ac430000 	sw	v1,0(v0)
80103db8:	00000000 	nop
80103dbc:	03c0e825 	move	sp,s8
80103dc0:	8fbe0014 	lw	s8,20(sp)
80103dc4:	27bd0018 	addiu	sp,sp,24
80103dc8:	03e00008 	jr	ra
80103dcc:	00000000 	nop

80103dd0 <GPIO_IntEnable>:
GPIO_IntEnable():
80103dd0:	27bdfff0 	addiu	sp,sp,-16
80103dd4:	afbe000c 	sw	s8,12(sp)
80103dd8:	03a0f025 	move	s8,sp
80103ddc:	afc40010 	sw	a0,16(s8)
80103de0:	afc50014 	sw	a1,20(s8)
80103de4:	3c028012 	lui	v0,0x8012
80103de8:	8fc30010 	lw	v1,16(s8)
80103dec:	00031880 	sll	v1,v1,0x2
80103df0:	244200cc 	addiu	v0,v0,204
80103df4:	00621021 	addu	v0,v1,v0
80103df8:	8c420000 	lw	v0,0(v0)
80103dfc:	afc20000 	sw	v0,0(s8)
80103e00:	8fc20000 	lw	v0,0(s8)
80103e04:	8c430410 	lw	v1,1040(v0)
80103e08:	8fc20014 	lw	v0,20(s8)
80103e0c:	00621825 	or	v1,v1,v0
80103e10:	8fc20000 	lw	v0,0(s8)
80103e14:	ac430410 	sw	v1,1040(v0)
80103e18:	00000000 	nop
80103e1c:	03c0e825 	move	sp,s8
80103e20:	8fbe000c 	lw	s8,12(sp)
80103e24:	27bd0010 	addiu	sp,sp,16
80103e28:	03e00008 	jr	ra
80103e2c:	00000000 	nop

80103e30 <GPIO_IntDisable>:
GPIO_IntDisable():
80103e30:	27bdfff0 	addiu	sp,sp,-16
80103e34:	afbe000c 	sw	s8,12(sp)
80103e38:	03a0f025 	move	s8,sp
80103e3c:	afc40010 	sw	a0,16(s8)
80103e40:	afc50014 	sw	a1,20(s8)
80103e44:	3c028012 	lui	v0,0x8012
80103e48:	8fc30010 	lw	v1,16(s8)
80103e4c:	00031880 	sll	v1,v1,0x2
80103e50:	244200cc 	addiu	v0,v0,204
80103e54:	00621021 	addu	v0,v1,v0
80103e58:	8c420000 	lw	v0,0(v0)
80103e5c:	afc20000 	sw	v0,0(s8)
80103e60:	8fc20000 	lw	v0,0(s8)
80103e64:	8c430410 	lw	v1,1040(v0)
80103e68:	8fc20014 	lw	v0,20(s8)
80103e6c:	00021027 	nor	v0,zero,v0
80103e70:	00621824 	and	v1,v1,v0
80103e74:	8fc20000 	lw	v0,0(s8)
80103e78:	ac430410 	sw	v1,1040(v0)
80103e7c:	00000000 	nop
80103e80:	03c0e825 	move	sp,s8
80103e84:	8fbe000c 	lw	s8,12(sp)
80103e88:	27bd0010 	addiu	sp,sp,16
80103e8c:	03e00008 	jr	ra
80103e90:	00000000 	nop

80103e94 <GPIO_IntStatus>:
GPIO_IntStatus():
80103e94:	27bdfff0 	addiu	sp,sp,-16
80103e98:	afbe000c 	sw	s8,12(sp)
80103e9c:	03a0f025 	move	s8,sp
80103ea0:	afc40010 	sw	a0,16(s8)
80103ea4:	afc50014 	sw	a1,20(s8)
80103ea8:	3c028012 	lui	v0,0x8012
80103eac:	8fc30010 	lw	v1,16(s8)
80103eb0:	00031880 	sll	v1,v1,0x2
80103eb4:	244200cc 	addiu	v0,v0,204
80103eb8:	00621021 	addu	v0,v1,v0
80103ebc:	8c420000 	lw	v0,0(v0)
80103ec0:	afc20000 	sw	v0,0(s8)
80103ec4:	8fc20014 	lw	v0,20(s8)
80103ec8:	10400005 	beqz	v0,80103ee0 <GPIO_IntStatus+0x4c>
80103ecc:	00000000 	nop
80103ed0:	8fc20000 	lw	v0,0(s8)
80103ed4:	8c420418 	lw	v0,1048(v0)
80103ed8:	10000003 	b	80103ee8 <GPIO_IntStatus+0x54>
80103edc:	00000000 	nop
80103ee0:	8fc20000 	lw	v0,0(s8)
80103ee4:	8c420414 	lw	v0,1044(v0)
80103ee8:	03c0e825 	move	sp,s8
80103eec:	8fbe000c 	lw	s8,12(sp)
80103ef0:	27bd0010 	addiu	sp,sp,16
80103ef4:	03e00008 	jr	ra
80103ef8:	00000000 	nop

80103efc <GPIO_IntClear>:
GPIO_IntClear():
80103efc:	27bdfff0 	addiu	sp,sp,-16
80103f00:	afbe000c 	sw	s8,12(sp)
80103f04:	03a0f025 	move	s8,sp
80103f08:	afc40010 	sw	a0,16(s8)
80103f0c:	afc50014 	sw	a1,20(s8)
80103f10:	3c028012 	lui	v0,0x8012
80103f14:	8fc30010 	lw	v1,16(s8)
80103f18:	00031880 	sll	v1,v1,0x2
80103f1c:	244200cc 	addiu	v0,v0,204
80103f20:	00621021 	addu	v0,v1,v0
80103f24:	8c420000 	lw	v0,0(v0)
80103f28:	afc20000 	sw	v0,0(s8)
80103f2c:	8fc20000 	lw	v0,0(s8)
80103f30:	8fc30014 	lw	v1,20(s8)
80103f34:	ac43041c 	sw	v1,1052(v0)
80103f38:	00000000 	nop
80103f3c:	03c0e825 	move	sp,s8
80103f40:	8fbe000c 	lw	s8,12(sp)
80103f44:	27bd0010 	addiu	sp,sp,16
80103f48:	03e00008 	jr	ra
80103f4c:	00000000 	nop

80103f50 <GPIO_PinRead>:
GPIO_PinRead():
80103f50:	27bdfff0 	addiu	sp,sp,-16
80103f54:	afbe000c 	sw	s8,12(sp)
80103f58:	03a0f025 	move	s8,sp
80103f5c:	afc40010 	sw	a0,16(s8)
80103f60:	00a01025 	move	v0,a1
80103f64:	a3c20014 	sb	v0,20(s8)
80103f68:	3c028012 	lui	v0,0x8012
80103f6c:	8fc30010 	lw	v1,16(s8)
80103f70:	00031880 	sll	v1,v1,0x2
80103f74:	244200cc 	addiu	v0,v0,204
80103f78:	00621021 	addu	v0,v1,v0
80103f7c:	8c420000 	lw	v0,0(v0)
80103f80:	afc20000 	sw	v0,0(s8)
80103f84:	93c20014 	lbu	v0,20(s8)
80103f88:	8fc30000 	lw	v1,0(s8)
80103f8c:	00021080 	sll	v0,v0,0x2
80103f90:	00621021 	addu	v0,v1,v0
80103f94:	8c420000 	lw	v0,0(v0)
80103f98:	03c0e825 	move	sp,s8
80103f9c:	8fbe000c 	lw	s8,12(sp)
80103fa0:	27bd0010 	addiu	sp,sp,16
80103fa4:	03e00008 	jr	ra
80103fa8:	00000000 	nop

80103fac <GPIO_PortRead>:
GPIO_PortRead():
80103fac:	27bdfff0 	addiu	sp,sp,-16
80103fb0:	afbe000c 	sw	s8,12(sp)
80103fb4:	03a0f025 	move	s8,sp
80103fb8:	afc40010 	sw	a0,16(s8)
80103fbc:	3c028012 	lui	v0,0x8012
80103fc0:	8fc30010 	lw	v1,16(s8)
80103fc4:	00031880 	sll	v1,v1,0x2
80103fc8:	244200cc 	addiu	v0,v0,204
80103fcc:	00621021 	addu	v0,v1,v0
80103fd0:	8c420000 	lw	v0,0(v0)
80103fd4:	afc20000 	sw	v0,0(s8)
80103fd8:	8fc20000 	lw	v0,0(s8)
80103fdc:	8c420000 	lw	v0,0(v0)
80103fe0:	03c0e825 	move	sp,s8
80103fe4:	8fbe000c 	lw	s8,12(sp)
80103fe8:	27bd0010 	addiu	sp,sp,16
80103fec:	03e00008 	jr	ra
80103ff0:	00000000 	nop

80103ff4 <GPIO_PinWrite>:
GPIO_PinWrite():
80103ff4:	27bdfff0 	addiu	sp,sp,-16
80103ff8:	afbe000c 	sw	s8,12(sp)
80103ffc:	03a0f025 	move	s8,sp
80104000:	afc40010 	sw	a0,16(s8)
80104004:	afc50014 	sw	a1,20(s8)
80104008:	afc60018 	sw	a2,24(s8)
8010400c:	3c028012 	lui	v0,0x8012
80104010:	8fc30010 	lw	v1,16(s8)
80104014:	00031880 	sll	v1,v1,0x2
80104018:	244200cc 	addiu	v0,v0,204
8010401c:	00621021 	addu	v0,v1,v0
80104020:	8c420000 	lw	v0,0(v0)
80104024:	afc20000 	sw	v0,0(s8)
80104028:	8fc30000 	lw	v1,0(s8)
8010402c:	8fc20014 	lw	v0,20(s8)
80104030:	00021080 	sll	v0,v0,0x2
80104034:	00621021 	addu	v0,v1,v0
80104038:	8fc30018 	lw	v1,24(s8)
8010403c:	ac430000 	sw	v1,0(v0)
80104040:	00000000 	nop
80104044:	03c0e825 	move	sp,s8
80104048:	8fbe000c 	lw	s8,12(sp)
8010404c:	27bd0010 	addiu	sp,sp,16
80104050:	03e00008 	jr	ra
80104054:	00000000 	nop

80104058 <GPIO_PinTypeADC>:
GPIO_PinTypeADC():
80104058:	27bdffe8 	addiu	sp,sp,-24
8010405c:	afbf0014 	sw	ra,20(sp)
80104060:	afbe0010 	sw	s8,16(sp)
80104064:	03a0f025 	move	s8,sp
80104068:	afc40018 	sw	a0,24(s8)
8010406c:	00a01025 	move	v0,a1
80104070:	a3c2001c 	sb	v0,28(s8)
80104074:	93c2001c 	lbu	v0,28(s8)
80104078:	00003025 	move	a2,zero
8010407c:	00402825 	move	a1,v0
80104080:	8fc40018 	lw	a0,24(s8)
80104084:	0c040d7c 	jal	801035f0 <GPIO_DirModeSet>
80104088:	00000000 	nop
8010408c:	93c2001c 	lbu	v0,28(s8)
80104090:	00003825 	move	a3,zero
80104094:	24060001 	li	a2,1
80104098:	00402825 	move	a1,v0
8010409c:	8fc40018 	lw	a0,24(s8)
801040a0:	0c040e6a 	jal	801039a8 <GPIO_PadConfigSet>
801040a4:	00000000 	nop
801040a8:	00000000 	nop
801040ac:	03c0e825 	move	sp,s8
801040b0:	8fbf0014 	lw	ra,20(sp)
801040b4:	8fbe0010 	lw	s8,16(sp)
801040b8:	27bd0018 	addiu	sp,sp,24
801040bc:	03e00008 	jr	ra
801040c0:	00000000 	nop

801040c4 <GPIO_PinTypeCAN>:
GPIO_PinTypeCAN():
801040c4:	27bdffe8 	addiu	sp,sp,-24
801040c8:	afbf0014 	sw	ra,20(sp)
801040cc:	afbe0010 	sw	s8,16(sp)
801040d0:	03a0f025 	move	s8,sp
801040d4:	afc40018 	sw	a0,24(s8)
801040d8:	00a01025 	move	v0,a1
801040dc:	a3c2001c 	sb	v0,28(s8)
801040e0:	93c2001c 	lbu	v0,28(s8)
801040e4:	24060002 	li	a2,2
801040e8:	00402825 	move	a1,v0
801040ec:	8fc40018 	lw	a0,24(s8)
801040f0:	0c040d7c 	jal	801035f0 <GPIO_DirModeSet>
801040f4:	00000000 	nop
801040f8:	93c2001c 	lbu	v0,28(s8)
801040fc:	24070008 	li	a3,8
80104100:	24060004 	li	a2,4
80104104:	00402825 	move	a1,v0
80104108:	8fc40018 	lw	a0,24(s8)
8010410c:	0c040e6a 	jal	801039a8 <GPIO_PadConfigSet>
80104110:	00000000 	nop
80104114:	00000000 	nop
80104118:	03c0e825 	move	sp,s8
8010411c:	8fbf0014 	lw	ra,20(sp)
80104120:	8fbe0010 	lw	s8,16(sp)
80104124:	27bd0018 	addiu	sp,sp,24
80104128:	03e00008 	jr	ra
8010412c:	00000000 	nop

80104130 <GPIO_PinTypeComparator>:
GPIO_PinTypeComparator():
80104130:	27bdffe8 	addiu	sp,sp,-24
80104134:	afbf0014 	sw	ra,20(sp)
80104138:	afbe0010 	sw	s8,16(sp)
8010413c:	03a0f025 	move	s8,sp
80104140:	afc40018 	sw	a0,24(s8)
80104144:	00a01025 	move	v0,a1
80104148:	a3c2001c 	sb	v0,28(s8)
8010414c:	93c2001c 	lbu	v0,28(s8)
80104150:	00003025 	move	a2,zero
80104154:	00402825 	move	a1,v0
80104158:	8fc40018 	lw	a0,24(s8)
8010415c:	0c040d7c 	jal	801035f0 <GPIO_DirModeSet>
80104160:	00000000 	nop
80104164:	93c2001c 	lbu	v0,28(s8)
80104168:	00003825 	move	a3,zero
8010416c:	24060001 	li	a2,1
80104170:	00402825 	move	a1,v0
80104174:	8fc40018 	lw	a0,24(s8)
80104178:	0c040e6a 	jal	801039a8 <GPIO_PadConfigSet>
8010417c:	00000000 	nop
80104180:	00000000 	nop
80104184:	03c0e825 	move	sp,s8
80104188:	8fbf0014 	lw	ra,20(sp)
8010418c:	8fbe0010 	lw	s8,16(sp)
80104190:	27bd0018 	addiu	sp,sp,24
80104194:	03e00008 	jr	ra
80104198:	00000000 	nop

8010419c <GPIO_PinTypeComparatorOutput>:
GPIO_PinTypeComparatorOutput():
8010419c:	27bdffe8 	addiu	sp,sp,-24
801041a0:	afbf0014 	sw	ra,20(sp)
801041a4:	afbe0010 	sw	s8,16(sp)
801041a8:	03a0f025 	move	s8,sp
801041ac:	afc40018 	sw	a0,24(s8)
801041b0:	00a01025 	move	v0,a1
801041b4:	a3c2001c 	sb	v0,28(s8)
801041b8:	93c2001c 	lbu	v0,28(s8)
801041bc:	24060002 	li	a2,2
801041c0:	00402825 	move	a1,v0
801041c4:	8fc40018 	lw	a0,24(s8)
801041c8:	0c040d7c 	jal	801035f0 <GPIO_DirModeSet>
801041cc:	00000000 	nop
801041d0:	93c2001c 	lbu	v0,28(s8)
801041d4:	24070008 	li	a3,8
801041d8:	24060001 	li	a2,1
801041dc:	00402825 	move	a1,v0
801041e0:	8fc40018 	lw	a0,24(s8)
801041e4:	0c040e6a 	jal	801039a8 <GPIO_PadConfigSet>
801041e8:	00000000 	nop
801041ec:	00000000 	nop
801041f0:	03c0e825 	move	sp,s8
801041f4:	8fbf0014 	lw	ra,20(sp)
801041f8:	8fbe0010 	lw	s8,16(sp)
801041fc:	27bd0018 	addiu	sp,sp,24
80104200:	03e00008 	jr	ra
80104204:	00000000 	nop

80104208 <GPIO_PinTypeDIVSCLK>:
GPIO_PinTypeDIVSCLK():
80104208:	27bdffe8 	addiu	sp,sp,-24
8010420c:	afbf0014 	sw	ra,20(sp)
80104210:	afbe0010 	sw	s8,16(sp)
80104214:	03a0f025 	move	s8,sp
80104218:	afc40018 	sw	a0,24(s8)
8010421c:	00a01025 	move	v0,a1
80104220:	a3c2001c 	sb	v0,28(s8)
80104224:	93c2001c 	lbu	v0,28(s8)
80104228:	24060002 	li	a2,2
8010422c:	00402825 	move	a1,v0
80104230:	8fc40018 	lw	a0,24(s8)
80104234:	0c040d7c 	jal	801035f0 <GPIO_DirModeSet>
80104238:	00000000 	nop
8010423c:	93c2001c 	lbu	v0,28(s8)
80104240:	24070008 	li	a3,8
80104244:	24060001 	li	a2,1
80104248:	00402825 	move	a1,v0
8010424c:	8fc40018 	lw	a0,24(s8)
80104250:	0c040e6a 	jal	801039a8 <GPIO_PadConfigSet>
80104254:	00000000 	nop
80104258:	00000000 	nop
8010425c:	03c0e825 	move	sp,s8
80104260:	8fbf0014 	lw	ra,20(sp)
80104264:	8fbe0010 	lw	s8,16(sp)
80104268:	27bd0018 	addiu	sp,sp,24
8010426c:	03e00008 	jr	ra
80104270:	00000000 	nop

80104274 <GPIO_PinTypeEPI>:
GPIO_PinTypeEPI():
80104274:	27bdffe8 	addiu	sp,sp,-24
80104278:	afbf0014 	sw	ra,20(sp)
8010427c:	afbe0010 	sw	s8,16(sp)
80104280:	03a0f025 	move	s8,sp
80104284:	afc40018 	sw	a0,24(s8)
80104288:	00a01025 	move	v0,a1
8010428c:	a3c2001c 	sb	v0,28(s8)
80104290:	93c2001c 	lbu	v0,28(s8)
80104294:	24060002 	li	a2,2
80104298:	00402825 	move	a1,v0
8010429c:	8fc40018 	lw	a0,24(s8)
801042a0:	0c040d7c 	jal	801035f0 <GPIO_DirModeSet>
801042a4:	00000000 	nop
801042a8:	93c2001c 	lbu	v0,28(s8)
801042ac:	24070008 	li	a3,8
801042b0:	24060004 	li	a2,4
801042b4:	00402825 	move	a1,v0
801042b8:	8fc40018 	lw	a0,24(s8)
801042bc:	0c040e6a 	jal	801039a8 <GPIO_PadConfigSet>
801042c0:	00000000 	nop
801042c4:	00000000 	nop
801042c8:	03c0e825 	move	sp,s8
801042cc:	8fbf0014 	lw	ra,20(sp)
801042d0:	8fbe0010 	lw	s8,16(sp)
801042d4:	27bd0018 	addiu	sp,sp,24
801042d8:	03e00008 	jr	ra
801042dc:	00000000 	nop

801042e0 <GPIO_PinTypeEthernetLED>:
GPIO_PinTypeEthernetLED():
801042e0:	27bdffe8 	addiu	sp,sp,-24
801042e4:	afbf0014 	sw	ra,20(sp)
801042e8:	afbe0010 	sw	s8,16(sp)
801042ec:	03a0f025 	move	s8,sp
801042f0:	afc40018 	sw	a0,24(s8)
801042f4:	00a01025 	move	v0,a1
801042f8:	a3c2001c 	sb	v0,28(s8)
801042fc:	93c2001c 	lbu	v0,28(s8)
80104300:	24060002 	li	a2,2
80104304:	00402825 	move	a1,v0
80104308:	8fc40018 	lw	a0,24(s8)
8010430c:	0c040d7c 	jal	801035f0 <GPIO_DirModeSet>
80104310:	00000000 	nop
80104314:	93c2001c 	lbu	v0,28(s8)
80104318:	24070008 	li	a3,8
8010431c:	24060004 	li	a2,4
80104320:	00402825 	move	a1,v0
80104324:	8fc40018 	lw	a0,24(s8)
80104328:	0c040e6a 	jal	801039a8 <GPIO_PadConfigSet>
8010432c:	00000000 	nop
80104330:	00000000 	nop
80104334:	03c0e825 	move	sp,s8
80104338:	8fbf0014 	lw	ra,20(sp)
8010433c:	8fbe0010 	lw	s8,16(sp)
80104340:	27bd0018 	addiu	sp,sp,24
80104344:	03e00008 	jr	ra
80104348:	00000000 	nop

8010434c <GPIO_PinTypeEthernetMII>:
GPIO_PinTypeEthernetMII():
8010434c:	27bdffe8 	addiu	sp,sp,-24
80104350:	afbf0014 	sw	ra,20(sp)
80104354:	afbe0010 	sw	s8,16(sp)
80104358:	03a0f025 	move	s8,sp
8010435c:	afc40018 	sw	a0,24(s8)
80104360:	00a01025 	move	v0,a1
80104364:	a3c2001c 	sb	v0,28(s8)
80104368:	93c2001c 	lbu	v0,28(s8)
8010436c:	24060002 	li	a2,2
80104370:	00402825 	move	a1,v0
80104374:	8fc40018 	lw	a0,24(s8)
80104378:	0c040d7c 	jal	801035f0 <GPIO_DirModeSet>
8010437c:	00000000 	nop
80104380:	93c2001c 	lbu	v0,28(s8)
80104384:	24070008 	li	a3,8
80104388:	24060004 	li	a2,4
8010438c:	00402825 	move	a1,v0
80104390:	8fc40018 	lw	a0,24(s8)
80104394:	0c040e6a 	jal	801039a8 <GPIO_PadConfigSet>
80104398:	00000000 	nop
8010439c:	00000000 	nop
801043a0:	03c0e825 	move	sp,s8
801043a4:	8fbf0014 	lw	ra,20(sp)
801043a8:	8fbe0010 	lw	s8,16(sp)
801043ac:	27bd0018 	addiu	sp,sp,24
801043b0:	03e00008 	jr	ra
801043b4:	00000000 	nop

801043b8 <GPIO_PinTypeGPIOInput>:
GPIO_PinTypeGPIOInput():
801043b8:	27bdffe8 	addiu	sp,sp,-24
801043bc:	afbf0014 	sw	ra,20(sp)
801043c0:	afbe0010 	sw	s8,16(sp)
801043c4:	03a0f025 	move	s8,sp
801043c8:	afc40018 	sw	a0,24(s8)
801043cc:	00a01025 	move	v0,a1
801043d0:	a3c2001c 	sb	v0,28(s8)
801043d4:	93c2001c 	lbu	v0,28(s8)
801043d8:	00003025 	move	a2,zero
801043dc:	00402825 	move	a1,v0
801043e0:	8fc40018 	lw	a0,24(s8)
801043e4:	0c040d7c 	jal	801035f0 <GPIO_DirModeSet>
801043e8:	00000000 	nop
801043ec:	93c2001c 	lbu	v0,28(s8)
801043f0:	24070008 	li	a3,8
801043f4:	24060001 	li	a2,1
801043f8:	00402825 	move	a1,v0
801043fc:	8fc40018 	lw	a0,24(s8)
80104400:	0c040e6a 	jal	801039a8 <GPIO_PadConfigSet>
80104404:	00000000 	nop
80104408:	00000000 	nop
8010440c:	03c0e825 	move	sp,s8
80104410:	8fbf0014 	lw	ra,20(sp)
80104414:	8fbe0010 	lw	s8,16(sp)
80104418:	27bd0018 	addiu	sp,sp,24
8010441c:	03e00008 	jr	ra
80104420:	00000000 	nop

80104424 <GPIO_PinTypeGPIOOutput>:
GPIO_PinTypeGPIOOutput():
80104424:	27bdffe8 	addiu	sp,sp,-24
80104428:	afbf0014 	sw	ra,20(sp)
8010442c:	afbe0010 	sw	s8,16(sp)
80104430:	03a0f025 	move	s8,sp
80104434:	afc40018 	sw	a0,24(s8)
80104438:	afc5001c 	sw	a1,28(s8)
8010443c:	24070008 	li	a3,8
80104440:	24060004 	li	a2,4
80104444:	8fc5001c 	lw	a1,28(s8)
80104448:	8fc40018 	lw	a0,24(s8)
8010444c:	0c040e6a 	jal	801039a8 <GPIO_PadConfigSet>
80104450:	00000000 	nop
80104454:	24060001 	li	a2,1
80104458:	8fc5001c 	lw	a1,28(s8)
8010445c:	8fc40018 	lw	a0,24(s8)
80104460:	0c040d7c 	jal	801035f0 <GPIO_DirModeSet>
80104464:	00000000 	nop
80104468:	00000000 	nop
8010446c:	03c0e825 	move	sp,s8
80104470:	8fbf0014 	lw	ra,20(sp)
80104474:	8fbe0010 	lw	s8,16(sp)
80104478:	27bd0018 	addiu	sp,sp,24
8010447c:	03e00008 	jr	ra
80104480:	00000000 	nop

80104484 <GPIO_PinTypeGPIOOutputOD>:
GPIO_PinTypeGPIOOutputOD():
80104484:	27bdffe8 	addiu	sp,sp,-24
80104488:	afbf0014 	sw	ra,20(sp)
8010448c:	afbe0010 	sw	s8,16(sp)
80104490:	03a0f025 	move	s8,sp
80104494:	afc40018 	sw	a0,24(s8)
80104498:	00a01025 	move	v0,a1
8010449c:	a3c2001c 	sb	v0,28(s8)
801044a0:	93c2001c 	lbu	v0,28(s8)
801044a4:	24070009 	li	a3,9
801044a8:	24060001 	li	a2,1
801044ac:	00402825 	move	a1,v0
801044b0:	8fc40018 	lw	a0,24(s8)
801044b4:	0c040e6a 	jal	801039a8 <GPIO_PadConfigSet>
801044b8:	00000000 	nop
801044bc:	93c2001c 	lbu	v0,28(s8)
801044c0:	24060001 	li	a2,1
801044c4:	00402825 	move	a1,v0
801044c8:	8fc40018 	lw	a0,24(s8)
801044cc:	0c040d7c 	jal	801035f0 <GPIO_DirModeSet>
801044d0:	00000000 	nop
801044d4:	00000000 	nop
801044d8:	03c0e825 	move	sp,s8
801044dc:	8fbf0014 	lw	ra,20(sp)
801044e0:	8fbe0010 	lw	s8,16(sp)
801044e4:	27bd0018 	addiu	sp,sp,24
801044e8:	03e00008 	jr	ra
801044ec:	00000000 	nop

801044f0 <GPIO_PinTypeHibernateRTCCLK>:
GPIO_PinTypeHibernateRTCCLK():
801044f0:	27bdffe8 	addiu	sp,sp,-24
801044f4:	afbf0014 	sw	ra,20(sp)
801044f8:	afbe0010 	sw	s8,16(sp)
801044fc:	03a0f025 	move	s8,sp
80104500:	afc40018 	sw	a0,24(s8)
80104504:	00a01025 	move	v0,a1
80104508:	a3c2001c 	sb	v0,28(s8)
8010450c:	93c2001c 	lbu	v0,28(s8)
80104510:	24060002 	li	a2,2
80104514:	00402825 	move	a1,v0
80104518:	8fc40018 	lw	a0,24(s8)
8010451c:	0c040d7c 	jal	801035f0 <GPIO_DirModeSet>
80104520:	00000000 	nop
80104524:	93c2001c 	lbu	v0,28(s8)
80104528:	24070008 	li	a3,8
8010452c:	24060001 	li	a2,1
80104530:	00402825 	move	a1,v0
80104534:	8fc40018 	lw	a0,24(s8)
80104538:	0c040e6a 	jal	801039a8 <GPIO_PadConfigSet>
8010453c:	00000000 	nop
80104540:	00000000 	nop
80104544:	03c0e825 	move	sp,s8
80104548:	8fbf0014 	lw	ra,20(sp)
8010454c:	8fbe0010 	lw	s8,16(sp)
80104550:	27bd0018 	addiu	sp,sp,24
80104554:	03e00008 	jr	ra
80104558:	00000000 	nop

8010455c <GPIO_PinTypeI2C>:
GPIO_PinTypeI2C():
8010455c:	27bdffe8 	addiu	sp,sp,-24
80104560:	afbf0014 	sw	ra,20(sp)
80104564:	afbe0010 	sw	s8,16(sp)
80104568:	03a0f025 	move	s8,sp
8010456c:	afc40018 	sw	a0,24(s8)
80104570:	00a01025 	move	v0,a1
80104574:	a3c2001c 	sb	v0,28(s8)
80104578:	93c2001c 	lbu	v0,28(s8)
8010457c:	24060002 	li	a2,2
80104580:	00402825 	move	a1,v0
80104584:	8fc40018 	lw	a0,24(s8)
80104588:	0c040d7c 	jal	801035f0 <GPIO_DirModeSet>
8010458c:	00000000 	nop
80104590:	93c2001c 	lbu	v0,28(s8)
80104594:	24070009 	li	a3,9
80104598:	24060001 	li	a2,1
8010459c:	00402825 	move	a1,v0
801045a0:	8fc40018 	lw	a0,24(s8)
801045a4:	0c040e6a 	jal	801039a8 <GPIO_PadConfigSet>
801045a8:	00000000 	nop
801045ac:	00000000 	nop
801045b0:	03c0e825 	move	sp,s8
801045b4:	8fbf0014 	lw	ra,20(sp)
801045b8:	8fbe0010 	lw	s8,16(sp)
801045bc:	27bd0018 	addiu	sp,sp,24
801045c0:	03e00008 	jr	ra
801045c4:	00000000 	nop

801045c8 <GPIO_PinTypeI2CSCL>:
GPIO_PinTypeI2CSCL():
801045c8:	27bdffe8 	addiu	sp,sp,-24
801045cc:	afbf0014 	sw	ra,20(sp)
801045d0:	afbe0010 	sw	s8,16(sp)
801045d4:	03a0f025 	move	s8,sp
801045d8:	afc40018 	sw	a0,24(s8)
801045dc:	00a01025 	move	v0,a1
801045e0:	a3c2001c 	sb	v0,28(s8)
801045e4:	93c2001c 	lbu	v0,28(s8)
801045e8:	24060002 	li	a2,2
801045ec:	00402825 	move	a1,v0
801045f0:	8fc40018 	lw	a0,24(s8)
801045f4:	0c040d7c 	jal	801035f0 <GPIO_DirModeSet>
801045f8:	00000000 	nop
801045fc:	93c2001c 	lbu	v0,28(s8)
80104600:	24070008 	li	a3,8
80104604:	24060001 	li	a2,1
80104608:	00402825 	move	a1,v0
8010460c:	8fc40018 	lw	a0,24(s8)
80104610:	0c040e6a 	jal	801039a8 <GPIO_PadConfigSet>
80104614:	00000000 	nop
80104618:	00000000 	nop
8010461c:	03c0e825 	move	sp,s8
80104620:	8fbf0014 	lw	ra,20(sp)
80104624:	8fbe0010 	lw	s8,16(sp)
80104628:	27bd0018 	addiu	sp,sp,24
8010462c:	03e00008 	jr	ra
80104630:	00000000 	nop

80104634 <GPIO_PinTypeLCD>:
GPIO_PinTypeLCD():
80104634:	27bdffe8 	addiu	sp,sp,-24
80104638:	afbf0014 	sw	ra,20(sp)
8010463c:	afbe0010 	sw	s8,16(sp)
80104640:	03a0f025 	move	s8,sp
80104644:	afc40018 	sw	a0,24(s8)
80104648:	00a01025 	move	v0,a1
8010464c:	a3c2001c 	sb	v0,28(s8)
80104650:	93c2001c 	lbu	v0,28(s8)
80104654:	24060002 	li	a2,2
80104658:	00402825 	move	a1,v0
8010465c:	8fc40018 	lw	a0,24(s8)
80104660:	0c040d7c 	jal	801035f0 <GPIO_DirModeSet>
80104664:	00000000 	nop
80104668:	93c2001c 	lbu	v0,28(s8)
8010466c:	24070008 	li	a3,8
80104670:	24060004 	li	a2,4
80104674:	00402825 	move	a1,v0
80104678:	8fc40018 	lw	a0,24(s8)
8010467c:	0c040e6a 	jal	801039a8 <GPIO_PadConfigSet>
80104680:	00000000 	nop
80104684:	00000000 	nop
80104688:	03c0e825 	move	sp,s8
8010468c:	8fbf0014 	lw	ra,20(sp)
80104690:	8fbe0010 	lw	s8,16(sp)
80104694:	27bd0018 	addiu	sp,sp,24
80104698:	03e00008 	jr	ra
8010469c:	00000000 	nop

801046a0 <GPIO_PinTypeOneWire>:
GPIO_PinTypeOneWire():
801046a0:	27bdffe8 	addiu	sp,sp,-24
801046a4:	afbf0014 	sw	ra,20(sp)
801046a8:	afbe0010 	sw	s8,16(sp)
801046ac:	03a0f025 	move	s8,sp
801046b0:	afc40018 	sw	a0,24(s8)
801046b4:	00a01025 	move	v0,a1
801046b8:	a3c2001c 	sb	v0,28(s8)
801046bc:	93c2001c 	lbu	v0,28(s8)
801046c0:	24060002 	li	a2,2
801046c4:	00402825 	move	a1,v0
801046c8:	8fc40018 	lw	a0,24(s8)
801046cc:	0c040d7c 	jal	801035f0 <GPIO_DirModeSet>
801046d0:	00000000 	nop
801046d4:	93c2001c 	lbu	v0,28(s8)
801046d8:	24070008 	li	a3,8
801046dc:	24060001 	li	a2,1
801046e0:	00402825 	move	a1,v0
801046e4:	8fc40018 	lw	a0,24(s8)
801046e8:	0c040e6a 	jal	801039a8 <GPIO_PadConfigSet>
801046ec:	00000000 	nop
801046f0:	00000000 	nop
801046f4:	03c0e825 	move	sp,s8
801046f8:	8fbf0014 	lw	ra,20(sp)
801046fc:	8fbe0010 	lw	s8,16(sp)
80104700:	27bd0018 	addiu	sp,sp,24
80104704:	03e00008 	jr	ra
80104708:	00000000 	nop

8010470c <GPIO_PinTypePWM>:
GPIO_PinTypePWM():
8010470c:	27bdffe8 	addiu	sp,sp,-24
80104710:	afbf0014 	sw	ra,20(sp)
80104714:	afbe0010 	sw	s8,16(sp)
80104718:	03a0f025 	move	s8,sp
8010471c:	afc40018 	sw	a0,24(s8)
80104720:	00a01025 	move	v0,a1
80104724:	a3c2001c 	sb	v0,28(s8)
80104728:	93c2001c 	lbu	v0,28(s8)
8010472c:	24060002 	li	a2,2
80104730:	00402825 	move	a1,v0
80104734:	8fc40018 	lw	a0,24(s8)
80104738:	0c040d7c 	jal	801035f0 <GPIO_DirModeSet>
8010473c:	00000000 	nop
80104740:	93c2001c 	lbu	v0,28(s8)
80104744:	2407000a 	li	a3,10
80104748:	24060001 	li	a2,1
8010474c:	00402825 	move	a1,v0
80104750:	8fc40018 	lw	a0,24(s8)
80104754:	0c040e6a 	jal	801039a8 <GPIO_PadConfigSet>
80104758:	00000000 	nop
8010475c:	00000000 	nop
80104760:	03c0e825 	move	sp,s8
80104764:	8fbf0014 	lw	ra,20(sp)
80104768:	8fbe0010 	lw	s8,16(sp)
8010476c:	27bd0018 	addiu	sp,sp,24
80104770:	03e00008 	jr	ra
80104774:	00000000 	nop

80104778 <GPIO_PinTypeQEI>:
GPIO_PinTypeQEI():
80104778:	27bdffe8 	addiu	sp,sp,-24
8010477c:	afbf0014 	sw	ra,20(sp)
80104780:	afbe0010 	sw	s8,16(sp)
80104784:	03a0f025 	move	s8,sp
80104788:	afc40018 	sw	a0,24(s8)
8010478c:	00a01025 	move	v0,a1
80104790:	a3c2001c 	sb	v0,28(s8)
80104794:	93c2001c 	lbu	v0,28(s8)
80104798:	24060002 	li	a2,2
8010479c:	00402825 	move	a1,v0
801047a0:	8fc40018 	lw	a0,24(s8)
801047a4:	0c040d7c 	jal	801035f0 <GPIO_DirModeSet>
801047a8:	00000000 	nop
801047ac:	93c2001c 	lbu	v0,28(s8)
801047b0:	2407000a 	li	a3,10
801047b4:	24060001 	li	a2,1
801047b8:	00402825 	move	a1,v0
801047bc:	8fc40018 	lw	a0,24(s8)
801047c0:	0c040e6a 	jal	801039a8 <GPIO_PadConfigSet>
801047c4:	00000000 	nop
801047c8:	00000000 	nop
801047cc:	03c0e825 	move	sp,s8
801047d0:	8fbf0014 	lw	ra,20(sp)
801047d4:	8fbe0010 	lw	s8,16(sp)
801047d8:	27bd0018 	addiu	sp,sp,24
801047dc:	03e00008 	jr	ra
801047e0:	00000000 	nop

801047e4 <GPIO_PinTypeSSI>:
GPIO_PinTypeSSI():
801047e4:	27bdffe8 	addiu	sp,sp,-24
801047e8:	afbf0014 	sw	ra,20(sp)
801047ec:	afbe0010 	sw	s8,16(sp)
801047f0:	03a0f025 	move	s8,sp
801047f4:	afc40018 	sw	a0,24(s8)
801047f8:	00a01025 	move	v0,a1
801047fc:	a3c2001c 	sb	v0,28(s8)
80104800:	93c2001c 	lbu	v0,28(s8)
80104804:	24060002 	li	a2,2
80104808:	00402825 	move	a1,v0
8010480c:	8fc40018 	lw	a0,24(s8)
80104810:	0c040d7c 	jal	801035f0 <GPIO_DirModeSet>
80104814:	00000000 	nop
80104818:	93c2001c 	lbu	v0,28(s8)
8010481c:	24070008 	li	a3,8
80104820:	24060001 	li	a2,1
80104824:	00402825 	move	a1,v0
80104828:	8fc40018 	lw	a0,24(s8)
8010482c:	0c040e6a 	jal	801039a8 <GPIO_PadConfigSet>
80104830:	00000000 	nop
80104834:	00000000 	nop
80104838:	03c0e825 	move	sp,s8
8010483c:	8fbf0014 	lw	ra,20(sp)
80104840:	8fbe0010 	lw	s8,16(sp)
80104844:	27bd0018 	addiu	sp,sp,24
80104848:	03e00008 	jr	ra
8010484c:	00000000 	nop

80104850 <GPIO_PinTypeTimer>:
GPIO_PinTypeTimer():
80104850:	27bdffe8 	addiu	sp,sp,-24
80104854:	afbf0014 	sw	ra,20(sp)
80104858:	afbe0010 	sw	s8,16(sp)
8010485c:	03a0f025 	move	s8,sp
80104860:	afc40018 	sw	a0,24(s8)
80104864:	00a01025 	move	v0,a1
80104868:	a3c2001c 	sb	v0,28(s8)
8010486c:	93c2001c 	lbu	v0,28(s8)
80104870:	24060002 	li	a2,2
80104874:	00402825 	move	a1,v0
80104878:	8fc40018 	lw	a0,24(s8)
8010487c:	0c040d7c 	jal	801035f0 <GPIO_DirModeSet>
80104880:	00000000 	nop
80104884:	93c2001c 	lbu	v0,28(s8)
80104888:	24070008 	li	a3,8
8010488c:	24060001 	li	a2,1
80104890:	00402825 	move	a1,v0
80104894:	8fc40018 	lw	a0,24(s8)
80104898:	0c040e6a 	jal	801039a8 <GPIO_PadConfigSet>
8010489c:	00000000 	nop
801048a0:	00000000 	nop
801048a4:	03c0e825 	move	sp,s8
801048a8:	8fbf0014 	lw	ra,20(sp)
801048ac:	8fbe0010 	lw	s8,16(sp)
801048b0:	27bd0018 	addiu	sp,sp,24
801048b4:	03e00008 	jr	ra
801048b8:	00000000 	nop

801048bc <GPIO_PinTypeTrace>:
GPIO_PinTypeTrace():
801048bc:	27bdffe8 	addiu	sp,sp,-24
801048c0:	afbf0014 	sw	ra,20(sp)
801048c4:	afbe0010 	sw	s8,16(sp)
801048c8:	03a0f025 	move	s8,sp
801048cc:	afc40018 	sw	a0,24(s8)
801048d0:	00a01025 	move	v0,a1
801048d4:	a3c2001c 	sb	v0,28(s8)
801048d8:	93c2001c 	lbu	v0,28(s8)
801048dc:	24060002 	li	a2,2
801048e0:	00402825 	move	a1,v0
801048e4:	8fc40018 	lw	a0,24(s8)
801048e8:	0c040d7c 	jal	801035f0 <GPIO_DirModeSet>
801048ec:	00000000 	nop
801048f0:	93c2001c 	lbu	v0,28(s8)
801048f4:	24070008 	li	a3,8
801048f8:	24060001 	li	a2,1
801048fc:	00402825 	move	a1,v0
80104900:	8fc40018 	lw	a0,24(s8)
80104904:	0c040e6a 	jal	801039a8 <GPIO_PadConfigSet>
80104908:	00000000 	nop
8010490c:	00000000 	nop
80104910:	03c0e825 	move	sp,s8
80104914:	8fbf0014 	lw	ra,20(sp)
80104918:	8fbe0010 	lw	s8,16(sp)
8010491c:	27bd0018 	addiu	sp,sp,24
80104920:	03e00008 	jr	ra
80104924:	00000000 	nop

80104928 <GPIO_PinTypeUART>:
GPIO_PinTypeUART():
80104928:	27bdffe8 	addiu	sp,sp,-24
8010492c:	afbf0014 	sw	ra,20(sp)
80104930:	afbe0010 	sw	s8,16(sp)
80104934:	03a0f025 	move	s8,sp
80104938:	afc40018 	sw	a0,24(s8)
8010493c:	00a01025 	move	v0,a1
80104940:	a3c2001c 	sb	v0,28(s8)
80104944:	93c2001c 	lbu	v0,28(s8)
80104948:	24060002 	li	a2,2
8010494c:	00402825 	move	a1,v0
80104950:	8fc40018 	lw	a0,24(s8)
80104954:	0c040d7c 	jal	801035f0 <GPIO_DirModeSet>
80104958:	00000000 	nop
8010495c:	93c2001c 	lbu	v0,28(s8)
80104960:	24070008 	li	a3,8
80104964:	24060001 	li	a2,1
80104968:	00402825 	move	a1,v0
8010496c:	8fc40018 	lw	a0,24(s8)
80104970:	0c040e6a 	jal	801039a8 <GPIO_PadConfigSet>
80104974:	00000000 	nop
80104978:	00000000 	nop
8010497c:	03c0e825 	move	sp,s8
80104980:	8fbf0014 	lw	ra,20(sp)
80104984:	8fbe0010 	lw	s8,16(sp)
80104988:	27bd0018 	addiu	sp,sp,24
8010498c:	03e00008 	jr	ra
80104990:	00000000 	nop

80104994 <GPIO_PinTypeUSBAnalog>:
GPIO_PinTypeUSBAnalog():
80104994:	27bdffe8 	addiu	sp,sp,-24
80104998:	afbf0014 	sw	ra,20(sp)
8010499c:	afbe0010 	sw	s8,16(sp)
801049a0:	03a0f025 	move	s8,sp
801049a4:	afc40018 	sw	a0,24(s8)
801049a8:	00a01025 	move	v0,a1
801049ac:	a3c2001c 	sb	v0,28(s8)
801049b0:	93c2001c 	lbu	v0,28(s8)
801049b4:	00003025 	move	a2,zero
801049b8:	00402825 	move	a1,v0
801049bc:	8fc40018 	lw	a0,24(s8)
801049c0:	0c040d7c 	jal	801035f0 <GPIO_DirModeSet>
801049c4:	00000000 	nop
801049c8:	93c2001c 	lbu	v0,28(s8)
801049cc:	00003825 	move	a3,zero
801049d0:	24060001 	li	a2,1
801049d4:	00402825 	move	a1,v0
801049d8:	8fc40018 	lw	a0,24(s8)
801049dc:	0c040e6a 	jal	801039a8 <GPIO_PadConfigSet>
801049e0:	00000000 	nop
801049e4:	00000000 	nop
801049e8:	03c0e825 	move	sp,s8
801049ec:	8fbf0014 	lw	ra,20(sp)
801049f0:	8fbe0010 	lw	s8,16(sp)
801049f4:	27bd0018 	addiu	sp,sp,24
801049f8:	03e00008 	jr	ra
801049fc:	00000000 	nop

80104a00 <GPIO_PinTypeUSBDigital>:
GPIO_PinTypeUSBDigital():
80104a00:	27bdffe8 	addiu	sp,sp,-24
80104a04:	afbf0014 	sw	ra,20(sp)
80104a08:	afbe0010 	sw	s8,16(sp)
80104a0c:	03a0f025 	move	s8,sp
80104a10:	afc40018 	sw	a0,24(s8)
80104a14:	00a01025 	move	v0,a1
80104a18:	a3c2001c 	sb	v0,28(s8)
80104a1c:	93c2001c 	lbu	v0,28(s8)
80104a20:	00003025 	move	a2,zero
80104a24:	00402825 	move	a1,v0
80104a28:	8fc40018 	lw	a0,24(s8)
80104a2c:	0c040d7c 	jal	801035f0 <GPIO_DirModeSet>
80104a30:	00000000 	nop
80104a34:	93c2001c 	lbu	v0,28(s8)
80104a38:	00003825 	move	a3,zero
80104a3c:	24060004 	li	a2,4
80104a40:	00402825 	move	a1,v0
80104a44:	8fc40018 	lw	a0,24(s8)
80104a48:	0c040e6a 	jal	801039a8 <GPIO_PadConfigSet>
80104a4c:	00000000 	nop
80104a50:	00000000 	nop
80104a54:	03c0e825 	move	sp,s8
80104a58:	8fbf0014 	lw	ra,20(sp)
80104a5c:	8fbe0010 	lw	s8,16(sp)
80104a60:	27bd0018 	addiu	sp,sp,24
80104a64:	03e00008 	jr	ra
80104a68:	00000000 	nop

80104a6c <GPIO_PinConfigure>:
GPIO_PinConfigure():
80104a6c:	27bdffe0 	addiu	sp,sp,-32
80104a70:	afbe001c 	sw	s8,28(sp)
80104a74:	03a0f025 	move	s8,sp
80104a78:	afc40020 	sw	a0,32(s8)
80104a7c:	8fc20020 	lw	v0,32(s8)
80104a80:	304300ff 	andi	v1,v0,0xff
80104a84:	3c02400f 	lui	v0,0x400f
80104a88:	3442ed00 	ori	v0,v0,0xed00
80104a8c:	00621021 	addu	v0,v1,v0
80104a90:	afc20000 	sw	v0,0(s8)
80104a94:	8fc20020 	lw	v0,32(s8)
80104a98:	00021702 	srl	v0,v0,0x1c
80104a9c:	afc20004 	sw	v0,4(s8)
80104aa0:	8fc20020 	lw	v0,32(s8)
80104aa4:	00021502 	srl	v0,v0,0x14
80104aa8:	304200ff 	andi	v0,v0,0xff
80104aac:	afc20008 	sw	v0,8(s8)
80104ab0:	8fc20020 	lw	v0,32(s8)
80104ab4:	00021202 	srl	v0,v0,0x8
80104ab8:	30420fff 	andi	v0,v0,0xfff
80104abc:	afc2000c 	sw	v0,12(s8)
80104ac0:	8fc20000 	lw	v0,0(s8)
80104ac4:	afc20010 	sw	v0,16(s8)
80104ac8:	8fc20010 	lw	v0,16(s8)
80104acc:	8c420000 	lw	v0,0(v0)
80104ad0:	afc20014 	sw	v0,20(s8)
80104ad4:	8fc20010 	lw	v0,16(s8)
80104ad8:	8c430000 	lw	v1,0(v0)
80104adc:	8fc4000c 	lw	a0,12(s8)
80104ae0:	8fc20008 	lw	v0,8(s8)
80104ae4:	00441004 	sllv	v0,a0,v0
80104ae8:	00021027 	nor	v0,zero,v0
80104aec:	00621824 	and	v1,v1,v0
80104af0:	8fc20010 	lw	v0,16(s8)
80104af4:	ac430000 	sw	v1,0(v0)
80104af8:	8fc20010 	lw	v0,16(s8)
80104afc:	8c420000 	lw	v0,0(v0)
80104b00:	24040001 	li	a0,1
80104b04:	8fc30004 	lw	v1,4(s8)
80104b08:	00642004 	sllv	a0,a0,v1
80104b0c:	8fc30008 	lw	v1,8(s8)
80104b10:	00641804 	sllv	v1,a0,v1
80104b14:	00431825 	or	v1,v0,v1
80104b18:	8fc20010 	lw	v0,16(s8)
80104b1c:	ac430000 	sw	v1,0(v0)
80104b20:	00000000 	nop
80104b24:	03c0e825 	move	sp,s8
80104b28:	8fbe001c 	lw	s8,28(sp)
80104b2c:	27bd0020 	addiu	sp,sp,32
80104b30:	03e00008 	jr	ra
80104b34:	00000000 	nop
