ELF Header:
  Magic:   7f 45 4c 46 01 01 01 00 00 00 00 00 00 00 00 00 
  Class:                             ELF32
  Data:                              2's complement, little endian
  Version:                           1 (current)
  OS/ABI:                            UNIX - System V
  ABI Version:                       0
  Type:                              EXEC (Executable file)
  Machine:                           RISC-V
  Version:                           0x1
  Entry point address:               0x100000
  Start of program headers:          52 (bytes into file)
  Start of section headers:          175324 (bytes into file)
  Flags:                             0x1, RVC, soft-float ABI
  Size of this header:               52 (bytes)
  Size of program headers:           32 (bytes)
  Number of program headers:         2
  Size of section headers:           40 (bytes)
  Number of section headers:         19
  Section header string table index: 18

Section Headers:
  [Nr] Name              Type            Addr     Off    Size   ES Flg Lk Inf Al
  [ 0]                   NULL            00000000 000000 000000 00      0   0  0
  [ 1] .text             PROGBITS        00100000 001000 003840 00  AX  0   0 64
  [ 2] .rodata           PROGBITS        00103840 004840 000434 00  WA  0   0  4
  [ 3] .data             PROGBITS        20120000 005000 0001c4 00  WA  0   0 64
  [ 4] .bss              NOBITS          201201c4 0051c4 00012c 00  WA  0   0  4
  [ 5] .heap             PROGBITS        201202f0 0051c8 002000 00   W  0   0  8
  [ 6] .stack_dummy      PROGBITS        201202f0 0071c8 000800 00   W  0   0  8
  [ 7] .comment          PROGBITS        00000000 0079c8 000030 01  MS  0   0  1
  [ 8] .riscv.attributes RISCV_ATTRIBUTES 00000000 0079f8 000029 00      0   0  1
  [ 9] .debug_aranges    PROGBITS        00000000 007a28 0000a0 00      0   0  8
  [10] .debug_info       PROGBITS        00000000 007ac8 002748 00      0   0  1
  [11] .debug_abbrev     PROGBITS        00000000 00a210 0009d7 00      0   0  1
  [12] .debug_line       PROGBITS        00000000 00abe7 001f9b 00      0   0  1
  [13] .debug_frame      PROGBITS        00000000 00cb84 000310 00      0   0  4
  [14] .debug_str        PROGBITS        00000000 00ce94 016986 01  MS  0   0  1
  [15] .debug_macro      PROGBITS        00000000 02381a 005cf8 00      0   0  1
  [16] .symtab           SYMTAB          00000000 029514 000c80 10     17  46  4
  [17] .strtab           STRTAB          00000000 02a194 000a8b 00      0   0  1
  [18] .shstrtab         STRTAB          00000000 02ac1f 0000bc 00      0   0  1
Key to Flags:
  W (write), A (alloc), X (execute), M (merge), S (strings), I (info),
  L (link order), O (extra OS processing required), G (group), T (TLS),
  C (compressed), x (unknown), o (OS specific), E (exclude),
  p (processor specific)

Program Headers:
  Type           Offset   VirtAddr   PhysAddr   FileSiz MemSiz  Flg Align
  LOAD           0x001000 0x00100000 0x00100000 0x03c74 0x03c74 RWE 0x1000
  LOAD           0x005000 0x20120000 0x00103c74 0x001c4 0x002f0 RW  0x1000

 Section to Segment mapping:
  Segment Sections...
   00     .text .rodata 
   01     .data .bss 

riscv_app.elf:     file format elf32-littleriscv
riscv_app.elf
architecture: riscv:rv32, flags 0x00000112:
EXEC_P, HAS_SYMS, D_PAGED
start address 0x00100000

Program Header:
    LOAD off    0x00001000 vaddr 0x00100000 paddr 0x00100000 align 2**12
         filesz 0x00003c74 memsz 0x00003c74 flags rwx
    LOAD off    0x00005000 vaddr 0x20120000 paddr 0x00103c74 align 2**12
         filesz 0x000001c4 memsz 0x000002f0 flags rw-

Sections:
Idx Name              Size      VMA       LMA       File off  Algn  Flags
  0 .text             00003840  00100000  00100000  00001000  2**6  CONTENTS, ALLOC, LOAD, READONLY, CODE
  1 .rodata           00000434  00103840  00103840  00004840  2**2  CONTENTS, ALLOC, LOAD, DATA
  2 .data             000001c4  20120000  00103c74  00005000  2**6  CONTENTS, ALLOC, LOAD, DATA
  3 .bss              0000012c  201201c4  00103e38  000051c4  2**2  ALLOC
  4 .heap             00002000  201202f0  201202f0  000051c8  2**3  CONTENTS
  5 .stack_dummy      00000800  201202f0  201202f0  000071c8  2**3  CONTENTS
  6 .comment          00000030  00000000  00000000  000079c8  2**0  CONTENTS, READONLY
  7 .riscv.attributes 00000029  00000000  00000000  000079f8  2**0  CONTENTS, READONLY
  8 .debug_aranges    000000a0  00000000  00000000  00007a28  2**3  CONTENTS, READONLY, DEBUGGING
  9 .debug_info       00002748  00000000  00000000  00007ac8  2**0  CONTENTS, READONLY, DEBUGGING
 10 .debug_abbrev     000009d7  00000000  00000000  0000a210  2**0  CONTENTS, READONLY, DEBUGGING
 11 .debug_line       00001f9b  00000000  00000000  0000abe7  2**0  CONTENTS, READONLY, DEBUGGING
 12 .debug_frame      00000310  00000000  00000000  0000cb84  2**2  CONTENTS, READONLY, DEBUGGING
 13 .debug_str        00016986  00000000  00000000  0000ce94  2**0  CONTENTS, READONLY, DEBUGGING
 14 .debug_macro      00005cf8  00000000  00000000  0002381a  2**0  CONTENTS, READONLY, DEBUGGING
SYMBOL TABLE:
00100000 l    d  .text	00000000 .text
00103840 l    d  .rodata	00000000 .rodata
20120000 l    d  .data	00000000 .data
201201c4 l    d  .bss	00000000 .bss
201202f0 l    d  .heap	00000000 .heap
201202f0 l    d  .stack_dummy	00000000 .stack_dummy
00000000 l    d  .comment	00000000 .comment
00000000 l    d  .riscv.attributes	00000000 .riscv.attributes
00000000 l    d  .debug_aranges	00000000 .debug_aranges
00000000 l    d  .debug_info	00000000 .debug_info
00000000 l    d  .debug_abbrev	00000000 .debug_abbrev
00000000 l    d  .debug_line	00000000 .debug_line
00000000 l    d  .debug_frame	00000000 .debug_frame
00000000 l    d  .debug_str	00000000 .debug_str
00000000 l    d  .debug_macro	00000000 .debug_macro
00000000 l    df *ABS*	00000000 CMakeFiles/riscv_app.elf.dir/C_/HJJ/Career/MimicMCU/demo/function_cpus/RISCV/src/startup.o
00100080 l       .text	00000000 Default_Handler
00100138 l       .text	00000000 SAVE_CONTEXT_Handler
001001f0 l       .text	00000000 PLIC_Handler
0010006c l       .text	00000000 __exit
00000000 l    df *ABS*	00000000 e906.c
00100420 l     F .text	000000f0 MemoryInit
00000000 l    df *ABS*	00000000 system.c
00100540 l     F .text	00000046 csi_vic_enable_irq
00100590 l     F .text	00000076 csi_vic_set_prio
00100610 l     F .text	00000046 csi_vic_set_shv_vector
00000000 l    df *ABS*	00000000 main.c
001038cc l     O .rodata	00000010 charmap
00100830 l     F .text	00000058 pml_printn
00000000 l    df *ABS*	00000000 work.c
00000000 l    df *ABS*	00000000 context.c
00000000 l    df *ABS*	00000000 delay.c
00000000 l    df *ABS*	00000000 driver_common.c
00000000 l    df *ABS*	00000000 irq.c
201201d4 l     O .bss	00000004 k
00000000 l    df *ABS*	00000000 plic.c
201201d8 l     O .bss	00000100 SystemExtInterruptHandlers
00101920 l     F .text	00000014 system_default_interrupt_handler
00101940 l     F .text	00000044 Interrupt_Init
00000000 l    df *ABS*	00000000 uart_print.c
00103bd0 l     O .rodata	00000010 cmap
00101e50 l     F .text	00000058 printn
00000000 l    df *ABS*	00000000 hm_uart.c
00000000 l    df *ABS*	00000000 hm_gpio.c
2012018c l     O .data	00000038 g_GpioBaseMap
00101730  w    F .text	00000016 timer0a_handler
201202f0 g       .heap	00002000 __HeapBase
00100530  w    F .text	0000000e __main
00100370 g       .text	00000000 RESTORE_REGISTER
20120000 g     O .data	00000000 __Vectors
20120188 g     O .data	00000004 g_main_clk
00103550 g     F .text	0000003e GPIO_PinTypeOneWire
00103190 g     F .text	0000003c GPIO_PinTypeADC
201202f0 g       .bss	00000000 __e_ram_bss_1
00101bb0 g     F .text	0000005e PLIC_Register_IRQ
00103410 g     F .text	0000003e GPIO_PinTypeGPIOOutputOD
00100e00 g     F .text	0000001c legitimate_callback
00102530 g     F .text	00000044 UART_BlockGetChar
00102c90 g     F .text	000001e8 GPIO_PadConfigSet
00103c74 g       .rodata	00000000 __e_rom
00102500 g     F .text	00000030 UART_PollGetChar
001017e0  w    F .text	00000088 NMI_Handler
00101770 g     F .text	0000006e IRQ_Init
00103840 g       .text	00000000 __etext
00103250 g     F .text	0000003c GPIO_PinTypeComparatorOutput
00102610 g     F .text	00000020 UART_EnableInt
00100e20 g     F .text	0000001c malicious_payload
001024e0 g     F .text	00000020 UART_PollFifoPutChar
00102480 g     F .text	00000054 UART_BlockPutChars
00102120 g     F .text	00000286 UART_Init
001016b0 g     F .text	00000056 user_handle_helper
00100f00 g     F .text	0000002a SRAM_Init
00101dd0 g     F .text	00000050 uart_stdout_init
201201c4 g     O .bss	00000004 emergency_stop_callback
001007b0 g     F .text	0000003e enable_irq
001002ec g       .text	00000000 SAVE_REGISTER
00102b20 g     F .text	000000c8 GPIO_IntTypeSet
00103710 g     F .text	0000003e GPIO_PinTypeUSBAnalog
00101480 g     F .text	00000108 PLL_Init
00103390 g     F .text	0000003c GPIO_PinTypeGPIOInput
00103590 g     F .text	0000003e GPIO_PinTypePWM
201222f0 g       .heap	00000000 __HeapLimit
00102ff0 g     F .text	00000046 GPIO_IntDisable
201201cc  w    O .bss	00000004 feedwdt
00102450 g     F .text	0000002c UART_BlockPutChar
001029d0 g     F .text	000000c4 GPIO_DirModeSet
201201c4 g       .bss	00000000 __sbss
001025b0 g     F .text	00000054 UART_WriteBytes
00101ab0 g     F .text	000000ae PLIC_Register_IRQ_Hard
00100730 g     F .text	00000044 print_clic_irq
00103790 g     F .text	000000a2 GPIO_PinConfigure
201202d8 g     O .bss	00000010 callback_table
00103450 g     F .text	0000003e GPIO_PinTypeHibernateRTCCLK
00103040 g     F .text	00000044 GPIO_IntStatus
00101b60 g     F .text	0000004c PLIC_Register_IRQ_Soft
001030d0 g     F .text	0000003c GPIO_PinRead
00101190 g     F .text	00000088 pml_stack_save
00103110 g     F .text	0000002e GPIO_PortRead
201201d0  w    O .bss	00000004 wdtnum
001035d0 g     F .text	0000003e GPIO_PinTypeQEI
001019d0 g     F .text	00000034 Interrupt_Get_ExtIRQ
00100e60 g     F .text	00000012 read_battery_voltage
00100b00 g     F .text	00000298 TestOneCPUErr
00102840 g     F .text	0000004a UART_RS485ReceiverCmd
00100000 g     F .text	0000006c Reset_Handler
001002c8 g       .text	00000000 pml_stack_restore
001026d0 g     F .text	00000020 UART_TfifoTrigger
00103c64 g     O .rodata	00000010 __Labels
00100890 g     F .text	00000262 pml_print
00100780 g     F .text	0000002e update_cliccfg
00101440 g     F .text	00000016 GetMainCLK
00102aa0 g     F .text	0000007c GPIODirModeGet
00101270 g     F .text	00000046 TellSche
00102730 g     F .text	00000104 UART_RS485Config
201202f0 g       .heap	00000000 end
00103c64 g       .rodata	00000000 __label_start__
00101050 g     F .text	00000056 pml_save_inc
00100dd0 g     F .text	0000002c register_callback
00103c74 g       *ABS*	00000000 __l_s_ram
00103510 g     F .text	0000003e GPIO_PinTypeLCD
00102630 g     F .text	00000020 UART_DisableInt
00100e40 g     F .text	0000001e set_emergency_stop_callback
201202f0 g       .bss	00000000 __end
00101000 g     F .text	0000004e pml_loc_malloc
00103840 g       .rodata	00000000 __srodata
00101c10 g     F .text	000000da PLIC_Init_Hard
00101680 g     F .text	0000002a save_context_handler
00101220 g     F .text	0000004a event_delay
201201c4 g       .data	00000000 __e_ram_data_1
001033d0 g     F .text	00000036 GPIO_PinTypeGPIOOutput
00101d40 g     F .text	00000088 uart2_init
00103090 g     F .text	00000038 GPIO_IntClear
00103c74 g       .rodata	00000000 __label_end__
00100660 g     F .text	000000c8 print_status
00101cf0 g     F .text	00000014 PLIC_Init_Soft
001034d0 g     F .text	0000003e GPIO_PinTypeI2CSCL
00103750 g     F .text	0000003e GPIO_PinTypeUSBDigital
00103650 g     F .text	0000003e GPIO_PinTypeTimer
00101d10 g     F .text	0000002a PLIC_Init
00100f30 g     F .text	0000007e GetLabelAddr
00103610 g     F .text	0000003e GPIO_PinTypeSSI
00101750  w    F .text	00000016 timer0b_handler
00100da0 g     F .text	0000001c main
001010b0 g     F .text	00000056 pml_save_dec
001026b0 g     F .text	00000020 UART_RfifoTrigger
00101e20 g     F .text	0000002a uart_putc
00102990 g     F .text	0000002e UART_RS485SendData
00102e80 g     F .text	00000114 GPIO_PadConfigGet
201202f0 g       .heap	00000000 __end__
00102680 g     F .text	0000002a UART_GetIntMask
00101150 g     F .text	00000038 pml_loc_restore
20120000 g       .data	00000000 data_start
00102bf0 g     F .text	0000009e GPIO_IntTypeGet
001023b0 g     F .text	00000080 UART_ConfigBaud
00100510  w    F .text	00000018 SystemInit
001012c0 g     F .text	00000098 stack_restore_helper
00101eb0 g     F .text	00000262 uart_printf
00100800 g     F .text	0000002a pml_putc
00102580 g     F .text	0000002e UART_WriteByte
00101620 g     F .text	0000004e Resource_Init
2012c000 g       .bss	00000000 __StackTop
20120000 g       .data	00000000 __s_ram_data_1
00101710  w    F .text	00000016 user5_handler
001032d0 g     F .text	0000003c GPIO_PinTypeEPI
00102650 g     F .text	0000002a UART_GetIntState
00100412 g       .text	00000000 __stext
00101410 g     F .text	0000001e SetEDAMode
00102890 g     F .text	000000d0 UART_RS485Send
201201c4 g       .bss	00000000 __s_ram_bss_1
00101360 g     F .text	000000b0 Delay
00103690 g     F .text	0000003e GPIO_PinTypeTrace
2012c000 g       *ABS*	00000000 __stack
00103290 g     F .text	0000003c GPIO_PinTypeDIVSCLK
00101a10 g     F .text	0000009c plic_handler
00102430 g     F .text	00000020 UART_PollPutChar
00101110 g     F .text	00000038 pml_loc_save
201202f0 g       .bss	00000000 _end
00100e80 g     F .text	0000007a DemoAttack
2012b800 g       *ABS*	00000800 __StackLimit
00101460 g     F .text	0000001e SetMainCLK
00100fb0 g     F .text	0000004e pml_com_malloc
00103210 g     F .text	0000003c GPIO_PinTypeComparator
00102960 g     F .text	0000002c UART_RS485SendSlvAddr
00103310 g     F .text	0000003c GPIO_PinTypeEthernetLED
001031d0 g     F .text	0000003c GPIO_PinTypeCAN
201201c8 g     O .bss	00000004 eda_flag
00103350 g     F .text	0000003c GPIO_PinTypeEthernetMII
001026f0 g     F .text	00000034 UART_SetDmaMode
201200c0 g     O .data	000000c8 incMsg
00103490 g     F .text	0000003e GPIO_PinTypeI2C
001002a8 g       .text	00000000 pml_get_sp
00101870 g     F .text	000000a2 general_handle_trap
001036d0 g     F .text	0000003e GPIO_PinTypeUART
00101590 g     F .text	0000004e Driver_IRQ_Close
00103140 g     F .text	00000042 GPIO_PinWrite
20120000 g       .data	00000000 __data_start
001015e0 g     F .text	0000003c Driver_Init
00101990 g     F .text	00000038 Interrupt_Register_ExtIRQ
00102fa0 g     F .text	00000042 GPIO_IntEnable



Disassembly of section .text:

00100000 <Reset_Handler>:
Reset_Handler():
C:\HJJ\Career\MimicMCU\demo\function_cpus\RISCV\src/startup.S:118
  .global __dirver_test_service__
  .weak __driver_test_service__
  .type __driver_test_service__, %function
Reset_Handler:
	# enable FPU and accelerator if present, enable global irq
	li t0, MSTATUS_FS | MSTATUS_XS | MSTATUS_MIE
  100000:	0001e2b7          	lui	t0,0x1e
  100004:	00828293          	addi	t0,t0,8 # 1e008 <Reset_Handler-0xe1ff8>
C:\HJJ\Career\MimicMCU\demo\function_cpus\RISCV\src/startup.S:119
	csrs mstatus, t0
  100008:	3002a073          	csrs	mstatus,t0
C:\HJJ\Career\MimicMCU\demo\function_cpus\RISCV\src/startup.S:121

  li t0, 0x888 # enable mie
  10000c:	000012b7          	lui	t0,0x1
  100010:	88828293          	addi	t0,t0,-1912 # 888 <Reset_Handler-0xff778>
C:\HJJ\Career\MimicMCU\demo\function_cpus\RISCV\src/startup.S:122
  csrs mie, t0
  100014:	3042a073          	csrs	mie,t0
C:\HJJ\Career\MimicMCU\demo\function_cpus\RISCV\src/startup.S:125

  #icache enable
  li t1, 1
  100018:	4305                	li	t1,1
C:\HJJ\Career\MimicMCU\demo\function_cpus\RISCV\src/startup.S:126
  csrrs t3, mhcr, t1
  10001a:	7c132e73          	csrrs	t3,mhcr,t1
C:\HJJ\Career\MimicMCU\demo\function_cpus\RISCV\src/startup.S:130
  #csrrc t3, mhcr, t1

  #dcache enable
  li t1, 2
  10001e:	4309                	li	t1,2
C:\HJJ\Career\MimicMCU\demo\function_cpus\RISCV\src/startup.S:132
  #csrrs t3, mhcr, t1
  csrrc t3, mhcr, t1
  100020:	7c133e73          	csrrc	t3,mhcr,t1
C:\HJJ\Career\MimicMCU\demo\function_cpus\RISCV\src/startup.S:135
  
	# enable MXSTATUS.THEADISAEE bit[22]
	li t0,  0x400000
  100024:	004002b7          	lui	t0,0x400
C:\HJJ\Career\MimicMCU\demo\function_cpus\RISCV\src/startup.S:136
	csrs mxstatus, t0
  100028:	7c02a073          	csrs	mxstatus,t0
C:\HJJ\Career\MimicMCU\demo\function_cpus\RISCV\src/startup.S:138

    la      a0, Default_Handler
  10002c:	00000517          	auipc	a0,0x0
  100030:	05450513          	addi	a0,a0,84 # 100080 <Default_Handler>
C:\HJJ\Career\MimicMCU\demo\function_cpus\RISCV\src/startup.S:139
    ori     a0, a0, 3
  100034:	00356513          	ori	a0,a0,3
C:\HJJ\Career\MimicMCU\demo\function_cpus\RISCV\src/startup.S:140
    csrw    mtvec, a0
  100038:	30551073          	csrw	mtvec,a0
C:\HJJ\Career\MimicMCU\demo\function_cpus\RISCV\src/startup.S:142

    la      a0, __Vectors
  10003c:	20020517          	auipc	a0,0x20020
  100040:	fc450513          	addi	a0,a0,-60 # 20120000 <__Vectors>
C:\HJJ\Career\MimicMCU\demo\function_cpus\RISCV\src/startup.S:143
    csrw    mtvt, a0
  100044:	30751073          	csrw	mtvt,a0
C:\HJJ\Career\MimicMCU\demo\function_cpus\RISCV\src/startup.S:145

    la      sp, __stack
  100048:	2002c117          	auipc	sp,0x2002c
  10004c:	fb810113          	addi	sp,sp,-72 # 2012c000 <__stack>
C:\HJJ\Career\MimicMCU\demo\function_cpus\RISCV\src/startup.S:146
    csrw    mscratch, sp
  100050:	34011073          	csrw	mscratch,sp
C:\HJJ\Career\MimicMCU\demo\function_cpus\RISCV\src/startup.S:148

    jal     SystemInit
  100054:	4bc000ef          	jal	ra,100510 <SystemInit>
C:\HJJ\Career\MimicMCU\demo\function_cpus\RISCV\src/startup.S:150

    la      a0, __driver_test_service__
  100058:	fff00517          	auipc	a0,0xfff00
  10005c:	fa850513          	addi	a0,a0,-88 # 0 <Reset_Handler-0x100000>
C:\HJJ\Career\MimicMCU\demo\function_cpus\RISCV\src/startup.S:151
    beq     zero, a0, 1f
  100060:	00a00463          	beq	zero,a0,100068 <Reset_Handler+0x68>
C:\HJJ\Career\MimicMCU\demo\function_cpus\RISCV\src/startup.S:152
    jalr    a0
  100064:	9502                	jalr	a0
C:\HJJ\Career\MimicMCU\demo\function_cpus\RISCV\src/startup.S:153
    j       __exit
  100066:	a019                	j	10006c <__exit>
C:\HJJ\Career\MimicMCU\demo\function_cpus\RISCV\src/startup.S:156

1:
    jal     __main
  100068:	4c8000ef          	jal	ra,100530 <__main>

0010006c <__exit>:
__exit():
C:\HJJ\Career\MimicMCU\demo\function_cpus\RISCV\src/startup.S:161

    .size   Reset_Handler, . - Reset_Handler

__exit:
    j      __exit
  10006c:	a001                	j	10006c <__exit>
  10006e:	00000013          	nop
  100072:	00000013          	nop
  100076:	00000013          	nop
  10007a:	00000013          	nop
  10007e:	0001                	nop

00100080 <Default_Handler>:
Default_Handler():
C:\HJJ\Career\MimicMCU\demo\function_cpus\RISCV\src/startup.S:252
  addi sp, sp, 40*REGBYTES
.endm

  .align 6
Default_Handler:
  SAVE_CONTEXT
  100080:	7135                	addi	sp,sp,-160
  100082:	c206                	sw	ra,4(sp)
  100084:	c40a                	sw	sp,8(sp)
  100086:	c60e                	sw	gp,12(sp)
  100088:	c812                	sw	tp,16(sp)
  10008a:	ca16                	sw	t0,20(sp)
  10008c:	cc1a                	sw	t1,24(sp)
  10008e:	ce1e                	sw	t2,28(sp)
  100090:	d022                	sw	s0,32(sp)
  100092:	d226                	sw	s1,36(sp)
  100094:	d42a                	sw	a0,40(sp)
  100096:	d62e                	sw	a1,44(sp)
  100098:	d832                	sw	a2,48(sp)
  10009a:	da36                	sw	a3,52(sp)
  10009c:	dc3a                	sw	a4,56(sp)
  10009e:	de3e                	sw	a5,60(sp)
  1000a0:	c0c2                	sw	a6,64(sp)
  1000a2:	c2c6                	sw	a7,68(sp)
  1000a4:	c4ca                	sw	s2,72(sp)
  1000a6:	c6ce                	sw	s3,76(sp)
  1000a8:	c8d2                	sw	s4,80(sp)
  1000aa:	cad6                	sw	s5,84(sp)
  1000ac:	ccda                	sw	s6,88(sp)
  1000ae:	cede                	sw	s7,92(sp)
  1000b0:	d0e2                	sw	s8,96(sp)
  1000b2:	d2e6                	sw	s9,100(sp)
  1000b4:	d4ea                	sw	s10,104(sp)
  1000b6:	d6ee                	sw	s11,108(sp)
  1000b8:	d8f2                	sw	t3,112(sp)
  1000ba:	daf6                	sw	t4,116(sp)
  1000bc:	dcfa                	sw	t5,120(sp)
  1000be:	defe                	sw	t6,124(sp)
  1000c0:	341022f3          	csrr	t0,mepc
  1000c4:	c116                	sw	t0,128(sp)
  1000c6:	342022f3          	csrr	t0,mcause
  1000ca:	c316                	sw	t0,132(sp)
C:\HJJ\Career\MimicMCU\demo\function_cpus\RISCV\src/startup.S:254

  csrr a0, mcause
  1000cc:	34202573          	csrr	a0,mcause
C:\HJJ\Career\MimicMCU\demo\function_cpus\RISCV\src/startup.S:255
  csrr a1, mepc
  1000d0:	341025f3          	csrr	a1,mepc
C:\HJJ\Career\MimicMCU\demo\function_cpus\RISCV\src/startup.S:256
  mv a2, sp
  1000d4:	860a                	mv	a2,sp
C:\HJJ\Career\MimicMCU\demo\function_cpus\RISCV\src/startup.S:257
  jal general_handle_trap
  1000d6:	79a010ef          	jal	ra,101870 <general_handle_trap>
C:\HJJ\Career\MimicMCU\demo\function_cpus\RISCV\src/startup.S:259

  RESTORE_CONTEXT
  1000da:	428a                	lw	t0,128(sp)
  1000dc:	34129073          	csrw	mepc,t0
  1000e0:	429a                	lw	t0,132(sp)
  1000e2:	34229073          	csrw	mcause,t0
  1000e6:	000022b7          	lui	t0,0x2
  1000ea:	88028293          	addi	t0,t0,-1920 # 1880 <Reset_Handler-0xfe780>
  1000ee:	3002a073          	csrs	mstatus,t0
  1000f2:	4092                	lw	ra,4(sp)
  1000f4:	4122                	lw	sp,8(sp)
  1000f6:	41b2                	lw	gp,12(sp)
  1000f8:	4242                	lw	tp,16(sp)
  1000fa:	42d2                	lw	t0,20(sp)
  1000fc:	4362                	lw	t1,24(sp)
  1000fe:	43f2                	lw	t2,28(sp)
  100100:	5402                	lw	s0,32(sp)
  100102:	5492                	lw	s1,36(sp)
  100104:	5522                	lw	a0,40(sp)
  100106:	55b2                	lw	a1,44(sp)
  100108:	5642                	lw	a2,48(sp)
  10010a:	56d2                	lw	a3,52(sp)
  10010c:	5762                	lw	a4,56(sp)
  10010e:	57f2                	lw	a5,60(sp)
  100110:	4806                	lw	a6,64(sp)
  100112:	4896                	lw	a7,68(sp)
  100114:	4926                	lw	s2,72(sp)
  100116:	49b6                	lw	s3,76(sp)
  100118:	4a46                	lw	s4,80(sp)
  10011a:	4ad6                	lw	s5,84(sp)
  10011c:	4b66                	lw	s6,88(sp)
  10011e:	4bf6                	lw	s7,92(sp)
  100120:	5c06                	lw	s8,96(sp)
  100122:	5c96                	lw	s9,100(sp)
  100124:	5d26                	lw	s10,104(sp)
  100126:	5db6                	lw	s11,108(sp)
  100128:	5e46                	lw	t3,112(sp)
  10012a:	5ed6                	lw	t4,116(sp)
  10012c:	5f66                	lw	t5,120(sp)
  10012e:	5ff6                	lw	t6,124(sp)
  100130:	610d                	addi	sp,sp,160
C:\HJJ\Career\MimicMCU\demo\function_cpus\RISCV\src/startup.S:260
  mret
  100132:	30200073          	mret
  100136:	0001                	nop

00100138 <SAVE_CONTEXT_Handler>:
SAVE_CONTEXT_Handler():
C:\HJJ\Career\MimicMCU\demo\function_cpus\RISCV\src/startup.S:264

  .align 2
SAVE_CONTEXT_Handler:
  SAVE_CONTEXT
  100138:	7135                	addi	sp,sp,-160
  10013a:	c206                	sw	ra,4(sp)
  10013c:	c40a                	sw	sp,8(sp)
  10013e:	c60e                	sw	gp,12(sp)
  100140:	c812                	sw	tp,16(sp)
  100142:	ca16                	sw	t0,20(sp)
  100144:	cc1a                	sw	t1,24(sp)
  100146:	ce1e                	sw	t2,28(sp)
  100148:	d022                	sw	s0,32(sp)
  10014a:	d226                	sw	s1,36(sp)
  10014c:	d42a                	sw	a0,40(sp)
  10014e:	d62e                	sw	a1,44(sp)
  100150:	d832                	sw	a2,48(sp)
  100152:	da36                	sw	a3,52(sp)
  100154:	dc3a                	sw	a4,56(sp)
  100156:	de3e                	sw	a5,60(sp)
  100158:	c0c2                	sw	a6,64(sp)
  10015a:	c2c6                	sw	a7,68(sp)
  10015c:	c4ca                	sw	s2,72(sp)
  10015e:	c6ce                	sw	s3,76(sp)
  100160:	c8d2                	sw	s4,80(sp)
  100162:	cad6                	sw	s5,84(sp)
  100164:	ccda                	sw	s6,88(sp)
  100166:	cede                	sw	s7,92(sp)
  100168:	d0e2                	sw	s8,96(sp)
  10016a:	d2e6                	sw	s9,100(sp)
  10016c:	d4ea                	sw	s10,104(sp)
  10016e:	d6ee                	sw	s11,108(sp)
  100170:	d8f2                	sw	t3,112(sp)
  100172:	daf6                	sw	t4,116(sp)
  100174:	dcfa                	sw	t5,120(sp)
  100176:	defe                	sw	t6,124(sp)
  100178:	341022f3          	csrr	t0,mepc
  10017c:	c116                	sw	t0,128(sp)
  10017e:	342022f3          	csrr	t0,mcause
  100182:	c316                	sw	t0,132(sp)
C:\HJJ\Career\MimicMCU\demo\function_cpus\RISCV\src/startup.S:266

  csrr a0, mcause
  100184:	34202573          	csrr	a0,mcause
C:\HJJ\Career\MimicMCU\demo\function_cpus\RISCV\src/startup.S:267
  csrr a1, mepc
  100188:	341025f3          	csrr	a1,mepc
C:\HJJ\Career\MimicMCU\demo\function_cpus\RISCV\src/startup.S:268
  mv a2, sp
  10018c:	860a                	mv	a2,sp
C:\HJJ\Career\MimicMCU\demo\function_cpus\RISCV\src/startup.S:269
  jal save_context_handler
  10018e:	4f2010ef          	jal	ra,101680 <save_context_handler>
C:\HJJ\Career\MimicMCU\demo\function_cpus\RISCV\src/startup.S:271
  
  RESTORE_CONTEXT
  100192:	428a                	lw	t0,128(sp)
  100194:	34129073          	csrw	mepc,t0
  100198:	429a                	lw	t0,132(sp)
  10019a:	34229073          	csrw	mcause,t0
  10019e:	000022b7          	lui	t0,0x2
  1001a2:	88028293          	addi	t0,t0,-1920 # 1880 <Reset_Handler-0xfe780>
  1001a6:	3002a073          	csrs	mstatus,t0
  1001aa:	4092                	lw	ra,4(sp)
  1001ac:	4122                	lw	sp,8(sp)
  1001ae:	41b2                	lw	gp,12(sp)
  1001b0:	4242                	lw	tp,16(sp)
  1001b2:	42d2                	lw	t0,20(sp)
  1001b4:	4362                	lw	t1,24(sp)
  1001b6:	43f2                	lw	t2,28(sp)
  1001b8:	5402                	lw	s0,32(sp)
  1001ba:	5492                	lw	s1,36(sp)
  1001bc:	5522                	lw	a0,40(sp)
  1001be:	55b2                	lw	a1,44(sp)
  1001c0:	5642                	lw	a2,48(sp)
  1001c2:	56d2                	lw	a3,52(sp)
  1001c4:	5762                	lw	a4,56(sp)
  1001c6:	57f2                	lw	a5,60(sp)
  1001c8:	4806                	lw	a6,64(sp)
  1001ca:	4896                	lw	a7,68(sp)
  1001cc:	4926                	lw	s2,72(sp)
  1001ce:	49b6                	lw	s3,76(sp)
  1001d0:	4a46                	lw	s4,80(sp)
  1001d2:	4ad6                	lw	s5,84(sp)
  1001d4:	4b66                	lw	s6,88(sp)
  1001d6:	4bf6                	lw	s7,92(sp)
  1001d8:	5c06                	lw	s8,96(sp)
  1001da:	5c96                	lw	s9,100(sp)
  1001dc:	5d26                	lw	s10,104(sp)
  1001de:	5db6                	lw	s11,108(sp)
  1001e0:	5e46                	lw	t3,112(sp)
  1001e2:	5ed6                	lw	t4,116(sp)
  1001e4:	5f66                	lw	t5,120(sp)
  1001e6:	5ff6                	lw	t6,124(sp)
  1001e8:	610d                	addi	sp,sp,160
C:\HJJ\Career\MimicMCU\demo\function_cpus\RISCV\src/startup.S:272
  mret
  1001ea:	30200073          	mret
  1001ee:	0001                	nop

001001f0 <PLIC_Handler>:
PLIC_Handler():
C:\HJJ\Career\MimicMCU\demo\function_cpus\RISCV\src/startup.S:276

  .align 2
PLIC_Handler:
  SAVE_CONTEXT
  1001f0:	7135                	addi	sp,sp,-160
  1001f2:	c206                	sw	ra,4(sp)
  1001f4:	c40a                	sw	sp,8(sp)
  1001f6:	c60e                	sw	gp,12(sp)
  1001f8:	c812                	sw	tp,16(sp)
  1001fa:	ca16                	sw	t0,20(sp)
  1001fc:	cc1a                	sw	t1,24(sp)
  1001fe:	ce1e                	sw	t2,28(sp)
  100200:	d022                	sw	s0,32(sp)
  100202:	d226                	sw	s1,36(sp)
  100204:	d42a                	sw	a0,40(sp)
  100206:	d62e                	sw	a1,44(sp)
  100208:	d832                	sw	a2,48(sp)
  10020a:	da36                	sw	a3,52(sp)
  10020c:	dc3a                	sw	a4,56(sp)
  10020e:	de3e                	sw	a5,60(sp)
  100210:	c0c2                	sw	a6,64(sp)
  100212:	c2c6                	sw	a7,68(sp)
  100214:	c4ca                	sw	s2,72(sp)
  100216:	c6ce                	sw	s3,76(sp)
  100218:	c8d2                	sw	s4,80(sp)
  10021a:	cad6                	sw	s5,84(sp)
  10021c:	ccda                	sw	s6,88(sp)
  10021e:	cede                	sw	s7,92(sp)
  100220:	d0e2                	sw	s8,96(sp)
  100222:	d2e6                	sw	s9,100(sp)
  100224:	d4ea                	sw	s10,104(sp)
  100226:	d6ee                	sw	s11,108(sp)
  100228:	d8f2                	sw	t3,112(sp)
  10022a:	daf6                	sw	t4,116(sp)
  10022c:	dcfa                	sw	t5,120(sp)
  10022e:	defe                	sw	t6,124(sp)
  100230:	341022f3          	csrr	t0,mepc
  100234:	c116                	sw	t0,128(sp)
  100236:	342022f3          	csrr	t0,mcause
  10023a:	c316                	sw	t0,132(sp)
C:\HJJ\Career\MimicMCU\demo\function_cpus\RISCV\src/startup.S:278

  csrr a0, mcause
  10023c:	34202573          	csrr	a0,mcause
C:\HJJ\Career\MimicMCU\demo\function_cpus\RISCV\src/startup.S:279
  csrr a1, mepc
  100240:	341025f3          	csrr	a1,mepc
C:\HJJ\Career\MimicMCU\demo\function_cpus\RISCV\src/startup.S:280
  mv a2, sp
  100244:	860a                	mv	a2,sp
C:\HJJ\Career\MimicMCU\demo\function_cpus\RISCV\src/startup.S:281
  jal plic_handler
  100246:	7ca010ef          	jal	ra,101a10 <plic_handler>
C:\HJJ\Career\MimicMCU\demo\function_cpus\RISCV\src/startup.S:283
  
  RESTORE_CONTEXT
  10024a:	428a                	lw	t0,128(sp)
  10024c:	34129073          	csrw	mepc,t0
  100250:	429a                	lw	t0,132(sp)
  100252:	34229073          	csrw	mcause,t0
  100256:	000022b7          	lui	t0,0x2
  10025a:	88028293          	addi	t0,t0,-1920 # 1880 <Reset_Handler-0xfe780>
  10025e:	3002a073          	csrs	mstatus,t0
  100262:	4092                	lw	ra,4(sp)
  100264:	4122                	lw	sp,8(sp)
  100266:	41b2                	lw	gp,12(sp)
  100268:	4242                	lw	tp,16(sp)
  10026a:	42d2                	lw	t0,20(sp)
  10026c:	4362                	lw	t1,24(sp)
  10026e:	43f2                	lw	t2,28(sp)
  100270:	5402                	lw	s0,32(sp)
  100272:	5492                	lw	s1,36(sp)
  100274:	5522                	lw	a0,40(sp)
  100276:	55b2                	lw	a1,44(sp)
  100278:	5642                	lw	a2,48(sp)
  10027a:	56d2                	lw	a3,52(sp)
  10027c:	5762                	lw	a4,56(sp)
  10027e:	57f2                	lw	a5,60(sp)
  100280:	4806                	lw	a6,64(sp)
  100282:	4896                	lw	a7,68(sp)
  100284:	4926                	lw	s2,72(sp)
  100286:	49b6                	lw	s3,76(sp)
  100288:	4a46                	lw	s4,80(sp)
  10028a:	4ad6                	lw	s5,84(sp)
  10028c:	4b66                	lw	s6,88(sp)
  10028e:	4bf6                	lw	s7,92(sp)
  100290:	5c06                	lw	s8,96(sp)
  100292:	5c96                	lw	s9,100(sp)
  100294:	5d26                	lw	s10,104(sp)
  100296:	5db6                	lw	s11,108(sp)
  100298:	5e46                	lw	t3,112(sp)
  10029a:	5ed6                	lw	t4,116(sp)
  10029c:	5f66                	lw	t5,120(sp)
  10029e:	5ff6                	lw	t6,124(sp)
  1002a0:	610d                	addi	sp,sp,160
C:\HJJ\Career\MimicMCU\demo\function_cpus\RISCV\src/startup.S:284
  mret
  1002a2:	30200073          	mret
  1002a6:	0001                	nop

001002a8 <pml_get_sp>:
pml_get_sp():
C:\HJJ\Career\MimicMCU\demo\function_cpus\RISCV\src/startup.S:289

.global pml_get_sp
  .align 2
pml_get_sp:
  addi	sp,sp,-32
  1002a8:	1101                	addi	sp,sp,-32
C:\HJJ\Career\MimicMCU\demo\function_cpus\RISCV\src/startup.S:290
  sw	ra,28(sp)
  1002aa:	ce06                	sw	ra,28(sp)
C:\HJJ\Career\MimicMCU\demo\function_cpus\RISCV\src/startup.S:291
  sw  s0,24(sp)
  1002ac:	cc22                	sw	s0,24(sp)
C:\HJJ\Career\MimicMCU\demo\function_cpus\RISCV\src/startup.S:292
  addi	s0,sp,32
  1002ae:	1000                	addi	s0,sp,32
C:\HJJ\Career\MimicMCU\demo\function_cpus\RISCV\src/startup.S:293
  sw	a0,-20(s0) // input parameter: unsigned int *pr
  1002b0:	fea42623          	sw	a0,-20(s0)
C:\HJJ\Career\MimicMCU\demo\function_cpus\RISCV\src/startup.S:295

  mv	a4,s0
  1002b4:	8722                	mv	a4,s0
C:\HJJ\Career\MimicMCU\demo\function_cpus\RISCV\src/startup.S:296
  lw	a5,-20(s0)
  1002b6:	fec42783          	lw	a5,-20(s0)
C:\HJJ\Career\MimicMCU\demo\function_cpus\RISCV\src/startup.S:297
  sw	a4,0(a5)   // *pr = old sp
  1002ba:	c398                	sw	a4,0(a5)
C:\HJJ\Career\MimicMCU\demo\function_cpus\RISCV\src/startup.S:299

  nop
  1002bc:	0001                	nop
C:\HJJ\Career\MimicMCU\demo\function_cpus\RISCV\src/startup.S:300
  lw  ra,28(sp)
  1002be:	40f2                	lw	ra,28(sp)
C:\HJJ\Career\MimicMCU\demo\function_cpus\RISCV\src/startup.S:301
  lw	s0,24(sp)
  1002c0:	4462                	lw	s0,24(sp)
C:\HJJ\Career\MimicMCU\demo\function_cpus\RISCV\src/startup.S:302
  addi	sp,sp,32
  1002c2:	6105                	addi	sp,sp,32
C:\HJJ\Career\MimicMCU\demo\function_cpus\RISCV\src/startup.S:303
  ret
  1002c4:	8082                	ret
  1002c6:	0001                	nop

001002c8 <pml_stack_restore>:
pml_stack_restore():
C:\HJJ\Career\MimicMCU\demo\function_cpus\RISCV\src/startup.S:308

.global pml_stack_restore
  .align 2
pml_stack_restore: 
  addi	sp,sp,-32
  1002c8:	1101                	addi	sp,sp,-32
C:\HJJ\Career\MimicMCU\demo\function_cpus\RISCV\src/startup.S:309
  sw	ra,28(sp)
  1002ca:	ce06                	sw	ra,28(sp)
C:\HJJ\Career\MimicMCU\demo\function_cpus\RISCV\src/startup.S:310
  sw	s0,24(sp)
  1002cc:	cc22                	sw	s0,24(sp)
C:\HJJ\Career\MimicMCU\demo\function_cpus\RISCV\src/startup.S:311
  addi	s0,sp,32
  1002ce:	1000                	addi	s0,sp,32
C:\HJJ\Career\MimicMCU\demo\function_cpus\RISCV\src/startup.S:313

  sw	zero,-20(s0) // unsigned int result = 0
  1002d0:	fe042623          	sw	zero,-20(s0)
C:\HJJ\Career\MimicMCU\demo\function_cpus\RISCV\src/startup.S:314
  mv	a5,s0        // __asm volatile("mv %0, s0" : "=r"(result))
  1002d4:	87a2                	mv	a5,s0
C:\HJJ\Career\MimicMCU\demo\function_cpus\RISCV\src/startup.S:315
  sw	a5,-20(s0)   // result = old sp
  1002d6:	fef42623          	sw	a5,-20(s0)
C:\HJJ\Career\MimicMCU\demo\function_cpus\RISCV\src/startup.S:317
  
  lw	a0,-20(s0)   // stack_restore_helper(result)
  1002da:	fec42503          	lw	a0,-20(s0)
C:\HJJ\Career\MimicMCU\demo\function_cpus\RISCV\src/startup.S:318
  jal	stack_restore_helper
  1002de:	7e3000ef          	jal	ra,1012c0 <stack_restore_helper>
C:\HJJ\Career\MimicMCU\demo\function_cpus\RISCV\src/startup.S:320

  nop
  1002e2:	0001                	nop
C:\HJJ\Career\MimicMCU\demo\function_cpus\RISCV\src/startup.S:321
  lw	ra,28(sp)
  1002e4:	40f2                	lw	ra,28(sp)
C:\HJJ\Career\MimicMCU\demo\function_cpus\RISCV\src/startup.S:322
  lw	s0,24(sp)
  1002e6:	4462                	lw	s0,24(sp)
C:\HJJ\Career\MimicMCU\demo\function_cpus\RISCV\src/startup.S:323
  addi	sp,sp,32
  1002e8:	6105                	addi	sp,sp,32
C:\HJJ\Career\MimicMCU\demo\function_cpus\RISCV\src/startup.S:324
  ret
  1002ea:	8082                	ret

001002ec <SAVE_REGISTER>:
SAVE_REGISTER():
C:\HJJ\Career\MimicMCU\demo\function_cpus\RISCV\src/startup.S:331
.global SAVE_REGISTER
.global RESTORE_REGISTER

  .align 2
SAVE_REGISTER:
  la t6, 0x4400FC00 # define STACK_SAVE_SRAM_ADDR  (LOC_SRAM_BASEADDR + LOC_SRAM_SIZE - __REGS_SIZE - __STACK_SIZE)
  1002ec:	44010fb7          	lui	t6,0x44010
  1002f0:	c00f8f93          	addi	t6,t6,-1024 # 4400fc00 <__stack+0x23ee3c00>
C:\HJJ\Career\MimicMCU\demo\function_cpus\RISCV\src/startup.S:332
  sw x1, 1*4(t6)
  1002f4:	001fa223          	sw	ra,4(t6)
C:\HJJ\Career\MimicMCU\demo\function_cpus\RISCV\src/startup.S:333
  sw x2, 2*4(t6)
  1002f8:	002fa423          	sw	sp,8(t6)
C:\HJJ\Career\MimicMCU\demo\function_cpus\RISCV\src/startup.S:334
  sw x3, 3*4(t6)
  1002fc:	003fa623          	sw	gp,12(t6)
C:\HJJ\Career\MimicMCU\demo\function_cpus\RISCV\src/startup.S:335
  sw x4, 4*4(t6)
  100300:	004fa823          	sw	tp,16(t6)
C:\HJJ\Career\MimicMCU\demo\function_cpus\RISCV\src/startup.S:336
  sw x5, 5*4(t6)
  100304:	005faa23          	sw	t0,20(t6)
C:\HJJ\Career\MimicMCU\demo\function_cpus\RISCV\src/startup.S:337
  sw x6, 6*4(t6)
  100308:	006fac23          	sw	t1,24(t6)
C:\HJJ\Career\MimicMCU\demo\function_cpus\RISCV\src/startup.S:338
  sw x7, 7*4(t6)
  10030c:	007fae23          	sw	t2,28(t6)
C:\HJJ\Career\MimicMCU\demo\function_cpus\RISCV\src/startup.S:339
  sw x8, 8*4(t6)
  100310:	028fa023          	sw	s0,32(t6)
C:\HJJ\Career\MimicMCU\demo\function_cpus\RISCV\src/startup.S:340
  sw x9, 9*4(t6)
  100314:	029fa223          	sw	s1,36(t6)
C:\HJJ\Career\MimicMCU\demo\function_cpus\RISCV\src/startup.S:341
  sw x10, 10*4(t6)
  100318:	02afa423          	sw	a0,40(t6)
C:\HJJ\Career\MimicMCU\demo\function_cpus\RISCV\src/startup.S:342
  sw x11, 11*4(t6)
  10031c:	02bfa623          	sw	a1,44(t6)
C:\HJJ\Career\MimicMCU\demo\function_cpus\RISCV\src/startup.S:343
  sw x12, 12*4(t6)
  100320:	02cfa823          	sw	a2,48(t6)
C:\HJJ\Career\MimicMCU\demo\function_cpus\RISCV\src/startup.S:344
  sw x13, 13*4(t6)
  100324:	02dfaa23          	sw	a3,52(t6)
C:\HJJ\Career\MimicMCU\demo\function_cpus\RISCV\src/startup.S:345
  sw x14, 14*4(t6)
  100328:	02efac23          	sw	a4,56(t6)
C:\HJJ\Career\MimicMCU\demo\function_cpus\RISCV\src/startup.S:346
  sw x15, 15*4(t6)
  10032c:	02ffae23          	sw	a5,60(t6)
C:\HJJ\Career\MimicMCU\demo\function_cpus\RISCV\src/startup.S:347
  sw x16, 16*4(t6)
  100330:	050fa023          	sw	a6,64(t6)
C:\HJJ\Career\MimicMCU\demo\function_cpus\RISCV\src/startup.S:348
  sw x17, 17*4(t6)
  100334:	051fa223          	sw	a7,68(t6)
C:\HJJ\Career\MimicMCU\demo\function_cpus\RISCV\src/startup.S:349
  sw x18, 18*4(t6)
  100338:	052fa423          	sw	s2,72(t6)
C:\HJJ\Career\MimicMCU\demo\function_cpus\RISCV\src/startup.S:350
  sw x19, 19*4(t6)
  10033c:	053fa623          	sw	s3,76(t6)
C:\HJJ\Career\MimicMCU\demo\function_cpus\RISCV\src/startup.S:351
  sw x20, 20*4(t6)
  100340:	054fa823          	sw	s4,80(t6)
C:\HJJ\Career\MimicMCU\demo\function_cpus\RISCV\src/startup.S:352
  sw x21, 21*4(t6)
  100344:	055faa23          	sw	s5,84(t6)
C:\HJJ\Career\MimicMCU\demo\function_cpus\RISCV\src/startup.S:353
  sw x22, 22*4(t6)
  100348:	056fac23          	sw	s6,88(t6)
C:\HJJ\Career\MimicMCU\demo\function_cpus\RISCV\src/startup.S:354
  sw x23, 23*4(t6)
  10034c:	057fae23          	sw	s7,92(t6)
C:\HJJ\Career\MimicMCU\demo\function_cpus\RISCV\src/startup.S:355
  sw x24, 24*4(t6)
  100350:	078fa023          	sw	s8,96(t6)
C:\HJJ\Career\MimicMCU\demo\function_cpus\RISCV\src/startup.S:356
  sw x25, 25*4(t6)
  100354:	079fa223          	sw	s9,100(t6)
C:\HJJ\Career\MimicMCU\demo\function_cpus\RISCV\src/startup.S:357
  sw x26, 26*4(t6)
  100358:	07afa423          	sw	s10,104(t6)
C:\HJJ\Career\MimicMCU\demo\function_cpus\RISCV\src/startup.S:358
  sw x27, 27*4(t6)
  10035c:	07bfa623          	sw	s11,108(t6)
C:\HJJ\Career\MimicMCU\demo\function_cpus\RISCV\src/startup.S:359
  sw x28, 28*4(t6)
  100360:	07cfa823          	sw	t3,112(t6)
C:\HJJ\Career\MimicMCU\demo\function_cpus\RISCV\src/startup.S:360
  sw x29, 29*4(t6)
  100364:	07dfaa23          	sw	t4,116(t6)
C:\HJJ\Career\MimicMCU\demo\function_cpus\RISCV\src/startup.S:361
  sw x30, 30*4(t6)
  100368:	07efac23          	sw	t5,120(t6)
C:\HJJ\Career\MimicMCU\demo\function_cpus\RISCV\src/startup.S:362
  ret
  10036c:	8082                	ret
  10036e:	0001                	nop

00100370 <RESTORE_REGISTER>:
RESTORE_REGISTER():
C:\HJJ\Career\MimicMCU\demo\function_cpus\RISCV\src/startup.S:366

  .align 2
RESTORE_REGISTER:
  la t6, 0x4400FC00 # define STACK_SAVE_SRAM_ADDR  (LOC_SRAM_BASEADDR + LOC_SRAM_SIZE - __REGS_SIZE - __STACK_SIZE)
  100370:	44010fb7          	lui	t6,0x44010
  100374:	c00f8f93          	addi	t6,t6,-1024 # 4400fc00 <__stack+0x23ee3c00>
C:\HJJ\Career\MimicMCU\demo\function_cpus\RISCV\src/startup.S:367
  lw x1, 1*4(t6)
  100378:	004fa083          	lw	ra,4(t6)
C:\HJJ\Career\MimicMCU\demo\function_cpus\RISCV\src/startup.S:368
  lw x2, 2*4(t6)
  10037c:	008fa103          	lw	sp,8(t6)
C:\HJJ\Career\MimicMCU\demo\function_cpus\RISCV\src/startup.S:369
  lw x3, 3*4(t6)
  100380:	00cfa183          	lw	gp,12(t6)
C:\HJJ\Career\MimicMCU\demo\function_cpus\RISCV\src/startup.S:370
  lw x4, 4*4(t6)
  100384:	010fa203          	lw	tp,16(t6)
C:\HJJ\Career\MimicMCU\demo\function_cpus\RISCV\src/startup.S:371
  lw x5, 5*4(t6)
  100388:	014fa283          	lw	t0,20(t6)
C:\HJJ\Career\MimicMCU\demo\function_cpus\RISCV\src/startup.S:372
  lw x6, 6*4(t6)
  10038c:	018fa303          	lw	t1,24(t6)
C:\HJJ\Career\MimicMCU\demo\function_cpus\RISCV\src/startup.S:373
  lw x7, 7*4(t6)
  100390:	01cfa383          	lw	t2,28(t6)
C:\HJJ\Career\MimicMCU\demo\function_cpus\RISCV\src/startup.S:374
  lw x8, 8*4(t6)
  100394:	020fa403          	lw	s0,32(t6)
C:\HJJ\Career\MimicMCU\demo\function_cpus\RISCV\src/startup.S:375
  lw x9, 9*4(t6)
  100398:	024fa483          	lw	s1,36(t6)
C:\HJJ\Career\MimicMCU\demo\function_cpus\RISCV\src/startup.S:376
  lw x10, 10*4(t6)
  10039c:	028fa503          	lw	a0,40(t6)
C:\HJJ\Career\MimicMCU\demo\function_cpus\RISCV\src/startup.S:377
  lw x11, 11*4(t6)
  1003a0:	02cfa583          	lw	a1,44(t6)
C:\HJJ\Career\MimicMCU\demo\function_cpus\RISCV\src/startup.S:378
  lw x12, 12*4(t6)
  1003a4:	030fa603          	lw	a2,48(t6)
C:\HJJ\Career\MimicMCU\demo\function_cpus\RISCV\src/startup.S:379
  lw x13, 13*4(t6)
  1003a8:	034fa683          	lw	a3,52(t6)
C:\HJJ\Career\MimicMCU\demo\function_cpus\RISCV\src/startup.S:380
  lw x14, 14*4(t6)
  1003ac:	038fa703          	lw	a4,56(t6)
C:\HJJ\Career\MimicMCU\demo\function_cpus\RISCV\src/startup.S:381
  lw x15, 15*4(t6)
  1003b0:	03cfa783          	lw	a5,60(t6)
C:\HJJ\Career\MimicMCU\demo\function_cpus\RISCV\src/startup.S:382
  lw x16, 16*4(t6)
  1003b4:	040fa803          	lw	a6,64(t6)
C:\HJJ\Career\MimicMCU\demo\function_cpus\RISCV\src/startup.S:383
  lw x17, 17*4(t6)
  1003b8:	044fa883          	lw	a7,68(t6)
C:\HJJ\Career\MimicMCU\demo\function_cpus\RISCV\src/startup.S:384
  lw x18, 18*4(t6)
  1003bc:	048fa903          	lw	s2,72(t6)
C:\HJJ\Career\MimicMCU\demo\function_cpus\RISCV\src/startup.S:385
  lw x19, 19*4(t6)
  1003c0:	04cfa983          	lw	s3,76(t6)
C:\HJJ\Career\MimicMCU\demo\function_cpus\RISCV\src/startup.S:386
  lw x20, 20*4(t6)
  1003c4:	050faa03          	lw	s4,80(t6)
C:\HJJ\Career\MimicMCU\demo\function_cpus\RISCV\src/startup.S:387
  lw x21, 21*4(t6)
  1003c8:	054faa83          	lw	s5,84(t6)
C:\HJJ\Career\MimicMCU\demo\function_cpus\RISCV\src/startup.S:388
  lw x22, 22*4(t6)
  1003cc:	058fab03          	lw	s6,88(t6)
C:\HJJ\Career\MimicMCU\demo\function_cpus\RISCV\src/startup.S:389
  lw x23, 23*4(t6)
  1003d0:	05cfab83          	lw	s7,92(t6)
C:\HJJ\Career\MimicMCU\demo\function_cpus\RISCV\src/startup.S:390
  lw x24, 24*4(t6)
  1003d4:	060fac03          	lw	s8,96(t6)
C:\HJJ\Career\MimicMCU\demo\function_cpus\RISCV\src/startup.S:391
  lw x25, 25*4(t6)
  1003d8:	064fac83          	lw	s9,100(t6)
C:\HJJ\Career\MimicMCU\demo\function_cpus\RISCV\src/startup.S:392
  lw x26, 26*4(t6)
  1003dc:	068fad03          	lw	s10,104(t6)
C:\HJJ\Career\MimicMCU\demo\function_cpus\RISCV\src/startup.S:393
  lw x27, 27*4(t6)
  1003e0:	06cfad83          	lw	s11,108(t6)
C:\HJJ\Career\MimicMCU\demo\function_cpus\RISCV\src/startup.S:394
  lw x28, 28*4(t6)
  1003e4:	070fae03          	lw	t3,112(t6)
C:\HJJ\Career\MimicMCU\demo\function_cpus\RISCV\src/startup.S:395
  lw x29, 29*4(t6)
  1003e8:	074fae83          	lw	t4,116(t6)
C:\HJJ\Career\MimicMCU\demo\function_cpus\RISCV\src/startup.S:396
  lw x30, 30*4(t6)
  1003ec:	078faf03          	lw	t5,120(t6)
C:\HJJ\Career\MimicMCU\demo\function_cpus\RISCV\src/startup.S:397
  1003f0:	8082                	ret
	...

00100412 <__stext>:
	...

00100420 <MemoryInit>:
MemoryInit():
C:\HJJ\Career\MimicMCU\demo\function_cpus\RISCV\src/e906.c:25
extern char __e_ram_data_1[];
extern char __e_ram_bss_1[];
extern char __s_ram_bss_1[];

static void MemoryInit( void ) 
{
  100420:	1101                	addi	sp,sp,-32
  100422:	ce22                	sw	s0,28(sp)
  100424:	1000                	addi	s0,sp,32
C:\HJJ\Career\MimicMCU\demo\function_cpus\RISCV\src/e906.c:26
  unsigned int count = (__e_ram_data_1 - __s_ram_data_1) / 4;
  100426:	201207b7          	lui	a5,0x20120
  10042a:	1c478713          	addi	a4,a5,452 # 201201c4 <__e_ram_data_1>
  10042e:	201207b7          	lui	a5,0x20120
  100432:	00078793          	mv	a5,a5
  100436:	40f707b3          	sub	a5,a4,a5
  10043a:	41f7d713          	srai	a4,a5,0x1f
  10043e:	8b0d                	andi	a4,a4,3
  100440:	97ba                	add	a5,a5,a4
  100442:	8789                	srai	a5,a5,0x2
  100444:	fef42223          	sw	a5,-28(s0)
C:\HJJ\Career\MimicMCU\demo\function_cpus\RISCV\src/e906.c:27
  if (__s_ram_data_1 != __e_rom) {
  100448:	201207b7          	lui	a5,0x20120
  10044c:	00078713          	mv	a4,a5
  100450:	001047b7          	lui	a5,0x104
  100454:	c7478793          	addi	a5,a5,-908 # 103c74 <__l_s_ram>
  100458:	04f70463          	beq	a4,a5,1004a0 <MemoryInit+0x80>
C:\HJJ\Career\MimicMCU\demo\function_cpus\RISCV\src/e906.c:28
    for (unsigned int i = 0; i < count; i++) {
  10045c:	fe042623          	sw	zero,-20(s0)
  100460:	a815                	j	100494 <MemoryInit+0x74>
C:\HJJ\Career\MimicMCU\demo\function_cpus\RISCV\src/e906.c:29 (discriminator 3)
      *((volatile unsigned int *)(__s_ram_data_1 + i * 4)) = *((volatile unsigned int *)(__e_rom + i * 4));
  100462:	fec42783          	lw	a5,-20(s0)
  100466:	00279713          	slli	a4,a5,0x2
  10046a:	001047b7          	lui	a5,0x104
  10046e:	c7478793          	addi	a5,a5,-908 # 103c74 <__l_s_ram>
  100472:	973e                	add	a4,a4,a5
  100474:	fec42783          	lw	a5,-20(s0)
  100478:	00279693          	slli	a3,a5,0x2
  10047c:	201207b7          	lui	a5,0x20120
  100480:	00078793          	mv	a5,a5
  100484:	97b6                	add	a5,a5,a3
  100486:	4318                	lw	a4,0(a4)
  100488:	c398                	sw	a4,0(a5)
C:\HJJ\Career\MimicMCU\demo\function_cpus\RISCV\src/e906.c:28 (discriminator 3)
    for (unsigned int i = 0; i < count; i++) {
  10048a:	fec42783          	lw	a5,-20(s0)
  10048e:	0785                	addi	a5,a5,1
  100490:	fef42623          	sw	a5,-20(s0)
C:\HJJ\Career\MimicMCU\demo\function_cpus\RISCV\src/e906.c:28 (discriminator 1)
  100494:	fec42703          	lw	a4,-20(s0)
  100498:	fe442783          	lw	a5,-28(s0)
  10049c:	fcf763e3          	bltu	a4,a5,100462 <MemoryInit+0x42>
C:\HJJ\Career\MimicMCU\demo\function_cpus\RISCV\src/e906.c:32
    }
  }
  if (__e_ram_bss_1 - __s_ram_bss_1) {
  1004a0:	201207b7          	lui	a5,0x20120
  1004a4:	2f078713          	addi	a4,a5,752 # 201202f0 <__e_ram_bss_1>
  1004a8:	201207b7          	lui	a5,0x20120
  1004ac:	1c478793          	addi	a5,a5,452 # 201201c4 <__e_ram_data_1>
  1004b0:	04f70c63          	beq	a4,a5,100508 <MemoryInit+0xe8>
C:\HJJ\Career\MimicMCU\demo\function_cpus\RISCV\src/e906.c:33
    count = (__e_ram_bss_1 - __s_ram_bss_1) / 4;
  1004b4:	201207b7          	lui	a5,0x20120
  1004b8:	2f078713          	addi	a4,a5,752 # 201202f0 <__e_ram_bss_1>
  1004bc:	201207b7          	lui	a5,0x20120
  1004c0:	1c478793          	addi	a5,a5,452 # 201201c4 <__e_ram_data_1>
  1004c4:	40f707b3          	sub	a5,a4,a5
  1004c8:	41f7d713          	srai	a4,a5,0x1f
  1004cc:	8b0d                	andi	a4,a4,3
  1004ce:	97ba                	add	a5,a5,a4
  1004d0:	8789                	srai	a5,a5,0x2
  1004d2:	fef42223          	sw	a5,-28(s0)
C:\HJJ\Career\MimicMCU\demo\function_cpus\RISCV\src/e906.c:34
    for (unsigned int i = 0; i < count; i++) {
  1004d6:	fe042423          	sw	zero,-24(s0)
  1004da:	a00d                	j	1004fc <MemoryInit+0xdc>
C:\HJJ\Career\MimicMCU\demo\function_cpus\RISCV\src/e906.c:35 (discriminator 3)
      *((volatile unsigned int *)(__s_ram_bss_1 + i * 4)) = 0;
  1004dc:	fe842783          	lw	a5,-24(s0)
  1004e0:	00279713          	slli	a4,a5,0x2
  1004e4:	201207b7          	lui	a5,0x20120
  1004e8:	1c478793          	addi	a5,a5,452 # 201201c4 <__e_ram_data_1>
  1004ec:	97ba                	add	a5,a5,a4
  1004ee:	0007a023          	sw	zero,0(a5)
C:\HJJ\Career\MimicMCU\demo\function_cpus\RISCV\src/e906.c:34 (discriminator 3)
    for (unsigned int i = 0; i < count; i++) {
  1004f2:	fe842783          	lw	a5,-24(s0)
  1004f6:	0785                	addi	a5,a5,1
  1004f8:	fef42423          	sw	a5,-24(s0)
C:\HJJ\Career\MimicMCU\demo\function_cpus\RISCV\src/e906.c:34 (discriminator 1)
  1004fc:	fe842703          	lw	a4,-24(s0)
  100500:	fe442783          	lw	a5,-28(s0)
  100504:	fcf76ce3          	bltu	a4,a5,1004dc <MemoryInit+0xbc>
C:\HJJ\Career\MimicMCU\demo\function_cpus\RISCV\src/e906.c:38
    }
  }
}
  100508:	0001                	nop
  10050a:	4472                	lw	s0,28(sp)
  10050c:	6105                	addi	sp,sp,32
  10050e:	8082                	ret

00100510 <SystemInit>:
SystemInit():
C:\HJJ\Career\MimicMCU\demo\function_cpus\RISCV\src/e906.c:46
/**
 * @brief entry of whole chip initialization
 * Since here SystemInit is a weak symbol, any vendor can override this symbol on its own wishes.
 */
__attribute__((weak)) void  SystemInit(void) 
{
  100510:	1141                	addi	sp,sp,-16
  100512:	c606                	sw	ra,12(sp)
  100514:	c422                	sw	s0,8(sp)
  100516:	0800                	addi	s0,sp,16
C:\HJJ\Career\MimicMCU\demo\function_cpus\RISCV\src/e906.c:50
	/**
	 * Initial the bss section and data decompression from LMA to VMA
	 */
	MemoryInit();
  100518:	3721                	jal	100420 <MemoryInit>
C:\HJJ\Career\MimicMCU\demo\function_cpus\RISCV\src/e906.c:59

	/**
	 * TODO: initial IO, memory, flash... 
	 */
	// extern void Resource_Init(void);
  	Resource_Init();
  10051a:	106010ef          	jal	ra,101620 <Resource_Init>
C:\HJJ\Career\MimicMCU\demo\function_cpus\RISCV\src/e906.c:60
    return;
  10051e:	0001                	nop
C:\HJJ\Career\MimicMCU\demo\function_cpus\RISCV\src/e906.c:61
}
  100520:	40b2                	lw	ra,12(sp)
  100522:	4422                	lw	s0,8(sp)
  100524:	0141                	addi	sp,sp,16
  100526:	8082                	ret
  100528:	00000013          	nop
  10052c:	00000013          	nop

00100530 <__main>:
__main():
C:\HJJ\Career\MimicMCU\demo\function_cpus\RISCV\src/e906.c:64

__attribute__((weak)) void __main()
{
  100530:	1141                	addi	sp,sp,-16
  100532:	c606                	sw	ra,12(sp)
  100534:	c422                	sw	s0,8(sp)
  100536:	0800                	addi	s0,sp,16
C:\HJJ\Career\MimicMCU\demo\function_cpus\RISCV\src/e906.c:67
	// got to main 
	extern int main(void);
	main();
  100538:	069000ef          	jal	ra,100da0 <main>
C:\HJJ\Career\MimicMCU\demo\function_cpus\RISCV\src/e906.c:69 (discriminator 1)
	// loop here;
	while(1);
  10053c:	a001                	j	10053c <__main+0xc>
	...

00100540 <csi_vic_enable_irq>:
csi_vic_enable_irq():
C:\HJJ\Career\MimicMCU\demo\function_cpus\RISCV\src/system.c:106
    return (result);
}


__STATIC_INLINE void csi_vic_enable_irq(int32_t IRQn)
{
  100540:	1101                	addi	sp,sp,-32
  100542:	ce22                	sw	s0,28(sp)
  100544:	1000                	addi	s0,sp,32
  100546:	fea42623          	sw	a0,-20(s0)
C:\HJJ\Career\MimicMCU\demo\function_cpus\RISCV\src/system.c:107
    CLIC->CLICINT[IRQn].IE |= CLIC_INTIE_IE_Msk;
  10054a:	e0800737          	lui	a4,0xe0800
  10054e:	fec42783          	lw	a5,-20(s0)
  100552:	40078793          	addi	a5,a5,1024
  100556:	078a                	slli	a5,a5,0x2
  100558:	97ba                	add	a5,a5,a4
  10055a:	0017c783          	lbu	a5,1(a5)
  10055e:	0ff7f793          	andi	a5,a5,255
  100562:	e08006b7          	lui	a3,0xe0800
  100566:	0017e793          	ori	a5,a5,1
  10056a:	0ff7f713          	andi	a4,a5,255
  10056e:	fec42783          	lw	a5,-20(s0)
  100572:	40078793          	addi	a5,a5,1024
  100576:	078a                	slli	a5,a5,0x2
  100578:	97b6                	add	a5,a5,a3
  10057a:	00e780a3          	sb	a4,1(a5)
C:\HJJ\Career\MimicMCU\demo\function_cpus\RISCV\src/system.c:108
}
  10057e:	0001                	nop
  100580:	4472                	lw	s0,28(sp)
  100582:	6105                	addi	sp,sp,32
  100584:	8082                	ret
  100586:	00000013          	nop
  10058a:	00000013          	nop
  10058e:	0001                	nop

00100590 <csi_vic_set_prio>:
csi_vic_set_prio():
C:\HJJ\Career\MimicMCU\demo\function_cpus\RISCV\src/system.c:121
{
    return (uint32_t)(CLIC->CLICINT[IRQn].IP & CLIC_INTIP_IP_Msk);
}

__STATIC_INLINE void csi_vic_set_prio(int32_t IRQn, uint32_t priority)
{
  100590:	7179                	addi	sp,sp,-48
  100592:	d622                	sw	s0,44(sp)
  100594:	1800                	addi	s0,sp,48
  100596:	fca42e23          	sw	a0,-36(s0)
  10059a:	fcb42c23          	sw	a1,-40(s0)
C:\HJJ\Career\MimicMCU\demo\function_cpus\RISCV\src/system.c:122
    uint8_t nlbits = (CLIC->CLICINFO & CLIC_INFO_CLICINTCTLBITS_Msk) >> CLIC_INFO_CLICINTCTLBITS_Pos;
  10059e:	e08007b7          	lui	a5,0xe0800
  1005a2:	43dc                	lw	a5,4(a5)
  1005a4:	83d5                	srli	a5,a5,0x15
  1005a6:	0ff7f793          	andi	a5,a5,255
  1005aa:	8bbd                	andi	a5,a5,15
  1005ac:	fef407a3          	sb	a5,-17(s0)
C:\HJJ\Career\MimicMCU\demo\function_cpus\RISCV\src/system.c:123
    CLIC->CLICINT[IRQn].CTL = (CLIC->CLICINT[IRQn].CTL & (~CLIC_INTCFG_PRIO_Msk)) | (priority << (8 - nlbits));
  1005b0:	e0800737          	lui	a4,0xe0800
  1005b4:	fdc42783          	lw	a5,-36(s0)
  1005b8:	40078793          	addi	a5,a5,1024 # e0800400 <__stack+0xc06d4400>
  1005bc:	078a                	slli	a5,a5,0x2
  1005be:	97ba                	add	a5,a5,a4
  1005c0:	0037c783          	lbu	a5,3(a5)
  1005c4:	0ff7f793          	andi	a5,a5,255
  1005c8:	8bfd                	andi	a5,a5,31
  1005ca:	0ff7f713          	andi	a4,a5,255
  1005ce:	fef44783          	lbu	a5,-17(s0)
  1005d2:	46a1                	li	a3,8
  1005d4:	40f687b3          	sub	a5,a3,a5
  1005d8:	fd842683          	lw	a3,-40(s0)
  1005dc:	00f697b3          	sll	a5,a3,a5
  1005e0:	0ff7f793          	andi	a5,a5,255
  1005e4:	e08006b7          	lui	a3,0xe0800
  1005e8:	8fd9                	or	a5,a5,a4
  1005ea:	0ff7f713          	andi	a4,a5,255
  1005ee:	fdc42783          	lw	a5,-36(s0)
  1005f2:	40078793          	addi	a5,a5,1024
  1005f6:	078a                	slli	a5,a5,0x2
  1005f8:	97b6                	add	a5,a5,a3
  1005fa:	00e781a3          	sb	a4,3(a5)
C:\HJJ\Career\MimicMCU\demo\function_cpus\RISCV\src/system.c:124
}
  1005fe:	0001                	nop
  100600:	5432                	lw	s0,44(sp)
  100602:	6145                	addi	sp,sp,48
  100604:	8082                	ret
  100606:	00000013          	nop
  10060a:	00000013          	nop
  10060e:	0001                	nop

00100610 <csi_vic_set_shv_vector>:
csi_vic_set_shv_vector():
C:\HJJ\Career\MimicMCU\demo\function_cpus\RISCV\src/system.c:138
{
    return (uint32_t)(CLIC->CLICINT[IRQn].CTL);
}

__STATIC_INLINE void csi_vic_set_shv_vector(int32_t IRQn)
{
  100610:	1101                	addi	sp,sp,-32
  100612:	ce22                	sw	s0,28(sp)
  100614:	1000                	addi	s0,sp,32
  100616:	fea42623          	sw	a0,-20(s0)
C:\HJJ\Career\MimicMCU\demo\function_cpus\RISCV\src/system.c:139
     CLIC->CLICINT[IRQn].ATTR |= CLIC_INTATTR_SHV_Msk;    // vector mode interrupt
  10061a:	e0800737          	lui	a4,0xe0800
  10061e:	fec42783          	lw	a5,-20(s0)
  100622:	40078793          	addi	a5,a5,1024
  100626:	078a                	slli	a5,a5,0x2
  100628:	97ba                	add	a5,a5,a4
  10062a:	0027c783          	lbu	a5,2(a5)
  10062e:	0ff7f793          	andi	a5,a5,255
  100632:	e08006b7          	lui	a3,0xe0800
  100636:	0017e793          	ori	a5,a5,1
  10063a:	0ff7f713          	andi	a4,a5,255
  10063e:	fec42783          	lw	a5,-20(s0)
  100642:	40078793          	addi	a5,a5,1024
  100646:	078a                	slli	a5,a5,0x2
  100648:	97b6                	add	a5,a5,a3
  10064a:	00e78123          	sb	a4,2(a5)
C:\HJJ\Career\MimicMCU\demo\function_cpus\RISCV\src/system.c:140
}
  10064e:	0001                	nop
  100650:	4472                	lw	s0,28(sp)
  100652:	6105                	addi	sp,sp,32
  100654:	8082                	ret
  100656:	00000013          	nop
  10065a:	00000013          	nop
  10065e:	0001                	nop

00100660 <print_status>:
print_status():
C:\HJJ\Career\MimicMCU\demo\function_cpus\RISCV\src/system.c:152
__STATIC_INLINE uint32_t csi_vic_get_attr(int32_t IRQn)
{
    return (uint32_t)(CLIC->CLICINT[IRQn].ATTR);
}

void print_status(){
  100660:	1101                	addi	sp,sp,-32
  100662:	ce06                	sw	ra,28(sp)
  100664:	cc22                	sw	s0,24(sp)
  100666:	1000                	addi	s0,sp,32
__get_MSTATUS():
C:\HJJ\Career\MimicMCU\demo\function_cpus\RISCV\src/system.c:21
    __ASM volatile("csrr %0, mstatus" : "=r"(result));
  100668:	300027f3          	csrr	a5,mstatus
  10066c:	fef42023          	sw	a5,-32(s0)
C:\HJJ\Career\MimicMCU\demo\function_cpus\RISCV\src/system.c:22
    return (result);
  100670:	fe042783          	lw	a5,-32(s0)
print_status():
C:\HJJ\Career\MimicMCU\demo\function_cpus\RISCV\src/system.c:153
  uint32_t temp = __get_MSTATUS();
  100674:	fef42623          	sw	a5,-20(s0)
C:\HJJ\Career\MimicMCU\demo\function_cpus\RISCV\src/system.c:154
  uart_printf("mstatus = %x\r\n", temp);
  100678:	fec42583          	lw	a1,-20(s0)
  10067c:	001047b7          	lui	a5,0x104
  100680:	84078513          	addi	a0,a5,-1984 # 103840 <__etext>
  100684:	02d010ef          	jal	ra,101eb0 <uart_printf>
__get_MTVEC():
C:\HJJ\Career\MimicMCU\demo\function_cpus\RISCV\src/system.c:67
    __ASM volatile("csrr %0, mtvec" : "=r"(result));
  100688:	305027f3          	csrr	a5,mtvec
  10068c:	fef42223          	sw	a5,-28(s0)
C:\HJJ\Career\MimicMCU\demo\function_cpus\RISCV\src/system.c:68
    return (result);
  100690:	fe442783          	lw	a5,-28(s0)
print_status():
C:\HJJ\Career\MimicMCU\demo\function_cpus\RISCV\src/system.c:165
  // uart_printf("mie     = %x\r\n", temp);
  // __asm volatile( "csrs mie, %0" :: "r"(0x888) );
  // temp = __get_MIE();
  // uart_printf("mie     = %x\r\n", temp);

  temp = __get_MTVEC();
  100694:	fef42623          	sw	a5,-20(s0)
C:\HJJ\Career\MimicMCU\demo\function_cpus\RISCV\src/system.c:166
  uart_printf("mtvec   = %x\r\n", temp);
  100698:	fec42583          	lw	a1,-20(s0)
  10069c:	001047b7          	lui	a5,0x104
  1006a0:	85078513          	addi	a0,a5,-1968 # 103850 <__etext+0x10>
  1006a4:	00d010ef          	jal	ra,101eb0 <uart_printf>
__get_MTVT():
C:\HJJ\Career\MimicMCU\demo\function_cpus\RISCV\src/system.c:100
    __ASM volatile("csrr %0, mtvt" : "=r"(result));
  1006a8:	307027f3          	csrr	a5,mtvt
  1006ac:	fef42423          	sw	a5,-24(s0)
C:\HJJ\Career\MimicMCU\demo\function_cpus\RISCV\src/system.c:101
    return (result);
  1006b0:	fe842783          	lw	a5,-24(s0)
print_status():
C:\HJJ\Career\MimicMCU\demo\function_cpus\RISCV\src/system.c:167
  temp = __get_MTVT();
  1006b4:	fef42623          	sw	a5,-20(s0)
C:\HJJ\Career\MimicMCU\demo\function_cpus\RISCV\src/system.c:168
  uart_printf("mtvt    = %x\r\n", temp);
  1006b8:	fec42583          	lw	a1,-20(s0)
  1006bc:	001047b7          	lui	a5,0x104
  1006c0:	86078513          	addi	a0,a5,-1952 # 103860 <__etext+0x20>
  1006c4:	7ec010ef          	jal	ra,101eb0 <uart_printf>
C:\HJJ\Career\MimicMCU\demo\function_cpus\RISCV\src/system.c:171

  // uart_printf("CLICCFG      = %x,%x\r\n", *((volatile uint8_t *)(CLIC_BASE + 4 * 0)), CLIC->CLICCFG);
  uart_printf("CLICCFG(new) = %x\r\n", CLIC->CLICCFG);
  1006c8:	e08007b7          	lui	a5,0xe0800
  1006cc:	0007c783          	lbu	a5,0(a5) # e0800000 <__stack+0xc06d4000>
  1006d0:	0ff7f793          	andi	a5,a5,255
  1006d4:	85be                	mv	a1,a5
  1006d6:	001047b7          	lui	a5,0x104
  1006da:	87078513          	addi	a0,a5,-1936 # 103870 <__etext+0x30>
  1006de:	7d2010ef          	jal	ra,101eb0 <uart_printf>
C:\HJJ\Career\MimicMCU\demo\function_cpus\RISCV\src/system.c:172
  uart_printf("CLICINFO     = %x,%x\r\n", *((volatile uint32_t *)(CLIC_BASE + 4 * 1)), CLIC->CLICINFO);
  1006e2:	e08007b7          	lui	a5,0xe0800
  1006e6:	0791                	addi	a5,a5,4
  1006e8:	4398                	lw	a4,0(a5)
  1006ea:	e08007b7          	lui	a5,0xe0800
  1006ee:	43dc                	lw	a5,4(a5)
  1006f0:	863e                	mv	a2,a5
  1006f2:	85ba                	mv	a1,a4
  1006f4:	001047b7          	lui	a5,0x104
  1006f8:	88478513          	addi	a0,a5,-1916 # 103884 <__etext+0x44>
  1006fc:	7b4010ef          	jal	ra,101eb0 <uart_printf>
C:\HJJ\Career\MimicMCU\demo\function_cpus\RISCV\src/system.c:173
  uart_printf("MINTTHRESH   = %x,%x\r\n", *((volatile uint32_t *)(CLIC_BASE + 4 * 2)), CLIC->MINTTHRESH);
  100700:	e08007b7          	lui	a5,0xe0800
  100704:	07a1                	addi	a5,a5,8
  100706:	4398                	lw	a4,0(a5)
  100708:	e08007b7          	lui	a5,0xe0800
  10070c:	479c                	lw	a5,8(a5)
  10070e:	863e                	mv	a2,a5
  100710:	85ba                	mv	a1,a4
  100712:	001047b7          	lui	a5,0x104
  100716:	89c78513          	addi	a0,a5,-1892 # 10389c <__etext+0x5c>
  10071a:	796010ef          	jal	ra,101eb0 <uart_printf>
C:\HJJ\Career\MimicMCU\demo\function_cpus\RISCV\src/system.c:185
  // get interrupt level from info
  // *((volatile uint8_t *)0xE0800000) = 0x1f; // 0x07;
  // CLIC->CLICCFG = (((CLIC->CLICINFO & CLIC_INFO_CLICINTCTLBITS_Msk) >> CLIC_INFO_CLICINTCTLBITS_Pos) << CLIC_CLICCFG_NLBIT_Pos);
//   uart_printf("CLICCFG    = %02x\r\n", *((volatile uint8_t *)(CLIC_BASE + 4 * 0)));
  // uart_printf("CLICCFG    = %02x\r\n", *((volatile uint8_t *)0xE0800000));
}
  10071e:	0001                	nop
  100720:	40f2                	lw	ra,28(sp)
  100722:	4462                	lw	s0,24(sp)
  100724:	6105                	addi	sp,sp,32
  100726:	8082                	ret
  100728:	00000013          	nop
  10072c:	00000013          	nop

00100730 <print_clic_irq>:
print_clic_irq():
C:\HJJ\Career\MimicMCU\demo\function_cpus\RISCV\src/system.c:187

void print_clic_irq(uint32_t n) {
  100730:	1101                	addi	sp,sp,-32
  100732:	ce06                	sw	ra,28(sp)
  100734:	cc22                	sw	s0,24(sp)
  100736:	1000                	addi	s0,sp,32
  100738:	fea42623          	sw	a0,-20(s0)
C:\HJJ\Career\MimicMCU\demo\function_cpus\RISCV\src/system.c:188
  n = n + 16; // Very important! CLIC ctrl external irq from 16
  10073c:	fec42783          	lw	a5,-20(s0)
  100740:	07c1                	addi	a5,a5,16
  100742:	fef42623          	sw	a5,-20(s0)
C:\HJJ\Career\MimicMCU\demo\function_cpus\RISCV\src/system.c:189
  uart_printf("CLICINT[%u]     = %x\r\n", n, *((volatile uint32_t *)(CLIC_INI_BASE + n * CLIC_INT_INTERVAL)));
  100746:	fec42703          	lw	a4,-20(s0)
  10074a:	382007b7          	lui	a5,0x38200
  10074e:	40078793          	addi	a5,a5,1024 # 38200400 <__stack+0x180d4400>
  100752:	97ba                	add	a5,a5,a4
  100754:	078a                	slli	a5,a5,0x2
  100756:	439c                	lw	a5,0(a5)
  100758:	863e                	mv	a2,a5
  10075a:	fec42583          	lw	a1,-20(s0)
  10075e:	001047b7          	lui	a5,0x104
  100762:	8b478513          	addi	a0,a5,-1868 # 1038b4 <__etext+0x74>
  100766:	74a010ef          	jal	ra,101eb0 <uart_printf>
C:\HJJ\Career\MimicMCU\demo\function_cpus\RISCV\src/system.c:190
}
  10076a:	0001                	nop
  10076c:	40f2                	lw	ra,28(sp)
  10076e:	4462                	lw	s0,24(sp)
  100770:	6105                	addi	sp,sp,32
  100772:	8082                	ret
  100774:	00000013          	nop
  100778:	00000013          	nop
  10077c:	00000013          	nop

00100780 <update_cliccfg>:
update_cliccfg():
C:\HJJ\Career\MimicMCU\demo\function_cpus\RISCV\src/system.c:193


void update_cliccfg(void) {
  100780:	1141                	addi	sp,sp,-16
  100782:	c622                	sw	s0,12(sp)
  100784:	0800                	addi	s0,sp,16
C:\HJJ\Career\MimicMCU\demo\function_cpus\RISCV\src/system.c:194
  CLIC->CLICCFG = (((CLIC->CLICINFO & CLIC_INFO_CLICINTCTLBITS_Msk) >> CLIC_INFO_CLICINTCTLBITS_Pos) << CLIC_CLICCFG_NLBIT_Pos);
  100786:	e08007b7          	lui	a5,0xe0800
  10078a:	43dc                	lw	a5,4(a5)
  10078c:	83d5                	srli	a5,a5,0x15
  10078e:	0ff7f793          	andi	a5,a5,255
  100792:	0786                	slli	a5,a5,0x1
  100794:	0ff7f713          	andi	a4,a5,255
  100798:	e08007b7          	lui	a5,0xe0800
  10079c:	8b79                	andi	a4,a4,30
  10079e:	0ff77713          	andi	a4,a4,255
  1007a2:	00e78023          	sb	a4,0(a5) # e0800000 <__stack+0xc06d4000>
C:\HJJ\Career\MimicMCU\demo\function_cpus\RISCV\src/system.c:195
}
  1007a6:	0001                	nop
  1007a8:	4432                	lw	s0,12(sp)
  1007aa:	0141                	addi	sp,sp,16
  1007ac:	8082                	ret
  1007ae:	0001                	nop

001007b0 <enable_irq>:
enable_irq():
C:\HJJ\Career\MimicMCU\demo\function_cpus\RISCV\src/system.c:197

void enable_irq(int32_t n) {
  1007b0:	1101                	addi	sp,sp,-32
  1007b2:	ce06                	sw	ra,28(sp)
  1007b4:	cc22                	sw	s0,24(sp)
  1007b6:	1000                	addi	s0,sp,32
  1007b8:	fea42623          	sw	a0,-20(s0)
C:\HJJ\Career\MimicMCU\demo\function_cpus\RISCV\src/system.c:198
  n = n + 16; // Very important! CLIC ctrl external irq from 16
  1007bc:	fec42783          	lw	a5,-20(s0)
  1007c0:	07c1                	addi	a5,a5,16
  1007c2:	fef42623          	sw	a5,-20(s0)
C:\HJJ\Career\MimicMCU\demo\function_cpus\RISCV\src/system.c:205
  // *((volatile uint8_t *)(CLIC_INI_BASE + n * CLIC_INT_INTERVAL + CLIC_INI_ATTR_OFFSET)) = 0xc1;
  // *((volatile uint8_t *)(CLIC_INI_BASE + n * CLIC_INT_INTERVAL + CLIC_INI_CTL_OFFSET)) = 0x3f; // 63: lllx xxxx = 0011 1111
  // *((volatile uint8_t *)(CLIC_INI_BASE + n * CLIC_INT_INTERVAL + CLIC_INI_IE_OFFSET)) = 1;

  // csi_vic_set_prio(n, 1); // prio = 1, nlbits = 3, ctrl = lllx xxxx = 0011 1111 = 63 !
  csi_vic_set_prio(n, 7 - (n - 16));
  1007c6:	475d                	li	a4,23
  1007c8:	fec42783          	lw	a5,-20(s0)
  1007cc:	40f707b3          	sub	a5,a4,a5
  1007d0:	85be                	mv	a1,a5
  1007d2:	fec42503          	lw	a0,-20(s0)
  1007d6:	3b6d                	jal	100590 <csi_vic_set_prio>
C:\HJJ\Career\MimicMCU\demo\function_cpus\RISCV\src/system.c:213

//   csi_vic_get_ctrl(n); // got 63 !

//   csi_vic_get_attr(n);
  // csi_vic_set_shv_non_vector(n);
  csi_vic_set_shv_vector(n);
  1007d8:	fec42503          	lw	a0,-20(s0)
  1007dc:	3d15                	jal	100610 <csi_vic_set_shv_vector>
C:\HJJ\Career\MimicMCU\demo\function_cpus\RISCV\src/system.c:216
//   csi_vic_get_attr(n);

  csi_vic_enable_irq(n);
  1007de:	fec42503          	lw	a0,-20(s0)
  1007e2:	3bb9                	jal	100540 <csi_vic_enable_irq>
C:\HJJ\Career\MimicMCU\demo\function_cpus\RISCV\src/system.c:219
//   csi_vic_get_enabled_irq(n);
  // uart_printf("RV External irq %d: IE=%x, ATTR=%x, CTL=%x\r\n", n-16, CLIC->CLICINT[n].IE, CLIC->CLICINT[n].ATTR, CLIC->CLICINT[n].CTL);
}
  1007e4:	0001                	nop
  1007e6:	40f2                	lw	ra,28(sp)
  1007e8:	4462                	lw	s0,24(sp)
  1007ea:	6105                	addi	sp,sp,32
  1007ec:	8082                	ret
	...

00100800 <pml_putc>:
pml_putc():
C:\HJJ\Career\MimicMCU\demo\function_cpus\application/main.c:8
#include "uart_print.h"
#include "driver_common.h"
#include "context.h"
#include "work.h"

void pml_putc(char data) {
  100800:	1101                	addi	sp,sp,-32
  100802:	ce22                	sw	s0,28(sp)
  100804:	1000                	addi	s0,sp,32
  100806:	87aa                	mv	a5,a0
  100808:	fef407a3          	sb	a5,-17(s0)
C:\HJJ\Career\MimicMCU\demo\function_cpus\application/main.c:9
  while ((HM_UART0->CSR & UART_CSR_TFUL_MASK));
  10080c:	0001                	nop
C:\HJJ\Career\MimicMCU\demo\function_cpus\application/main.c:9 (discriminator 1)
  10080e:	4000c7b7          	lui	a5,0x4000c
  100812:	57dc                	lw	a5,44(a5)
  100814:	8bc1                	andi	a5,a5,16
  100816:	ffe5                	bnez	a5,10080e <pml_putc+0xe>
C:\HJJ\Career\MimicMCU\demo\function_cpus\application/main.c:10
  HM_UART0->TFIFO = data;
  100818:	4000c7b7          	lui	a5,0x4000c
  10081c:	fef44703          	lbu	a4,-17(s0)
  100820:	db98                	sw	a4,48(a5)
C:\HJJ\Career\MimicMCU\demo\function_cpus\application/main.c:11
}
  100822:	0001                	nop
  100824:	4472                	lw	s0,28(sp)
  100826:	6105                	addi	sp,sp,32
  100828:	8082                	ret
  10082a:	00000013          	nop
  10082e:	0001                	nop

00100830 <pml_printn>:
pml_printn():
C:\HJJ\Career\MimicMCU\demo\function_cpus\application/main.c:15

static const char charmap[16] = "0123456789abcdef";

static void pml_printn(unsigned n, unsigned bas) {
  100830:	7179                	addi	sp,sp,-48
  100832:	d606                	sw	ra,44(sp)
  100834:	d422                	sw	s0,40(sp)
  100836:	1800                	addi	s0,sp,48
  100838:	fca42e23          	sw	a0,-36(s0)
  10083c:	fcb42c23          	sw	a1,-40(s0)
C:\HJJ\Career\MimicMCU\demo\function_cpus\application/main.c:18
  unsigned r;

  if ((r = n / bas) != 0) pml_printn(r, bas);
  100840:	fdc42703          	lw	a4,-36(s0)
  100844:	fd842783          	lw	a5,-40(s0)
  100848:	02f757b3          	divu	a5,a4,a5
  10084c:	fef42623          	sw	a5,-20(s0)
  100850:	fec42783          	lw	a5,-20(s0)
  100854:	c791                	beqz	a5,100860 <pml_printn+0x30>
C:\HJJ\Career\MimicMCU\demo\function_cpus\application/main.c:18 (discriminator 1)
  100856:	fd842583          	lw	a1,-40(s0)
  10085a:	fec42503          	lw	a0,-20(s0)
  10085e:	3fc9                	jal	100830 <pml_printn>
C:\HJJ\Career\MimicMCU\demo\function_cpus\application/main.c:19
  pml_putc(charmap[n % bas]);
  100860:	fdc42703          	lw	a4,-36(s0)
  100864:	fd842783          	lw	a5,-40(s0)
  100868:	02f77733          	remu	a4,a4,a5
  10086c:	001047b7          	lui	a5,0x104
  100870:	8cc78793          	addi	a5,a5,-1844 # 1038cc <charmap>
  100874:	97ba                	add	a5,a5,a4
  100876:	0007c783          	lbu	a5,0(a5)
  10087a:	853e                	mv	a0,a5
  10087c:	3751                	jal	100800 <pml_putc>
C:\HJJ\Career\MimicMCU\demo\function_cpus\application/main.c:20
}
  10087e:	0001                	nop
  100880:	50b2                	lw	ra,44(sp)
  100882:	5422                	lw	s0,40(sp)
  100884:	6145                	addi	sp,sp,48
  100886:	8082                	ret
  100888:	00000013          	nop
  10088c:	00000013          	nop

00100890 <pml_print>:
pml_print():
C:\HJJ\Career\MimicMCU\demo\function_cpus\application/main.c:22

void pml_print(const char *fmt, ...) {
  100890:	711d                	addi	sp,sp,-96
  100892:	de06                	sw	ra,60(sp)
  100894:	dc22                	sw	s0,56(sp)
  100896:	0080                	addi	s0,sp,64
  100898:	fca42623          	sw	a0,-52(s0)
  10089c:	c04c                	sw	a1,4(s0)
  10089e:	c410                	sw	a2,8(s0)
  1008a0:	c454                	sw	a3,12(s0)
  1008a2:	c818                	sw	a4,16(s0)
  1008a4:	c85c                	sw	a5,20(s0)
  1008a6:	01042c23          	sw	a6,24(s0)
  1008aa:	01142e23          	sw	a7,28(s0)
C:\HJJ\Career\MimicMCU\demo\function_cpus\application/main.c:23
  char c = 0, *s = NULL;
  1008ae:	fe0405a3          	sb	zero,-21(s0)
  1008b2:	fe042623          	sw	zero,-20(s0)
C:\HJJ\Career\MimicMCU\demo\function_cpus\application/main.c:24
  unsigned n = 0;
  1008b6:	fe042223          	sw	zero,-28(s0)
C:\HJJ\Career\MimicMCU\demo\function_cpus\application/main.c:27

  va_list args;
  int t = 0;
  1008ba:	fe042023          	sw	zero,-32(s0)
C:\HJJ\Career\MimicMCU\demo\function_cpus\application/main.c:29

  va_start(args, fmt);
  1008be:	02040793          	addi	a5,s0,32
  1008c2:	1791                	addi	a5,a5,-28
  1008c4:	fcf42e23          	sw	a5,-36(s0)
C:\HJJ\Career\MimicMCU\demo\function_cpus\application/main.c:31

  while ((c = *fmt++) != '\0') {
  1008c8:	a411                	j	100acc <pml_print+0x23c>
C:\HJJ\Career\MimicMCU\demo\function_cpus\application/main.c:32
    if (c != '%') {
  1008ca:	feb44703          	lbu	a4,-21(s0)
  1008ce:	02500793          	li	a5,37
  1008d2:	00f70763          	beq	a4,a5,1008e0 <pml_print+0x50>
C:\HJJ\Career\MimicMCU\demo\function_cpus\application/main.c:33
      pml_putc(c);
  1008d6:	feb44783          	lbu	a5,-21(s0)
  1008da:	853e                	mv	a0,a5
  1008dc:	3715                	jal	100800 <pml_putc>
C:\HJJ\Career\MimicMCU\demo\function_cpus\application/main.c:34
      continue;
  1008de:	a2fd                	j	100acc <pml_print+0x23c>
C:\HJJ\Career\MimicMCU\demo\function_cpus\application/main.c:37
    }

    switch (c = *fmt++) {
  1008e0:	fcc42783          	lw	a5,-52(s0)
  1008e4:	00178713          	addi	a4,a5,1
  1008e8:	fce42623          	sw	a4,-52(s0)
  1008ec:	0007c783          	lbu	a5,0(a5)
  1008f0:	fef405a3          	sb	a5,-21(s0)
  1008f4:	feb44783          	lbu	a5,-21(s0)
  1008f8:	fa878793          	addi	a5,a5,-88
  1008fc:	02000713          	li	a4,32
  100900:	1af76863          	bltu	a4,a5,100ab0 <pml_print+0x220>
  100904:	00279713          	slli	a4,a5,0x2
  100908:	001047b7          	lui	a5,0x104
  10090c:	8dc78793          	addi	a5,a5,-1828 # 1038dc <charmap+0x10>
  100910:	97ba                	add	a5,a5,a4
  100912:	439c                	lw	a5,0(a5)
  100914:	8782                	jr	a5
C:\HJJ\Career\MimicMCU\demo\function_cpus\application/main.c:39
      case 'o':
        t = va_arg(args, int);
  100916:	fdc42783          	lw	a5,-36(s0)
  10091a:	00478713          	addi	a4,a5,4
  10091e:	fce42e23          	sw	a4,-36(s0)
  100922:	439c                	lw	a5,0(a5)
  100924:	fef42023          	sw	a5,-32(s0)
C:\HJJ\Career\MimicMCU\demo\function_cpus\application/main.c:40
        pml_printn(t, 8);
  100928:	fe042783          	lw	a5,-32(s0)
  10092c:	45a1                	li	a1,8
  10092e:	853e                	mv	a0,a5
  100930:	3701                	jal	100830 <pml_printn>
C:\HJJ\Career\MimicMCU\demo\function_cpus\application/main.c:41
        break;
  100932:	aa69                	j	100acc <pml_print+0x23c>
C:\HJJ\Career\MimicMCU\demo\function_cpus\application/main.c:43
      case 'u':
        t = va_arg(args, int);
  100934:	fdc42783          	lw	a5,-36(s0)
  100938:	00478713          	addi	a4,a5,4
  10093c:	fce42e23          	sw	a4,-36(s0)
  100940:	439c                	lw	a5,0(a5)
  100942:	fef42023          	sw	a5,-32(s0)
C:\HJJ\Career\MimicMCU\demo\function_cpus\application/main.c:44
        pml_printn(t, 10);
  100946:	fe042783          	lw	a5,-32(s0)
  10094a:	45a9                	li	a1,10
  10094c:	853e                	mv	a0,a5
  10094e:	35cd                	jal	100830 <pml_printn>
C:\HJJ\Career\MimicMCU\demo\function_cpus\application/main.c:45
        break;
  100950:	aab5                	j	100acc <pml_print+0x23c>
C:\HJJ\Career\MimicMCU\demo\function_cpus\application/main.c:48
      case 'x':
      case 'X':
        n = va_arg(args, unsigned int);
  100952:	fdc42783          	lw	a5,-36(s0)
  100956:	00478713          	addi	a4,a5,4
  10095a:	fce42e23          	sw	a4,-36(s0)
  10095e:	439c                	lw	a5,0(a5)
  100960:	fef42223          	sw	a5,-28(s0)
C:\HJJ\Career\MimicMCU\demo\function_cpus\application/main.c:50

        if (n >> 28) pml_putc(charmap[(n >> 28) & 0x0f]);
  100964:	fe442783          	lw	a5,-28(s0)
  100968:	83f1                	srli	a5,a5,0x1c
  10096a:	cf91                	beqz	a5,100986 <pml_print+0xf6>
C:\HJJ\Career\MimicMCU\demo\function_cpus\application/main.c:50 (discriminator 1)
  10096c:	fe442783          	lw	a5,-28(s0)
  100970:	01c7d713          	srli	a4,a5,0x1c
  100974:	001047b7          	lui	a5,0x104
  100978:	8cc78793          	addi	a5,a5,-1844 # 1038cc <charmap>
  10097c:	97ba                	add	a5,a5,a4
  10097e:	0007c783          	lbu	a5,0(a5)
  100982:	853e                	mv	a0,a5
  100984:	3db5                	jal	100800 <pml_putc>
C:\HJJ\Career\MimicMCU\demo\function_cpus\application/main.c:51
        if (n >> 24) pml_putc(charmap[(n >> 24) & 0x0f]);
  100986:	fe442783          	lw	a5,-28(s0)
  10098a:	83e1                	srli	a5,a5,0x18
  10098c:	cf99                	beqz	a5,1009aa <pml_print+0x11a>
C:\HJJ\Career\MimicMCU\demo\function_cpus\application/main.c:51 (discriminator 1)
  10098e:	fe442783          	lw	a5,-28(s0)
  100992:	83e1                	srli	a5,a5,0x18
  100994:	00f7f713          	andi	a4,a5,15
  100998:	001047b7          	lui	a5,0x104
  10099c:	8cc78793          	addi	a5,a5,-1844 # 1038cc <charmap>
  1009a0:	97ba                	add	a5,a5,a4
  1009a2:	0007c783          	lbu	a5,0(a5)
  1009a6:	853e                	mv	a0,a5
  1009a8:	3da1                	jal	100800 <pml_putc>
C:\HJJ\Career\MimicMCU\demo\function_cpus\application/main.c:52
        if (n >> 20) pml_putc(charmap[(n >> 20) & 0x0f]);
  1009aa:	fe442783          	lw	a5,-28(s0)
  1009ae:	83d1                	srli	a5,a5,0x14
  1009b0:	cf99                	beqz	a5,1009ce <pml_print+0x13e>
C:\HJJ\Career\MimicMCU\demo\function_cpus\application/main.c:52 (discriminator 1)
  1009b2:	fe442783          	lw	a5,-28(s0)
  1009b6:	83d1                	srli	a5,a5,0x14
  1009b8:	00f7f713          	andi	a4,a5,15
  1009bc:	001047b7          	lui	a5,0x104
  1009c0:	8cc78793          	addi	a5,a5,-1844 # 1038cc <charmap>
  1009c4:	97ba                	add	a5,a5,a4
  1009c6:	0007c783          	lbu	a5,0(a5)
  1009ca:	853e                	mv	a0,a5
  1009cc:	3d15                	jal	100800 <pml_putc>
C:\HJJ\Career\MimicMCU\demo\function_cpus\application/main.c:53
        if (n >> 16) pml_putc(charmap[(n >> 16) & 0x0f]);
  1009ce:	fe442783          	lw	a5,-28(s0)
  1009d2:	83c1                	srli	a5,a5,0x10
  1009d4:	cf99                	beqz	a5,1009f2 <pml_print+0x162>
C:\HJJ\Career\MimicMCU\demo\function_cpus\application/main.c:53 (discriminator 1)
  1009d6:	fe442783          	lw	a5,-28(s0)
  1009da:	83c1                	srli	a5,a5,0x10
  1009dc:	00f7f713          	andi	a4,a5,15
  1009e0:	001047b7          	lui	a5,0x104
  1009e4:	8cc78793          	addi	a5,a5,-1844 # 1038cc <charmap>
  1009e8:	97ba                	add	a5,a5,a4
  1009ea:	0007c783          	lbu	a5,0(a5)
  1009ee:	853e                	mv	a0,a5
  1009f0:	3d01                	jal	100800 <pml_putc>
C:\HJJ\Career\MimicMCU\demo\function_cpus\application/main.c:54
        if (n >> 12) pml_putc(charmap[(n >> 12) & 0x0f]);
  1009f2:	fe442783          	lw	a5,-28(s0)
  1009f6:	83b1                	srli	a5,a5,0xc
  1009f8:	cf99                	beqz	a5,100a16 <pml_print+0x186>
C:\HJJ\Career\MimicMCU\demo\function_cpus\application/main.c:54 (discriminator 1)
  1009fa:	fe442783          	lw	a5,-28(s0)
  1009fe:	83b1                	srli	a5,a5,0xc
  100a00:	00f7f713          	andi	a4,a5,15
  100a04:	001047b7          	lui	a5,0x104
  100a08:	8cc78793          	addi	a5,a5,-1844 # 1038cc <charmap>
  100a0c:	97ba                	add	a5,a5,a4
  100a0e:	0007c783          	lbu	a5,0(a5)
  100a12:	853e                	mv	a0,a5
  100a14:	33f5                	jal	100800 <pml_putc>
C:\HJJ\Career\MimicMCU\demo\function_cpus\application/main.c:55
        if (n >> 8) pml_putc(charmap[(n >> 8) & 0x0f]);
  100a16:	fe442783          	lw	a5,-28(s0)
  100a1a:	83a1                	srli	a5,a5,0x8
  100a1c:	cf99                	beqz	a5,100a3a <pml_print+0x1aa>
C:\HJJ\Career\MimicMCU\demo\function_cpus\application/main.c:55 (discriminator 1)
  100a1e:	fe442783          	lw	a5,-28(s0)
  100a22:	83a1                	srli	a5,a5,0x8
  100a24:	00f7f713          	andi	a4,a5,15
  100a28:	001047b7          	lui	a5,0x104
  100a2c:	8cc78793          	addi	a5,a5,-1844 # 1038cc <charmap>
  100a30:	97ba                	add	a5,a5,a4
  100a32:	0007c783          	lbu	a5,0(a5)
  100a36:	853e                	mv	a0,a5
  100a38:	33e1                	jal	100800 <pml_putc>
C:\HJJ\Career\MimicMCU\demo\function_cpus\application/main.c:56
        if (n >> 4) pml_putc(charmap[(n >> 4) & 0x0f]);
  100a3a:	fe442783          	lw	a5,-28(s0)
  100a3e:	8391                	srli	a5,a5,0x4
  100a40:	cf99                	beqz	a5,100a5e <pml_print+0x1ce>
C:\HJJ\Career\MimicMCU\demo\function_cpus\application/main.c:56 (discriminator 1)
  100a42:	fe442783          	lw	a5,-28(s0)
  100a46:	8391                	srli	a5,a5,0x4
  100a48:	00f7f713          	andi	a4,a5,15
  100a4c:	001047b7          	lui	a5,0x104
  100a50:	8cc78793          	addi	a5,a5,-1844 # 1038cc <charmap>
  100a54:	97ba                	add	a5,a5,a4
  100a56:	0007c783          	lbu	a5,0(a5)
  100a5a:	853e                	mv	a0,a5
  100a5c:	3355                	jal	100800 <pml_putc>
C:\HJJ\Career\MimicMCU\demo\function_cpus\application/main.c:57
        pml_putc(charmap[n & 0x0f]);
  100a5e:	fe442783          	lw	a5,-28(s0)
  100a62:	00f7f713          	andi	a4,a5,15
  100a66:	001047b7          	lui	a5,0x104
  100a6a:	8cc78793          	addi	a5,a5,-1844 # 1038cc <charmap>
  100a6e:	97ba                	add	a5,a5,a4
  100a70:	0007c783          	lbu	a5,0(a5)
  100a74:	853e                	mv	a0,a5
  100a76:	3369                	jal	100800 <pml_putc>
C:\HJJ\Career\MimicMCU\demo\function_cpus\application/main.c:58
        break;
  100a78:	a891                	j	100acc <pml_print+0x23c>
C:\HJJ\Career\MimicMCU\demo\function_cpus\application/main.c:61

      case 's':
        s = va_arg(args, char *);
  100a7a:	fdc42783          	lw	a5,-36(s0)
  100a7e:	00478713          	addi	a4,a5,4
  100a82:	fce42e23          	sw	a4,-36(s0)
  100a86:	439c                	lw	a5,0(a5)
  100a88:	fef42623          	sw	a5,-20(s0)
C:\HJJ\Career\MimicMCU\demo\function_cpus\application/main.c:62
        for (; *s != '\0'; ++s) {
  100a8c:	a821                	j	100aa4 <pml_print+0x214>
C:\HJJ\Career\MimicMCU\demo\function_cpus\application/main.c:63 (discriminator 2)
          pml_putc(*s);
  100a8e:	fec42783          	lw	a5,-20(s0)
  100a92:	0007c783          	lbu	a5,0(a5)
  100a96:	853e                	mv	a0,a5
  100a98:	33a5                	jal	100800 <pml_putc>
C:\HJJ\Career\MimicMCU\demo\function_cpus\application/main.c:62 (discriminator 2)
        for (; *s != '\0'; ++s) {
  100a9a:	fec42783          	lw	a5,-20(s0)
  100a9e:	0785                	addi	a5,a5,1
  100aa0:	fef42623          	sw	a5,-20(s0)
C:\HJJ\Career\MimicMCU\demo\function_cpus\application/main.c:62 (discriminator 1)
  100aa4:	fec42783          	lw	a5,-20(s0)
  100aa8:	0007c783          	lbu	a5,0(a5)
  100aac:	f3ed                	bnez	a5,100a8e <pml_print+0x1fe>
C:\HJJ\Career\MimicMCU\demo\function_cpus\application/main.c:65
        }
        break;
  100aae:	a839                	j	100acc <pml_print+0x23c>
C:\HJJ\Career\MimicMCU\demo\function_cpus\application/main.c:68

      default:
        c = va_arg(args, int);
  100ab0:	fdc42783          	lw	a5,-36(s0)
  100ab4:	00478713          	addi	a4,a5,4
  100ab8:	fce42e23          	sw	a4,-36(s0)
  100abc:	439c                	lw	a5,0(a5)
  100abe:	fef405a3          	sb	a5,-21(s0)
C:\HJJ\Career\MimicMCU\demo\function_cpus\application/main.c:69
        pml_putc(c);
  100ac2:	feb44783          	lbu	a5,-21(s0)
  100ac6:	853e                	mv	a0,a5
  100ac8:	3b25                	jal	100800 <pml_putc>
C:\HJJ\Career\MimicMCU\demo\function_cpus\application/main.c:70
        continue;
  100aca:	0001                	nop
C:\HJJ\Career\MimicMCU\demo\function_cpus\application/main.c:31
  while ((c = *fmt++) != '\0') {
  100acc:	fcc42783          	lw	a5,-52(s0)
  100ad0:	00178713          	addi	a4,a5,1
  100ad4:	fce42623          	sw	a4,-52(s0)
  100ad8:	0007c783          	lbu	a5,0(a5)
  100adc:	fef405a3          	sb	a5,-21(s0)
  100ae0:	feb44783          	lbu	a5,-21(s0)
  100ae4:	de0793e3          	bnez	a5,1008ca <pml_print+0x3a>
C:\HJJ\Career\MimicMCU\demo\function_cpus\application/main.c:74
    }
  }
  va_end(args);
}
  100ae8:	0001                	nop
  100aea:	50f2                	lw	ra,60(sp)
  100aec:	5462                	lw	s0,56(sp)
  100aee:	6125                	addi	sp,sp,96
  100af0:	8082                	ret
  100af2:	0001                	nop
  100af4:	00000013          	nop
  100af8:	00000013          	nop
  100afc:	00000013          	nop

00100b00 <TestOneCPUErr>:
TestOneCPUErr():
C:\HJJ\Career\MimicMCU\demo\function_cpus\application/main.c:76

void TestOneCPUErr() {
  100b00:	7179                	addi	sp,sp,-48
  100b02:	d606                	sw	ra,44(sp)
  100b04:	d422                	sw	s0,40(sp)
  100b06:	1800                	addi	s0,sp,48
C:\HJJ\Career\MimicMCU\demo\function_cpus\application/main.c:77
  int t = 0;
  100b08:	fe042623          	sw	zero,-20(s0)
C:\HJJ\Career\MimicMCU\demo\function_cpus\application/main.c:78
  if (CTRL_RST_FLAG == 1) {
  100b0c:	410007b7          	lui	a5,0x41000
  100b10:	05878793          	addi	a5,a5,88 # 41000058 <__stack+0x20ed4058>
  100b14:	4398                	lw	a4,0(a5)
  100b16:	4785                	li	a5,1
  100b18:	10f71663          	bne	a4,a5,100c24 <TestOneCPUErr+0x124>
C:\HJJ\Career\MimicMCU\demo\function_cpus\application/main.c:79
    CTRL_RST_FLAG = 0;
  100b1c:	410007b7          	lui	a5,0x41000
  100b20:	05878793          	addi	a5,a5,88 # 41000058 <__stack+0x20ed4058>
  100b24:	0007a023          	sw	zero,0(a5)
C:\HJJ\Career\MimicMCU\demo\function_cpus\application/main.c:82
    // BOOT_FINISH_FLAG = 1; // todo, influence vary at DMR, and the next time

    if (RD_RESTORE_FROM_CHECKER == 1) {
  100b28:	410007b7          	lui	a5,0x41000
  100b2c:	02078793          	addi	a5,a5,32 # 41000020 <__stack+0x20ed4020>
  100b30:	4398                	lw	a4,0(a5)
  100b32:	4785                	li	a5,1
  100b34:	0ef71563          	bne	a4,a5,100c1e <TestOneCPUErr+0x11e>
C:\HJJ\Career\MimicMCU\demo\function_cpus\application/main.c:83
      pml_stack_restore();
  100b38:	f90ff0ef          	jal	ra,1002c8 <pml_stack_restore>
C:\HJJ\Career\MimicMCU\demo\function_cpus\application/main.c:84
      pml_loc_restore();
  100b3c:	2d11                	jal	101150 <pml_loc_restore>
C:\HJJ\Career\MimicMCU\demo\function_cpus\application/main.c:85
      unsigned all_cpu_err = ALL_CPU_ERROR;
  100b3e:	410007b7          	lui	a5,0x41000
  100b42:	03878793          	addi	a5,a5,56 # 41000038 <__stack+0x20ed4038>
  100b46:	439c                	lw	a5,0(a5)
  100b48:	fef42423          	sw	a5,-24(s0)
C:\HJJ\Career\MimicMCU\demo\function_cpus\application/main.c:86
      RESTORE_FINISH = 0x1; // this will make hardware clear ALL_CPU_ERROR
  100b4c:	410007b7          	lui	a5,0x41000
  100b50:	07e1                	addi	a5,a5,24
  100b52:	4705                	li	a4,1
  100b54:	c398                	sw	a4,0(a5)
C:\HJJ\Career\MimicMCU\demo\function_cpus\application/main.c:87
      t = 1;
  100b56:	4785                	li	a5,1
  100b58:	fef42623          	sw	a5,-20(s0)
C:\HJJ\Career\MimicMCU\demo\function_cpus\application/main.c:89

      if (all_cpu_err == 1) {
  100b5c:	fe842703          	lw	a4,-24(s0)
  100b60:	4785                	li	a5,1
  100b62:	02f71163          	bne	a4,a5,100b84 <TestOneCPUErr+0x84>
C:\HJJ\Career\MimicMCU\demo\function_cpus\application/main.c:90
        unsigned* lad = NULL;
  100b66:	fc042e23          	sw	zero,-36(s0)
C:\HJJ\Career\MimicMCU\demo\function_cpus\application/main.c:92
        // pml_print("\r\nli = %u\r\n", LAST_PASS_EVENT_INDEX);
        GetLabelAddr(LAST_PASS_EVENT_INDEX, &lad);
  100b6a:	410007b7          	lui	a5,0x41000
  100b6e:	03c78793          	addi	a5,a5,60 # 4100003c <__stack+0x20ed403c>
  100b72:	439c                	lw	a5,0(a5)
  100b74:	fdc40713          	addi	a4,s0,-36
  100b78:	85ba                	mv	a1,a4
  100b7a:	853e                	mv	a0,a5
  100b7c:	2e55                	jal	100f30 <GetLabelAddr>
C:\HJJ\Career\MimicMCU\demo\function_cpus\application/main.c:93
        goto *lad;
  100b7e:	fdc42783          	lw	a5,-36(s0)
  100b82:	8782                	jr	a5
C:\HJJ\Career\MimicMCU\demo\function_cpus\application/main.c:96
      } else {
        while (1) {
          if (OTHER_CPU1_EVENT_END && OTHER_CPU2_EVENT_END) {
  100b84:	410007b7          	lui	a5,0x41000
  100b88:	02478793          	addi	a5,a5,36 # 41000024 <__stack+0x20ed4024>
  100b8c:	439c                	lw	a5,0(a5)
  100b8e:	dbfd                	beqz	a5,100b84 <TestOneCPUErr+0x84>
C:\HJJ\Career\MimicMCU\demo\function_cpus\application/main.c:96 (discriminator 1)
  100b90:	410007b7          	lui	a5,0x41000
  100b94:	02878793          	addi	a5,a5,40 # 41000028 <__stack+0x20ed4028>
  100b98:	439c                	lw	a5,0(a5)
  100b9a:	d7ed                	beqz	a5,100b84 <TestOneCPUErr+0x84>
C:\HJJ\Career\MimicMCU\demo\function_cpus\application/main.c:97
            if (OTHER_CPU1_EVENT_INDEX == OTHER_CPU2_EVENT_INDEX) {
  100b9c:	410007b7          	lui	a5,0x41000
  100ba0:	02c78793          	addi	a5,a5,44 # 4100002c <__stack+0x20ed402c>
  100ba4:	4398                	lw	a4,0(a5)
  100ba6:	410007b7          	lui	a5,0x41000
  100baa:	03078793          	addi	a5,a5,48 # 41000030 <__stack+0x20ed4030>
  100bae:	439c                	lw	a5,0(a5)
  100bb0:	fcf71ae3          	bne	a4,a5,100b84 <TestOneCPUErr+0x84>
C:\HJJ\Career\MimicMCU\demo\function_cpus\application/main.c:98
              OTHER_CPU1_EVENT_END = 0;
  100bb4:	410007b7          	lui	a5,0x41000
  100bb8:	02478793          	addi	a5,a5,36 # 41000024 <__stack+0x20ed4024>
  100bbc:	0007a023          	sw	zero,0(a5)
C:\HJJ\Career\MimicMCU\demo\function_cpus\application/main.c:99
              OTHER_CPU2_EVENT_END = 0;
  100bc0:	410007b7          	lui	a5,0x41000
  100bc4:	02878793          	addi	a5,a5,40 # 41000028 <__stack+0x20ed4028>
  100bc8:	0007a023          	sw	zero,0(a5)
C:\HJJ\Career\MimicMCU\demo\function_cpus\application/main.c:100
              break;
  100bcc:	0001                	nop
C:\HJJ\Career\MimicMCU\demo\function_cpus\application/main.c:105
            }
          }
        }

        unsigned* lad = NULL;
  100bce:	fc042c23          	sw	zero,-40(s0)
C:\HJJ\Career\MimicMCU\demo\function_cpus\application/main.c:106
        GetLabelAddr(OTHER_CPU1_EVENT_INDEX, &lad);
  100bd2:	410007b7          	lui	a5,0x41000
  100bd6:	02c78793          	addi	a5,a5,44 # 4100002c <__stack+0x20ed402c>
  100bda:	439c                	lw	a5,0(a5)
  100bdc:	fd840713          	addi	a4,s0,-40
  100be0:	85ba                	mv	a1,a4
  100be2:	853e                	mv	a0,a5
  100be4:	26b1                	jal	100f30 <GetLabelAddr>
C:\HJJ\Career\MimicMCU\demo\function_cpus\application/main.c:109

        while (1) {
          if(OTHER_CPU1_SAVE_CTX_FINISH && OTHER_CPU2_SAVE_CTX_FINISH) {
  100be6:	410007b7          	lui	a5,0x41000
  100bea:	06c78793          	addi	a5,a5,108 # 4100006c <__stack+0x20ed406c>
  100bee:	439c                	lw	a5,0(a5)
  100bf0:	dbfd                	beqz	a5,100be6 <TestOneCPUErr+0xe6>
C:\HJJ\Career\MimicMCU\demo\function_cpus\application/main.c:109 (discriminator 1)
  100bf2:	410007b7          	lui	a5,0x41000
  100bf6:	07078793          	addi	a5,a5,112 # 41000070 <__stack+0x20ed4070>
  100bfa:	439c                	lw	a5,0(a5)
  100bfc:	d7ed                	beqz	a5,100be6 <TestOneCPUErr+0xe6>
C:\HJJ\Career\MimicMCU\demo\function_cpus\application/main.c:110
            OTHER_CPU1_SAVE_CTX_FINISH = 0;
  100bfe:	410007b7          	lui	a5,0x41000
  100c02:	06c78793          	addi	a5,a5,108 # 4100006c <__stack+0x20ed406c>
  100c06:	0007a023          	sw	zero,0(a5)
C:\HJJ\Career\MimicMCU\demo\function_cpus\application/main.c:111
            OTHER_CPU2_SAVE_CTX_FINISH = 0;
  100c0a:	410007b7          	lui	a5,0x41000
  100c0e:	07078793          	addi	a5,a5,112 # 41000070 <__stack+0x20ed4070>
  100c12:	0007a023          	sw	zero,0(a5)
C:\HJJ\Career\MimicMCU\demo\function_cpus\application/main.c:112
            break;
  100c16:	0001                	nop
C:\HJJ\Career\MimicMCU\demo\function_cpus\application/main.c:115
          }
        } 
        goto *lad;
  100c18:	fd842783          	lw	a5,-40(s0)
  100c1c:	8782                	jr	a5
C:\HJJ\Career\MimicMCU\demo\function_cpus\application/main.c:118
      }
    } else {
      t = 1;
  100c1e:	4785                	li	a5,1
  100c20:	fef42623          	sw	a5,-20(s0)
C:\HJJ\Career\MimicMCU\demo\function_cpus\application/main.c:122
    }
  }
  
  int* common = (int*)pml_com_malloc(sizeof(int));
  100c24:	4511                	li	a0,4
  100c26:	2669                	jal	100fb0 <pml_com_malloc>
  100c28:	87aa                	mv	a5,a0
  100c2a:	fef42223          	sw	a5,-28(s0)
C:\HJJ\Career\MimicMCU\demo\function_cpus\application/main.c:123
  *common = 1000;
  100c2e:	fe442783          	lw	a5,-28(s0)
  100c32:	3e800713          	li	a4,1000
  100c36:	c398                	sw	a4,0(a5)
C:\HJJ\Career\MimicMCU\demo\function_cpus\application/main.c:124
  int* local = (int*)pml_loc_malloc(sizeof(int));
  100c38:	4511                	li	a0,4
  100c3a:	26d9                	jal	101000 <pml_loc_malloc>
  100c3c:	87aa                	mv	a5,a0
  100c3e:	fef42023          	sw	a5,-32(s0)
C:\HJJ\Career\MimicMCU\demo\function_cpus\application/main.c:125
  *local = 99;
  100c42:	fe042783          	lw	a5,-32(s0)
  100c46:	06300713          	li	a4,99
  100c4a:	c398                	sw	a4,0(a5)
C:\HJJ\Career\MimicMCU\demo\function_cpus\application/main.c:129
  // pml_print("o:%u,%u\r\n", *common, *local);

  // triple modular redundancy
  *common = *common - 10;
  100c4c:	fe442783          	lw	a5,-28(s0)
  100c50:	439c                	lw	a5,0(a5)
  100c52:	ff678713          	addi	a4,a5,-10
  100c56:	fe442783          	lw	a5,-28(s0)
  100c5a:	c398                	sw	a4,0(a5)
C:\HJJ\Career\MimicMCU\demo\function_cpus\application/main.c:130
  *local = *local - 10;
  100c5c:	fe042783          	lw	a5,-32(s0)
  100c60:	439c                	lw	a5,0(a5)
  100c62:	ff678713          	addi	a4,a5,-10
  100c66:	fe042783          	lw	a5,-32(s0)
  100c6a:	c398                	sw	a4,0(a5)
C:\HJJ\Career\MimicMCU\demo\function_cpus\application/main.c:131
  EVENT_END_WITH_LABEL(10);
  100c6c:	fc042a23          	sw	zero,-44(s0)
  100c70:	fd440793          	addi	a5,s0,-44
  100c74:	853e                	mv	a0,a5
  100c76:	e32ff0ef          	jal	ra,1002a8 <pml_get_sp>
  100c7a:	2012e7b7          	lui	a5,0x2012e
  100c7e:	fd442703          	lw	a4,-44(s0)
  100c82:	c398                	sw	a4,0(a5)
  100c84:	410007b7          	lui	a5,0x41000
  100c88:	03478793          	addi	a5,a5,52 # 41000034 <__stack+0x20ed4034>
  100c8c:	4729                	li	a4,10
  100c8e:	c398                	sw	a4,0(a5)
  100c90:	410007b7          	lui	a5,0x41000
  100c94:	07f1                	addi	a5,a5,28
  100c96:	4705                	li	a4,1
  100c98:	c398                	sw	a4,0(a5)
  100c9a:	2359                	jal	101220 <event_delay>
C:\HJJ\Career\MimicMCU\demo\function_cpus\application/main.c:133

  if (t == 0) {
  100c9c:	fec42783          	lw	a5,-20(s0)
  100ca0:	ef89                	bnez	a5,100cba <TestOneCPUErr+0x1ba>
C:\HJJ\Career\MimicMCU\demo\function_cpus\application/main.c:134
    pml_print("\r\n********************   DemoAttack start...   ********************\r\n");
  100ca2:	001047b7          	lui	a5,0x104
  100ca6:	96078513          	addi	a0,a5,-1696 # 103960 <charmap+0x94>
  100caa:	36dd                	jal	100890 <pml_print>
C:\HJJ\Career\MimicMCU\demo\function_cpus\application/main.c:135
    DemoAttack();
  100cac:	2ad1                	jal	100e80 <DemoAttack>
C:\HJJ\Career\MimicMCU\demo\function_cpus\application/main.c:136
    pml_print("********************   DemoAttack end.       ********************\r\n");
  100cae:	001047b7          	lui	a5,0x104
  100cb2:	9a878513          	addi	a0,a5,-1624 # 1039a8 <charmap+0xdc>
  100cb6:	3ee9                	jal	100890 <pml_print>
  100cb8:	a819                	j	100cce <TestOneCPUErr+0x1ce>
C:\HJJ\Career\MimicMCU\demo\function_cpus\application/main.c:138
  } else {
    pml_print("\r\n********************   DemoAttack end.       ********************\r\n");
  100cba:	001047b7          	lui	a5,0x104
  100cbe:	9ec78513          	addi	a0,a5,-1556 # 1039ec <charmap+0x120>
  100cc2:	36f9                	jal	100890 <pml_print>
C:\HJJ\Career\MimicMCU\demo\function_cpus\application/main.c:139
    pml_print("Reboot end.\r\n");
  100cc4:	001047b7          	lui	a5,0x104
  100cc8:	a3478513          	addi	a0,a5,-1484 # 103a34 <charmap+0x168>
  100ccc:	36d1                	jal	100890 <pml_print>
C:\HJJ\Career\MimicMCU\demo\function_cpus\application/main.c:144
  }
  

  // dual modular redundancy
  *common = *common - *local;
  100cce:	fe442783          	lw	a5,-28(s0)
  100cd2:	4398                	lw	a4,0(a5)
  100cd4:	fe042783          	lw	a5,-32(s0)
  100cd8:	439c                	lw	a5,0(a5)
  100cda:	8f1d                	sub	a4,a4,a5
  100cdc:	fe442783          	lw	a5,-28(s0)
  100ce0:	c398                	sw	a4,0(a5)
C:\HJJ\Career\MimicMCU\demo\function_cpus\application/main.c:146
  // *local = *local - 1;  // 2cpu-mode, change *local will cause the err cpu's value different below.
  pml_print("chk_pass_cnt=%u,%u,%u\r\n", S0_CHK_PASS_CNT, S1_CHK_PASS_CNT, S2_CHK_PASS_CNT);
  100ce2:	410007b7          	lui	a5,0x41000
  100ce6:	04878793          	addi	a5,a5,72 # 41000048 <__stack+0x20ed4048>
  100cea:	4398                	lw	a4,0(a5)
  100cec:	410007b7          	lui	a5,0x41000
  100cf0:	04c78793          	addi	a5,a5,76 # 4100004c <__stack+0x20ed404c>
  100cf4:	4390                	lw	a2,0(a5)
  100cf6:	410007b7          	lui	a5,0x41000
  100cfa:	05078793          	addi	a5,a5,80 # 41000050 <__stack+0x20ed4050>
  100cfe:	439c                	lw	a5,0(a5)
  100d00:	86be                	mv	a3,a5
  100d02:	85ba                	mv	a1,a4
  100d04:	001047b7          	lui	a5,0x104
  100d08:	a4478513          	addi	a0,a5,-1468 # 103a44 <charmap+0x178>
  100d0c:	3651                	jal	100890 <pml_print>
C:\HJJ\Career\MimicMCU\demo\function_cpus\application/main.c:149
  
  // wait for the failed cpu recovering
  Delay(5);
  100d0e:	4515                	li	a0,5
  100d10:	2d81                	jal	101360 <Delay>
C:\HJJ\Career\MimicMCU\demo\function_cpus\application/main.c:150
  EVENT_END_WITH_LABEL(11);
  100d12:	fc042823          	sw	zero,-48(s0)
  100d16:	fd040793          	addi	a5,s0,-48
  100d1a:	853e                	mv	a0,a5
  100d1c:	d8cff0ef          	jal	ra,1002a8 <pml_get_sp>
  100d20:	2012e7b7          	lui	a5,0x2012e
  100d24:	fd042703          	lw	a4,-48(s0)
  100d28:	c398                	sw	a4,0(a5)
  100d2a:	410007b7          	lui	a5,0x41000
  100d2e:	03478793          	addi	a5,a5,52 # 41000034 <__stack+0x20ed4034>
  100d32:	472d                	li	a4,11
  100d34:	c398                	sw	a4,0(a5)
  100d36:	410007b7          	lui	a5,0x41000
  100d3a:	07f1                	addi	a5,a5,28
  100d3c:	4705                	li	a4,1
  100d3e:	c398                	sw	a4,0(a5)
  100d40:	21c5                	jal	101220 <event_delay>
C:\HJJ\Career\MimicMCU\demo\function_cpus\application/main.c:153
  
  // If recovered, here should be equal; otherwise, wait more time.
  pml_print("chk_pass_cnt=%u,%u,%u\r\n", S0_CHK_PASS_CNT, S1_CHK_PASS_CNT, S2_CHK_PASS_CNT);
  100d42:	410007b7          	lui	a5,0x41000
  100d46:	04878793          	addi	a5,a5,72 # 41000048 <__stack+0x20ed4048>
  100d4a:	4398                	lw	a4,0(a5)
  100d4c:	410007b7          	lui	a5,0x41000
  100d50:	04c78793          	addi	a5,a5,76 # 4100004c <__stack+0x20ed404c>
  100d54:	4390                	lw	a2,0(a5)
  100d56:	410007b7          	lui	a5,0x41000
  100d5a:	05078793          	addi	a5,a5,80 # 41000050 <__stack+0x20ed4050>
  100d5e:	439c                	lw	a5,0(a5)
  100d60:	86be                	mv	a3,a5
  100d62:	85ba                	mv	a1,a4
  100d64:	001047b7          	lui	a5,0x104
  100d68:	a4478513          	addi	a0,a5,-1468 # 103a44 <charmap+0x178>
  100d6c:	3615                	jal	100890 <pml_print>
C:\HJJ\Career\MimicMCU\demo\function_cpus\application/main.c:155
  
  *common = *common - 10;
  100d6e:	fe442783          	lw	a5,-28(s0)
  100d72:	439c                	lw	a5,0(a5)
  100d74:	ff678713          	addi	a4,a5,-10
  100d78:	fe442783          	lw	a5,-28(s0)
  100d7c:	c398                	sw	a4,0(a5)
C:\HJJ\Career\MimicMCU\demo\function_cpus\application/main.c:156
  *local = *local - 10;
  100d7e:	fe042783          	lw	a5,-32(s0)
  100d82:	439c                	lw	a5,0(a5)
  100d84:	ff678713          	addi	a4,a5,-10
  100d88:	fe042783          	lw	a5,-32(s0)
  100d8c:	c398                	sw	a4,0(a5)
C:\HJJ\Career\MimicMCU\demo\function_cpus\application/main.c:158
  // pml_print("r:%u,%u\r\n", *common, *local); // 891,79p
}
  100d8e:	0001                	nop
  100d90:	50b2                	lw	ra,44(sp)
  100d92:	5422                	lw	s0,40(sp)
  100d94:	6145                	addi	sp,sp,48
  100d96:	8082                	ret
  100d98:	00000013          	nop
  100d9c:	00000013          	nop

00100da0 <main>:
main():
C:\HJJ\Career\MimicMCU\demo\function_cpus\application/main.c:161


int main() {
  100da0:	1141                	addi	sp,sp,-16
  100da2:	c606                	sw	ra,12(sp)
  100da4:	c422                	sw	s0,8(sp)
  100da6:	0800                	addi	s0,sp,16
C:\HJJ\Career\MimicMCU\demo\function_cpus\application/main.c:162
  SetEDAMode(1);
  100da8:	4505                	li	a0,1
  100daa:	666000ef          	jal	ra,101410 <SetEDAMode>
C:\HJJ\Career\MimicMCU\demo\function_cpus\application/main.c:164

  TestOneCPUErr();  // 0don't test irq; 1: test irq.
  100dae:	3b89                	jal	100b00 <TestOneCPUErr>
C:\HJJ\Career\MimicMCU\demo\function_cpus\application/main.c:165
  return 0;
  100db0:	4781                	li	a5,0
C:\HJJ\Career\MimicMCU\demo\function_cpus\application/main.c:166
}
  100db2:	853e                	mv	a0,a5
  100db4:	40b2                	lw	ra,12(sp)
  100db6:	4422                	lw	s0,8(sp)
  100db8:	0141                	addi	sp,sp,16
  100dba:	8082                	ret
	...

00100dd0 <register_callback>:
register_callback():
C:\HJJ\Career\MimicMCU\demo\function_cpus\application\work/work.c:8
typedef void (*callback_t)(void);
#define MAX_CALLBACKS 4
callback_t callback_table[MAX_CALLBACKS];
volatile callback_t emergency_stop_callback = 0;

void register_callback(int index, callback_t cb) { callback_table[index] = cb; }
  100dd0:	1101                	addi	sp,sp,-32
  100dd2:	ce22                	sw	s0,28(sp)
  100dd4:	1000                	addi	s0,sp,32
  100dd6:	fea42623          	sw	a0,-20(s0)
  100dda:	feb42423          	sw	a1,-24(s0)
  100dde:	201207b7          	lui	a5,0x20120
  100de2:	fec42703          	lw	a4,-20(s0)
  100de6:	070a                	slli	a4,a4,0x2
  100de8:	2d878793          	addi	a5,a5,728 # 201202d8 <callback_table>
  100dec:	97ba                	add	a5,a5,a4
  100dee:	fe842703          	lw	a4,-24(s0)
  100df2:	c398                	sw	a4,0(a5)
  100df4:	0001                	nop
  100df6:	4472                	lw	s0,28(sp)
  100df8:	6105                	addi	sp,sp,32
  100dfa:	8082                	ret
  100dfc:	00000013          	nop

00100e00 <legitimate_callback>:
legitimate_callback():
C:\HJJ\Career\MimicMCU\demo\function_cpus\application\work/work.c:14

char incMsg[2][100] = {
  {"The battery voltage exceeds the permissible threshold! Stop it now!!!\n"},
  {"The battery voltage is normal.\n"}
};
void legitimate_callback() { pml_print(incMsg[0]); }
  100e00:	1141                	addi	sp,sp,-16
  100e02:	c606                	sw	ra,12(sp)
  100e04:	c422                	sw	s0,8(sp)
  100e06:	0800                	addi	s0,sp,16
  100e08:	201207b7          	lui	a5,0x20120
  100e0c:	0c078513          	addi	a0,a5,192 # 201200c0 <incMsg>
  100e10:	3441                	jal	100890 <pml_print>
  100e12:	0001                	nop
  100e14:	40b2                	lw	ra,12(sp)
  100e16:	4422                	lw	s0,8(sp)
  100e18:	0141                	addi	sp,sp,16
  100e1a:	8082                	ret
  100e1c:	00000013          	nop

00100e20 <malicious_payload>:
malicious_payload():
C:\HJJ\Career\MimicMCU\demo\function_cpus\application\work/work.c:16

void malicious_payload() { pml_print(incMsg[1]); }
  100e20:	1141                	addi	sp,sp,-16
  100e22:	c606                	sw	ra,12(sp)
  100e24:	c422                	sw	s0,8(sp)
  100e26:	0800                	addi	s0,sp,16
  100e28:	201207b7          	lui	a5,0x20120
  100e2c:	12478513          	addi	a0,a5,292 # 20120124 <incMsg+0x64>
  100e30:	3485                	jal	100890 <pml_print>
  100e32:	0001                	nop
  100e34:	40b2                	lw	ra,12(sp)
  100e36:	4422                	lw	s0,8(sp)
  100e38:	0141                	addi	sp,sp,16
  100e3a:	8082                	ret
  100e3c:	00000013          	nop

00100e40 <set_emergency_stop_callback>:
set_emergency_stop_callback():
C:\HJJ\Career\MimicMCU\demo\function_cpus\application\work/work.c:18

void set_emergency_stop_callback(callback_t cb) { emergency_stop_callback = cb; }
  100e40:	1101                	addi	sp,sp,-32
  100e42:	ce22                	sw	s0,28(sp)
  100e44:	1000                	addi	s0,sp,32
  100e46:	fea42623          	sw	a0,-20(s0)
  100e4a:	201207b7          	lui	a5,0x20120
  100e4e:	fec42703          	lw	a4,-20(s0)
  100e52:	1ce7a223          	sw	a4,452(a5) # 201201c4 <__e_ram_data_1>
  100e56:	0001                	nop
  100e58:	4472                	lw	s0,28(sp)
  100e5a:	6105                	addi	sp,sp,32
  100e5c:	8082                	ret
  100e5e:	0001                	nop

00100e60 <read_battery_voltage>:
read_battery_voltage():
C:\HJJ\Career\MimicMCU\demo\function_cpus\application\work/work.c:21

#define MAX_SAFE_VOLTAGE (420)  // GB/T 18487.1-2015
unsigned read_battery_voltage() { return 500; }
  100e60:	1141                	addi	sp,sp,-16
  100e62:	c622                	sw	s0,12(sp)
  100e64:	0800                	addi	s0,sp,16
  100e66:	1f400793          	li	a5,500
  100e6a:	853e                	mv	a0,a5
  100e6c:	4432                	lw	s0,12(sp)
  100e6e:	0141                	addi	sp,sp,16
  100e70:	8082                	ret
  100e72:	0001                	nop
  100e74:	00000013          	nop
  100e78:	00000013          	nop
  100e7c:	00000013          	nop

00100e80 <DemoAttack>:
DemoAttack():
C:\HJJ\Career\MimicMCU\demo\function_cpus\application\work/work.c:24

const FunctionCPUID id = kCPU2;
void DemoAttack(void) {
  100e80:	1101                	addi	sp,sp,-32
  100e82:	ce06                	sw	ra,28(sp)
  100e84:	cc22                	sw	s0,24(sp)
  100e86:	1000                	addi	s0,sp,32
C:\HJJ\Career\MimicMCU\demo\function_cpus\application\work/work.c:25
  set_emergency_stop_callback(legitimate_callback);
  100e88:	001017b7          	lui	a5,0x101
  100e8c:	e0078513          	addi	a0,a5,-512 # 100e00 <legitimate_callback>
  100e90:	3f45                	jal	100e40 <set_emergency_stop_callback>
C:\HJJ\Career\MimicMCU\demo\function_cpus\application\work/work.c:28

  // exploiting callback register vulnerability
  unsigned malicious_addr = (unsigned)malicious_payload;
  100e92:	001017b7          	lui	a5,0x101
  100e96:	e2078793          	addi	a5,a5,-480 # 100e20 <malicious_payload>
  100e9a:	fef42623          	sw	a5,-20(s0)
C:\HJJ\Career\MimicMCU\demo\function_cpus\application\work/work.c:29
  int byte_offset = (char*)&emergency_stop_callback - (char*)callback_table;
  100e9e:	201207b7          	lui	a5,0x20120
  100ea2:	1c478713          	addi	a4,a5,452 # 201201c4 <__e_ram_data_1>
  100ea6:	201207b7          	lui	a5,0x20120
  100eaa:	2d878793          	addi	a5,a5,728 # 201202d8 <callback_table>
  100eae:	40f707b3          	sub	a5,a4,a5
  100eb2:	fef42423          	sw	a5,-24(s0)
C:\HJJ\Career\MimicMCU\demo\function_cpus\application\work/work.c:30
  int exploit_index = byte_offset / sizeof(callback_t);
  100eb6:	fe842783          	lw	a5,-24(s0)
  100eba:	8389                	srli	a5,a5,0x2
  100ebc:	fef42223          	sw	a5,-28(s0)
C:\HJJ\Career\MimicMCU\demo\function_cpus\application\work/work.c:42
  if (id == kCPU1) {
    register_callback(exploit_index, (callback_t)malicious_addr);
  }
#endif
#ifdef TARGET_RISCV
  if (id == kCPU2) {
  100ec0:	4709                	li	a4,2
  100ec2:	4789                	li	a5,2
  100ec4:	00f71863          	bne	a4,a5,100ed4 <DemoAttack+0x54>
C:\HJJ\Career\MimicMCU\demo\function_cpus\application\work/work.c:43
    register_callback(exploit_index, (callback_t)malicious_addr);
  100ec8:	fec42783          	lw	a5,-20(s0)
  100ecc:	85be                	mv	a1,a5
  100ece:	fe442503          	lw	a0,-28(s0)
  100ed2:	3dfd                	jal	100dd0 <register_callback>
C:\HJJ\Career\MimicMCU\demo\function_cpus\application\work/work.c:48
  }
#endif

  // trigger 2vs.1
  unsigned voltage = read_battery_voltage();
  100ed4:	3771                	jal	100e60 <read_battery_voltage>
  100ed6:	fea42023          	sw	a0,-32(s0)
C:\HJJ\Career\MimicMCU\demo\function_cpus\application\work/work.c:49
  if (voltage > MAX_SAFE_VOLTAGE) {
  100eda:	fe042703          	lw	a4,-32(s0)
  100ede:	1a400793          	li	a5,420
  100ee2:	00e7f763          	bgeu	a5,a4,100ef0 <DemoAttack+0x70>
C:\HJJ\Career\MimicMCU\demo\function_cpus\application\work/work.c:50
    emergency_stop_callback();
  100ee6:	201207b7          	lui	a5,0x20120
  100eea:	1c47a783          	lw	a5,452(a5) # 201201c4 <__e_ram_data_1>
  100eee:	9782                	jalr	a5
C:\HJJ\Career\MimicMCU\demo\function_cpus\application\work/work.c:52
  }
  100ef0:	0001                	nop
  100ef2:	40f2                	lw	ra,28(sp)
  100ef4:	4462                	lw	s0,24(sp)
  100ef6:	6105                	addi	sp,sp,32
  100ef8:	8082                	ret
  100efa:	0000                	unimp
  100efc:	0000                	unimp
	...

00100f00 <SRAM_Init>:
SRAM_Init():
  100f00:	1141                	addi	sp,sp,-16
  100f02:	c622                	sw	s0,12(sp)
  100f04:	0800                	addi	s0,sp,16
  100f06:	410007b7          	lui	a5,0x41000
  100f0a:	05878793          	addi	a5,a5,88 # 41000058 <__stack+0x20ed4058>
  100f0e:	439c                	lw	a5,0(a5)
  100f10:	eb89                	bnez	a5,100f22 <SRAM_Init+0x22>
  100f12:	2012c7b7          	lui	a5,0x2012c
  100f16:	4711                	li	a4,4
  100f18:	c398                	sw	a4,0(a5)
  100f1a:	440007b7          	lui	a5,0x44000
  100f1e:	4711                	li	a4,4
  100f20:	c398                	sw	a4,0(a5)
  100f22:	0001                	nop
  100f24:	4432                	lw	s0,12(sp)
  100f26:	0141                	addi	sp,sp,16
  100f28:	8082                	ret
  100f2a:	00000013          	nop
  100f2e:	0001                	nop

00100f30 <GetLabelAddr>:
GetLabelAddr():
  100f30:	7179                	addi	sp,sp,-48
  100f32:	d622                	sw	s0,44(sp)
  100f34:	1800                	addi	s0,sp,48
  100f36:	fca42e23          	sw	a0,-36(s0)
  100f3a:	fcb42c23          	sw	a1,-40(s0)
  100f3e:	001047b7          	lui	a5,0x104
  100f42:	c7478713          	addi	a4,a5,-908 # 103c74 <__l_s_ram>
  100f46:	001047b7          	lui	a5,0x104
  100f4a:	c6478793          	addi	a5,a5,-924 # 103c64 <__Labels>
  100f4e:	40f707b3          	sub	a5,a4,a5
  100f52:	878d                	srai	a5,a5,0x3
  100f54:	fef42423          	sw	a5,-24(s0)
  100f58:	001047b7          	lui	a5,0x104
  100f5c:	c6478793          	addi	a5,a5,-924 # 103c64 <__Labels>
  100f60:	fef42623          	sw	a5,-20(s0)
  100f64:	a01d                	j	100f8a <GetLabelAddr+0x5a>
  100f66:	fec42783          	lw	a5,-20(s0)
  100f6a:	439c                	lw	a5,0(a5)
  100f6c:	fdc42703          	lw	a4,-36(s0)
  100f70:	00f71863          	bne	a4,a5,100f80 <GetLabelAddr+0x50>
  100f74:	fec42783          	lw	a5,-20(s0)
  100f78:	0791                	addi	a5,a5,4
  100f7a:	fef42623          	sw	a5,-20(s0)
  100f7e:	a831                	j	100f9a <GetLabelAddr+0x6a>
  100f80:	fec42783          	lw	a5,-20(s0)
  100f84:	07a1                	addi	a5,a5,8
  100f86:	fef42623          	sw	a5,-20(s0)
  100f8a:	fec42703          	lw	a4,-20(s0)
  100f8e:	001047b7          	lui	a5,0x104
  100f92:	c7478793          	addi	a5,a5,-908 # 103c74 <__l_s_ram>
  100f96:	fcf768e3          	bltu	a4,a5,100f66 <GetLabelAddr+0x36>
  100f9a:	fec42783          	lw	a5,-20(s0)
  100f9e:	4398                	lw	a4,0(a5)
  100fa0:	fd842783          	lw	a5,-40(s0)
  100fa4:	c398                	sw	a4,0(a5)
  100fa6:	0001                	nop
  100fa8:	5432                	lw	s0,44(sp)
  100faa:	6145                	addi	sp,sp,48
  100fac:	8082                	ret
  100fae:	0001                	nop

00100fb0 <pml_com_malloc>:
pml_com_malloc():
  100fb0:	7179                	addi	sp,sp,-48
  100fb2:	d622                	sw	s0,44(sp)
  100fb4:	1800                	addi	s0,sp,48
  100fb6:	fca42e23          	sw	a0,-36(s0)
  100fba:	440007b7          	lui	a5,0x44000
  100fbe:	4398                	lw	a4,0(a5)
  100fc0:	fdc42783          	lw	a5,-36(s0)
  100fc4:	973e                	add	a4,a4,a5
  100fc6:	67a1                	lui	a5,0x8
  100fc8:	00e7f463          	bgeu	a5,a4,100fd0 <pml_com_malloc+0x20>
  100fcc:	4781                	li	a5,0
  100fce:	a025                	j	100ff6 <pml_com_malloc+0x46>
  100fd0:	440007b7          	lui	a5,0x44000
  100fd4:	439c                	lw	a5,0(a5)
  100fd6:	fef42623          	sw	a5,-20(s0)
  100fda:	440007b7          	lui	a5,0x44000
  100fde:	4394                	lw	a3,0(a5)
  100fe0:	fdc42703          	lw	a4,-36(s0)
  100fe4:	440007b7          	lui	a5,0x44000
  100fe8:	9736                	add	a4,a4,a3
  100fea:	c398                	sw	a4,0(a5)
  100fec:	fec42703          	lw	a4,-20(s0)
  100ff0:	440007b7          	lui	a5,0x44000
  100ff4:	97ba                	add	a5,a5,a4
  100ff6:	853e                	mv	a0,a5
  100ff8:	5432                	lw	s0,44(sp)
  100ffa:	6145                	addi	sp,sp,48
  100ffc:	8082                	ret
  100ffe:	0001                	nop

00101000 <pml_loc_malloc>:
pml_loc_malloc():
  101000:	7179                	addi	sp,sp,-48
  101002:	d622                	sw	s0,44(sp)
  101004:	1800                	addi	s0,sp,48
  101006:	fca42e23          	sw	a0,-36(s0)
  10100a:	2012c7b7          	lui	a5,0x2012c
  10100e:	4398                	lw	a4,0(a5)
  101010:	fdc42783          	lw	a5,-36(s0)
  101014:	973e                	add	a4,a4,a5
  101016:	6785                	lui	a5,0x1
  101018:	00e7f463          	bgeu	a5,a4,101020 <pml_loc_malloc+0x20>
  10101c:	4781                	li	a5,0
  10101e:	a025                	j	101046 <pml_loc_malloc+0x46>
  101020:	2012c7b7          	lui	a5,0x2012c
  101024:	439c                	lw	a5,0(a5)
  101026:	fef42623          	sw	a5,-20(s0)
  10102a:	2012c7b7          	lui	a5,0x2012c
  10102e:	4394                	lw	a3,0(a5)
  101030:	fdc42703          	lw	a4,-36(s0)
  101034:	2012c7b7          	lui	a5,0x2012c
  101038:	9736                	add	a4,a4,a3
  10103a:	c398                	sw	a4,0(a5)
  10103c:	fec42703          	lw	a4,-20(s0)
  101040:	2012c7b7          	lui	a5,0x2012c
  101044:	97ba                	add	a5,a5,a4
  101046:	853e                	mv	a0,a5
  101048:	5432                	lw	s0,44(sp)
  10104a:	6145                	addi	sp,sp,48
  10104c:	8082                	ret
  10104e:	0001                	nop

00101050 <pml_save_inc>:
pml_save_inc():
  101050:	7179                	addi	sp,sp,-48
  101052:	d622                	sw	s0,44(sp)
  101054:	1800                	addi	s0,sp,48
  101056:	fca42e23          	sw	a0,-36(s0)
  10105a:	fcb42c23          	sw	a1,-40(s0)
  10105e:	fcc42a23          	sw	a2,-44(s0)
  101062:	fe042623          	sw	zero,-20(s0)
  101066:	a035                	j	101092 <pml_save_inc+0x42>
  101068:	fdc42783          	lw	a5,-36(s0)
  10106c:	4398                	lw	a4,0(a5)
  10106e:	fd842783          	lw	a5,-40(s0)
  101072:	c398                	sw	a4,0(a5)
  101074:	fdc42783          	lw	a5,-36(s0)
  101078:	0791                	addi	a5,a5,4
  10107a:	fcf42e23          	sw	a5,-36(s0)
  10107e:	fd842783          	lw	a5,-40(s0)
  101082:	0791                	addi	a5,a5,4
  101084:	fcf42c23          	sw	a5,-40(s0)
  101088:	fec42783          	lw	a5,-20(s0)
  10108c:	0785                	addi	a5,a5,1
  10108e:	fef42623          	sw	a5,-20(s0)
  101092:	fec42703          	lw	a4,-20(s0)
  101096:	fd442783          	lw	a5,-44(s0)
  10109a:	fcf767e3          	bltu	a4,a5,101068 <pml_save_inc+0x18>
  10109e:	0001                	nop
  1010a0:	5432                	lw	s0,44(sp)
  1010a2:	6145                	addi	sp,sp,48
  1010a4:	8082                	ret
  1010a6:	00000013          	nop
  1010aa:	00000013          	nop
  1010ae:	0001                	nop

001010b0 <pml_save_dec>:
pml_save_dec():
  1010b0:	7179                	addi	sp,sp,-48
  1010b2:	d622                	sw	s0,44(sp)
  1010b4:	1800                	addi	s0,sp,48
  1010b6:	fca42e23          	sw	a0,-36(s0)
  1010ba:	fcb42c23          	sw	a1,-40(s0)
  1010be:	fcc42a23          	sw	a2,-44(s0)
  1010c2:	fe042623          	sw	zero,-20(s0)
  1010c6:	a035                	j	1010f2 <pml_save_dec+0x42>
  1010c8:	fdc42783          	lw	a5,-36(s0)
  1010cc:	4398                	lw	a4,0(a5)
  1010ce:	fd842783          	lw	a5,-40(s0)
  1010d2:	c398                	sw	a4,0(a5)
  1010d4:	fdc42783          	lw	a5,-36(s0)
  1010d8:	17f1                	addi	a5,a5,-4
  1010da:	fcf42e23          	sw	a5,-36(s0)
  1010de:	fd842783          	lw	a5,-40(s0)
  1010e2:	17f1                	addi	a5,a5,-4
  1010e4:	fcf42c23          	sw	a5,-40(s0)
  1010e8:	fec42783          	lw	a5,-20(s0)
  1010ec:	0785                	addi	a5,a5,1
  1010ee:	fef42623          	sw	a5,-20(s0)
  1010f2:	fec42703          	lw	a4,-20(s0)
  1010f6:	fd442783          	lw	a5,-44(s0)
  1010fa:	fcf767e3          	bltu	a4,a5,1010c8 <pml_save_dec+0x18>
  1010fe:	0001                	nop
  101100:	5432                	lw	s0,44(sp)
  101102:	6145                	addi	sp,sp,48
  101104:	8082                	ret
  101106:	00000013          	nop
  10110a:	00000013          	nop
  10110e:	0001                	nop

00101110 <pml_loc_save>:
pml_loc_save():
  101110:	1101                	addi	sp,sp,-32
  101112:	ce06                	sw	ra,28(sp)
  101114:	cc22                	sw	s0,24(sp)
  101116:	1000                	addi	s0,sp,32
  101118:	2012c7b7          	lui	a5,0x2012c
  10111c:	fef42623          	sw	a5,-20(s0)
  101120:	2012d7b7          	lui	a5,0x2012d
  101124:	fef42423          	sw	a5,-24(s0)
  101128:	40000793          	li	a5,1024
  10112c:	fef42223          	sw	a5,-28(s0)
  101130:	fe442603          	lw	a2,-28(s0)
  101134:	fe842583          	lw	a1,-24(s0)
  101138:	fec42503          	lw	a0,-20(s0)
  10113c:	3f11                	jal	101050 <pml_save_inc>
  10113e:	0001                	nop
  101140:	40f2                	lw	ra,28(sp)
  101142:	4462                	lw	s0,24(sp)
  101144:	6105                	addi	sp,sp,32
  101146:	8082                	ret
  101148:	00000013          	nop
  10114c:	00000013          	nop

00101150 <pml_loc_restore>:
pml_loc_restore():
  101150:	1101                	addi	sp,sp,-32
  101152:	ce06                	sw	ra,28(sp)
  101154:	cc22                	sw	s0,24(sp)
  101156:	1000                	addi	s0,sp,32
  101158:	2012d7b7          	lui	a5,0x2012d
  10115c:	fef42623          	sw	a5,-20(s0)
  101160:	2012c7b7          	lui	a5,0x2012c
  101164:	fef42423          	sw	a5,-24(s0)
  101168:	40000793          	li	a5,1024
  10116c:	fef42223          	sw	a5,-28(s0)
  101170:	fe442603          	lw	a2,-28(s0)
  101174:	fe842583          	lw	a1,-24(s0)
  101178:	fec42503          	lw	a0,-20(s0)
  10117c:	3dd1                	jal	101050 <pml_save_inc>
  10117e:	0001                	nop
  101180:	40f2                	lw	ra,28(sp)
  101182:	4462                	lw	s0,24(sp)
  101184:	6105                	addi	sp,sp,32
  101186:	8082                	ret
  101188:	00000013          	nop
  10118c:	00000013          	nop

00101190 <pml_stack_save>:
pml_stack_save():
  101190:	1101                	addi	sp,sp,-32
  101192:	ce06                	sw	ra,28(sp)
  101194:	cc22                	sw	s0,24(sp)
  101196:	1000                	addi	s0,sp,32
  101198:	fe042623          	sw	zero,-20(s0)
  10119c:	2012c7b7          	lui	a5,0x2012c
  1011a0:	00078793          	mv	a5,a5
  1011a4:	fef42623          	sw	a5,-20(s0)
  1011a8:	fec42783          	lw	a5,-20(s0)
  1011ac:	17f1                	addi	a5,a5,-4
  1011ae:	fef42623          	sw	a5,-20(s0)
  1011b2:	2012c7b7          	lui	a5,0x2012c
  1011b6:	c0078793          	addi	a5,a5,-1024 # 2012bc00 <__StackLimit+0x400>
  1011ba:	fef42423          	sw	a5,-24(s0)
  1011be:	fe842703          	lw	a4,-24(s0)
  1011c2:	6791                	lui	a5,0x4
  1011c4:	17f1                	addi	a5,a5,-4
  1011c6:	97ba                	add	a5,a5,a4
  1011c8:	fef42423          	sw	a5,-24(s0)
  1011cc:	2012c7b7          	lui	a5,0x2012c
  1011d0:	00078713          	mv	a4,a5
  1011d4:	2012e7b7          	lui	a5,0x2012e
  1011d8:	439c                	lw	a5,0(a5)
  1011da:	40f707b3          	sub	a5,a4,a5
  1011de:	fef42223          	sw	a5,-28(s0)
  1011e2:	fe442783          	lw	a5,-28(s0)
  1011e6:	40f007b3          	neg	a5,a5
  1011ea:	8b8d                	andi	a5,a5,3
  1011ec:	fef42023          	sw	a5,-32(s0)
  1011f0:	fe442703          	lw	a4,-28(s0)
  1011f4:	fe042783          	lw	a5,-32(s0)
  1011f8:	97ba                	add	a5,a5,a4
  1011fa:	8389                	srli	a5,a5,0x2
  1011fc:	fef42223          	sw	a5,-28(s0)
  101200:	fe442603          	lw	a2,-28(s0)
  101204:	fe842583          	lw	a1,-24(s0)
  101208:	fec42503          	lw	a0,-20(s0)
  10120c:	3555                	jal	1010b0 <pml_save_dec>
  10120e:	0001                	nop
  101210:	40f2                	lw	ra,28(sp)
  101212:	4462                	lw	s0,24(sp)
  101214:	6105                	addi	sp,sp,32
  101216:	8082                	ret
  101218:	00000013          	nop
  10121c:	00000013          	nop

00101220 <event_delay>:
event_delay():
  101220:	1141                	addi	sp,sp,-16
  101222:	c622                	sw	s0,12(sp)
  101224:	0800                	addi	s0,sp,16
  101226:	0001                	nop
  101228:	0001                	nop
  10122a:	0001                	nop
  10122c:	0001                	nop
  10122e:	0001                	nop
  101230:	0001                	nop
  101232:	0001                	nop
  101234:	0001                	nop
  101236:	0001                	nop
  101238:	0001                	nop
  10123a:	0001                	nop
  10123c:	0001                	nop
  10123e:	0001                	nop
  101240:	0001                	nop
  101242:	0001                	nop
  101244:	0001                	nop
  101246:	0001                	nop
  101248:	0001                	nop
  10124a:	0001                	nop
  10124c:	0001                	nop
  10124e:	0001                	nop
  101250:	0001                	nop
  101252:	0001                	nop
  101254:	0001                	nop
  101256:	0001                	nop
  101258:	0001                	nop
  10125a:	0001                	nop
  10125c:	0001                	nop
  10125e:	0001                	nop
  101260:	0001                	nop
  101262:	0001                	nop
  101264:	4432                	lw	s0,12(sp)
  101266:	0141                	addi	sp,sp,16
  101268:	8082                	ret
  10126a:	00000013          	nop
  10126e:	0001                	nop

00101270 <TellSche>:
TellSche():
  101270:	1101                	addi	sp,sp,-32
  101272:	ce06                	sw	ra,28(sp)
  101274:	cc22                	sw	s0,24(sp)
  101276:	1000                	addi	s0,sp,32
  101278:	fea42623          	sw	a0,-20(s0)
  10127c:	2012f7b7          	lui	a5,0x2012f
  101280:	3fc78793          	addi	a5,a5,1020 # 2012f3fc <__stack+0x33fc>
  101284:	fec42703          	lw	a4,-20(s0)
  101288:	c398                	sw	a4,0(a5)
  10128a:	a019                	j	101290 <TellSche+0x20>
  10128c:	4505                	li	a0,1
  10128e:	28c9                	jal	101360 <Delay>
  101290:	2012f7b7          	lui	a5,0x2012f
  101294:	3f878793          	addi	a5,a5,1016 # 2012f3f8 <__stack+0x33f8>
  101298:	439c                	lw	a5,0(a5)
  10129a:	dbed                	beqz	a5,10128c <TellSche+0x1c>
  10129c:	2012f7b7          	lui	a5,0x2012f
  1012a0:	3f878793          	addi	a5,a5,1016 # 2012f3f8 <__stack+0x33f8>
  1012a4:	0007a023          	sw	zero,0(a5)
  1012a8:	4509                	li	a0,2
  1012aa:	285d                	jal	101360 <Delay>
  1012ac:	0001                	nop
  1012ae:	40f2                	lw	ra,28(sp)
  1012b0:	4462                	lw	s0,24(sp)
  1012b2:	6105                	addi	sp,sp,32
  1012b4:	8082                	ret
  1012b6:	00000013          	nop
  1012ba:	00000013          	nop
  1012be:	0001                	nop

001012c0 <stack_restore_helper>:
stack_restore_helper():
  1012c0:	7179                	addi	sp,sp,-48
  1012c2:	d606                	sw	ra,44(sp)
  1012c4:	d422                	sw	s0,40(sp)
  1012c6:	1800                	addi	s0,sp,48
  1012c8:	fca42e23          	sw	a0,-36(s0)
  1012cc:	2012f7b7          	lui	a5,0x2012f
  1012d0:	3d878793          	addi	a5,a5,984 # 2012f3d8 <__stack+0x33d8>
  1012d4:	fdc42703          	lw	a4,-36(s0)
  1012d8:	c398                	sw	a4,0(a5)
  1012da:	2012c7b7          	lui	a5,0x2012c
  1012de:	00078713          	mv	a4,a5
  1012e2:	fdc42783          	lw	a5,-36(s0)
  1012e6:	40f707b3          	sub	a5,a4,a5
  1012ea:	fef42623          	sw	a5,-20(s0)
  1012ee:	2012c7b7          	lui	a5,0x2012c
  1012f2:	c0078793          	addi	a5,a5,-1024 # 2012bc00 <__StackLimit+0x400>
  1012f6:	fef42423          	sw	a5,-24(s0)
  1012fa:	fe842703          	lw	a4,-24(s0)
  1012fe:	6791                	lui	a5,0x4
  101300:	17f1                	addi	a5,a5,-4
  101302:	97ba                	add	a5,a5,a4
  101304:	fef42423          	sw	a5,-24(s0)
  101308:	fe042223          	sw	zero,-28(s0)
  10130c:	2012c7b7          	lui	a5,0x2012c
  101310:	00078793          	mv	a5,a5
  101314:	fef42223          	sw	a5,-28(s0)
  101318:	fe442783          	lw	a5,-28(s0)
  10131c:	17f1                	addi	a5,a5,-4
  10131e:	fef42223          	sw	a5,-28(s0)
  101322:	fec42783          	lw	a5,-20(s0)
  101326:	40f007b3          	neg	a5,a5
  10132a:	8b8d                	andi	a5,a5,3
  10132c:	fef42023          	sw	a5,-32(s0)
  101330:	fec42703          	lw	a4,-20(s0)
  101334:	fe042783          	lw	a5,-32(s0)
  101338:	97ba                	add	a5,a5,a4
  10133a:	8389                	srli	a5,a5,0x2
  10133c:	fef42623          	sw	a5,-20(s0)
  101340:	fec42603          	lw	a2,-20(s0)
  101344:	fe442583          	lw	a1,-28(s0)
  101348:	fe842503          	lw	a0,-24(s0)
  10134c:	3395                	jal	1010b0 <pml_save_dec>
  10134e:	0001                	nop
  101350:	50b2                	lw	ra,44(sp)
  101352:	5422                	lw	s0,40(sp)
  101354:	6145                	addi	sp,sp,48
  101356:	8082                	ret
	...

00101360 <Delay>:
Delay():
  101360:	7179                	addi	sp,sp,-48
  101362:	d622                	sw	s0,44(sp)
  101364:	1800                	addi	s0,sp,48
  101366:	fca42e23          	sw	a0,-36(s0)
  10136a:	201207b7          	lui	a5,0x20120
  10136e:	1c87a703          	lw	a4,456(a5) # 201201c8 <eda_flag>
  101372:	4785                	li	a5,1
  101374:	04f71463          	bne	a4,a5,1013bc <Delay+0x5c>
  101378:	47d1                	li	a5,20
  10137a:	fef42623          	sw	a5,-20(s0)
  10137e:	fe042423          	sw	zero,-24(s0)
  101382:	a80d                	j	1013b4 <Delay+0x54>
  101384:	fe042223          	sw	zero,-28(s0)
  101388:	a039                	j	101396 <Delay+0x36>
  10138a:	0001                	nop
  10138c:	fe442783          	lw	a5,-28(s0)
  101390:	0785                	addi	a5,a5,1
  101392:	fef42223          	sw	a5,-28(s0)
  101396:	fdc42703          	lw	a4,-36(s0)
  10139a:	fec42783          	lw	a5,-20(s0)
  10139e:	02f70733          	mul	a4,a4,a5
  1013a2:	fe442783          	lw	a5,-28(s0)
  1013a6:	fee7e2e3          	bltu	a5,a4,10138a <Delay+0x2a>
  1013aa:	fe842783          	lw	a5,-24(s0)
  1013ae:	0785                	addi	a5,a5,1
  1013b0:	fef42423          	sw	a5,-24(s0)
  1013b4:	fe842783          	lw	a5,-24(s0)
  1013b8:	d7f1                	beqz	a5,101384 <Delay+0x24>
  1013ba:	a0b9                	j	101408 <Delay+0xa8>
  1013bc:	0c800793          	li	a5,200
  1013c0:	fef42623          	sw	a5,-20(s0)
  1013c4:	fe042423          	sw	zero,-24(s0)
  1013c8:	a80d                	j	1013fa <Delay+0x9a>
  1013ca:	fe042223          	sw	zero,-28(s0)
  1013ce:	a039                	j	1013dc <Delay+0x7c>
  1013d0:	0001                	nop
  1013d2:	fe442783          	lw	a5,-28(s0)
  1013d6:	0785                	addi	a5,a5,1
  1013d8:	fef42223          	sw	a5,-28(s0)
  1013dc:	fdc42703          	lw	a4,-36(s0)
  1013e0:	fec42783          	lw	a5,-20(s0)
  1013e4:	02f70733          	mul	a4,a4,a5
  1013e8:	fe442783          	lw	a5,-28(s0)
  1013ec:	fee7e2e3          	bltu	a5,a4,1013d0 <Delay+0x70>
  1013f0:	fe842783          	lw	a5,-24(s0)
  1013f4:	0785                	addi	a5,a5,1
  1013f6:	fef42423          	sw	a5,-24(s0)
  1013fa:	fe842703          	lw	a4,-24(s0)
  1013fe:	6785                	lui	a5,0x1
  101400:	bb778793          	addi	a5,a5,-1097 # bb7 <Reset_Handler-0xff449>
  101404:	fce7f3e3          	bgeu	a5,a4,1013ca <Delay+0x6a>
  101408:	0001                	nop
  10140a:	5432                	lw	s0,44(sp)
  10140c:	6145                	addi	sp,sp,48
  10140e:	8082                	ret

00101410 <SetEDAMode>:
SetEDAMode():
  101410:	1101                	addi	sp,sp,-32
  101412:	ce22                	sw	s0,28(sp)
  101414:	1000                	addi	s0,sp,32
  101416:	fea42623          	sw	a0,-20(s0)
  10141a:	201207b7          	lui	a5,0x20120
  10141e:	fec42703          	lw	a4,-20(s0)
  101422:	1ce7a423          	sw	a4,456(a5) # 201201c8 <eda_flag>
  101426:	0001                	nop
  101428:	4472                	lw	s0,28(sp)
  10142a:	6105                	addi	sp,sp,32
  10142c:	8082                	ret
	...

00101440 <GetMainCLK>:
GetMainCLK():
  101440:	1141                	addi	sp,sp,-16
  101442:	c622                	sw	s0,12(sp)
  101444:	0800                	addi	s0,sp,16
  101446:	201207b7          	lui	a5,0x20120
  10144a:	1887a783          	lw	a5,392(a5) # 20120188 <g_main_clk>
  10144e:	853e                	mv	a0,a5
  101450:	4432                	lw	s0,12(sp)
  101452:	0141                	addi	sp,sp,16
  101454:	8082                	ret
  101456:	00000013          	nop
  10145a:	00000013          	nop
  10145e:	0001                	nop

00101460 <SetMainCLK>:
SetMainCLK():
  101460:	1101                	addi	sp,sp,-32
  101462:	ce22                	sw	s0,28(sp)
  101464:	1000                	addi	s0,sp,32
  101466:	fea42623          	sw	a0,-20(s0)
  10146a:	201207b7          	lui	a5,0x20120
  10146e:	fec42703          	lw	a4,-20(s0)
  101472:	18e7a423          	sw	a4,392(a5) # 20120188 <g_main_clk>
  101476:	0001                	nop
  101478:	4472                	lw	s0,28(sp)
  10147a:	6105                	addi	sp,sp,32
  10147c:	8082                	ret
  10147e:	0001                	nop

00101480 <PLL_Init>:
PLL_Init():
  101480:	7179                	addi	sp,sp,-48
  101482:	d606                	sw	ra,44(sp)
  101484:	d422                	sw	s0,40(sp)
  101486:	1800                	addi	s0,sp,48
  101488:	fca42e23          	sw	a0,-36(s0)
  10148c:	fdc42503          	lw	a0,-36(s0)
  101490:	3fc1                	jal	101460 <SetMainCLK>
  101492:	fdc42703          	lw	a4,-36(s0)
  101496:	47c1                	li	a5,16
  101498:	0ef70363          	beq	a4,a5,10157e <PLL_Init+0xfe>
  10149c:	400fe737          	lui	a4,0x400fe
  1014a0:	6785                	lui	a5,0x1
  1014a2:	97ba                	add	a5,a5,a4
  1014a4:	b187a783          	lw	a5,-1256(a5) # b18 <Reset_Handler-0xff4e8>
  1014a8:	400fe6b7          	lui	a3,0x400fe
  1014ac:	0037e713          	ori	a4,a5,3
  1014b0:	6785                	lui	a5,0x1
  1014b2:	97b6                	add	a5,a5,a3
  1014b4:	b0e7ac23          	sw	a4,-1256(a5) # b18 <Reset_Handler-0xff4e8>
  1014b8:	400fe737          	lui	a4,0x400fe
  1014bc:	6785                	lui	a5,0x1
  1014be:	97ba                	add	a5,a5,a4
  1014c0:	16900713          	li	a4,361
  1014c4:	b4e7a023          	sw	a4,-1216(a5) # b40 <Reset_Handler-0xff4c0>
  1014c8:	fdc42703          	lw	a4,-36(s0)
  1014cc:	02800793          	li	a5,40
  1014d0:	00f71b63          	bne	a4,a5,1014e6 <PLL_Init+0x66>
  1014d4:	400fe737          	lui	a4,0x400fe
  1014d8:	6785                	lui	a5,0x1
  1014da:	97ba                	add	a5,a5,a4
  1014dc:	07400713          	li	a4,116
  1014e0:	b4e7a823          	sw	a4,-1200(a5) # b50 <Reset_Handler-0xff4b0>
  1014e4:	a82d                	j	10151e <PLL_Init+0x9e>
  1014e6:	fdc42703          	lw	a4,-36(s0)
  1014ea:	05000793          	li	a5,80
  1014ee:	00f71b63          	bne	a4,a5,101504 <PLL_Init+0x84>
  1014f2:	400fe737          	lui	a4,0x400fe
  1014f6:	6785                	lui	a5,0x1
  1014f8:	97ba                	add	a5,a5,a4
  1014fa:	03b00713          	li	a4,59
  1014fe:	b4e7a823          	sw	a4,-1200(a5) # b50 <Reset_Handler-0xff4b0>
  101502:	a831                	j	10151e <PLL_Init+0x9e>
  101504:	fdc42703          	lw	a4,-36(s0)
  101508:	07800793          	li	a5,120
  10150c:	00f71963          	bne	a4,a5,10151e <PLL_Init+0x9e>
  101510:	400fe737          	lui	a4,0x400fe
  101514:	6785                	lui	a5,0x1
  101516:	97ba                	add	a5,a5,a4
  101518:	474d                	li	a4,19
  10151a:	b4e7a823          	sw	a4,-1200(a5) # b50 <Reset_Handler-0xff4b0>
  10151e:	400fe737          	lui	a4,0x400fe
  101522:	6785                	lui	a5,0x1
  101524:	97ba                	add	a5,a5,a4
  101526:	16900713          	li	a4,361
  10152a:	b6e7a023          	sw	a4,-1184(a5) # b60 <Reset_Handler-0xff4a0>
  10152e:	400fe737          	lui	a4,0x400fe
  101532:	6785                	lui	a5,0x1
  101534:	97ba                	add	a5,a5,a4
  101536:	04c00713          	li	a4,76
  10153a:	b6e7a223          	sw	a4,-1180(a5) # b64 <Reset_Handler-0xff49c>
  10153e:	400fe737          	lui	a4,0x400fe
  101542:	6785                	lui	a5,0x1
  101544:	97ba                	add	a5,a5,a4
  101546:	04000713          	li	a4,64
  10154a:	b2e7a823          	sw	a4,-1232(a5) # b30 <Reset_Handler-0xff4d0>
  10154e:	06400793          	li	a5,100
  101552:	fef42623          	sw	a5,-20(s0)
  101556:	0001                	nop
  101558:	fec42783          	lw	a5,-20(s0)
  10155c:	fff78713          	addi	a4,a5,-1
  101560:	fee42623          	sw	a4,-20(s0)
  101564:	fbf5                	bnez	a5,101558 <PLL_Init+0xd8>
  101566:	06400793          	li	a5,100
  10156a:	fef42423          	sw	a5,-24(s0)
  10156e:	0001                	nop
  101570:	fe842783          	lw	a5,-24(s0)
  101574:	fff78713          	addi	a4,a5,-1
  101578:	fee42423          	sw	a4,-24(s0)
  10157c:	fbf5                	bnez	a5,101570 <PLL_Init+0xf0>
  10157e:	0001                	nop
  101580:	50b2                	lw	ra,44(sp)
  101582:	5422                	lw	s0,40(sp)
  101584:	6145                	addi	sp,sp,48
  101586:	8082                	ret
  101588:	00000013          	nop
  10158c:	00000013          	nop

00101590 <Driver_IRQ_Close>:
Driver_IRQ_Close():
  101590:	1141                	addi	sp,sp,-16
  101592:	c622                	sw	s0,12(sp)
  101594:	0800                	addi	s0,sp,16
  101596:	400fe7b7          	lui	a5,0x400fe
  10159a:	4fb8                	lw	a4,88(a5)
  10159c:	400fe7b7          	lui	a5,0x400fe
  1015a0:	00276713          	ori	a4,a4,2
  1015a4:	cfb8                	sw	a4,88(a5)
  1015a6:	400fe7b7          	lui	a5,0x400fe
  1015aa:	4fb8                	lw	a4,88(a5)
  1015ac:	400fe7b7          	lui	a5,0x400fe
  1015b0:	04076713          	ori	a4,a4,64
  1015b4:	cfb8                	sw	a4,88(a5)
  1015b6:	400fe7b7          	lui	a5,0x400fe
  1015ba:	4fb8                	lw	a4,88(a5)
  1015bc:	400fe7b7          	lui	a5,0x400fe
  1015c0:	08076713          	ori	a4,a4,128
  1015c4:	cfb8                	sw	a4,88(a5)
  1015c6:	400fe7b7          	lui	a5,0x400fe
  1015ca:	4fb8                	lw	a4,88(a5)
  1015cc:	400fe7b7          	lui	a5,0x400fe
  1015d0:	10076713          	ori	a4,a4,256
  1015d4:	cfb8                	sw	a4,88(a5)
  1015d6:	0001                	nop
  1015d8:	4432                	lw	s0,12(sp)
  1015da:	0141                	addi	sp,sp,16
  1015dc:	8082                	ret
  1015de:	0001                	nop

001015e0 <Driver_Init>:
Driver_Init():
  1015e0:	1141                	addi	sp,sp,-16
  1015e2:	c606                	sw	ra,12(sp)
  1015e4:	c422                	sw	s0,8(sp)
  1015e6:	0800                	addi	s0,sp,16
  1015e8:	410007b7          	lui	a5,0x41000
  1015ec:	05878793          	addi	a5,a5,88 # 41000058 <__stack+0x20ed4058>
  1015f0:	439c                	lw	a5,0(a5)
  1015f2:	e385                	bnez	a5,101612 <Driver_Init+0x32>
  1015f4:	3f71                	jal	101590 <Driver_IRQ_Close>
  1015f6:	35a9                	jal	101440 <GetMainCLK>
  1015f8:	87aa                	mv	a5,a0
  1015fa:	853e                	mv	a0,a5
  1015fc:	3551                	jal	101480 <PLL_Init>
  1015fe:	3589                	jal	101440 <GetMainCLK>
  101600:	87aa                	mv	a5,a0
  101602:	853e                	mv	a0,a5
  101604:	7cc000ef          	jal	ra,101dd0 <uart_stdout_init>
  101608:	3d25                	jal	101440 <GetMainCLK>
  10160a:	87aa                	mv	a5,a0
  10160c:	853e                	mv	a0,a5
  10160e:	732000ef          	jal	ra,101d40 <uart2_init>
  101612:	0001                	nop
  101614:	40b2                	lw	ra,12(sp)
  101616:	4422                	lw	s0,8(sp)
  101618:	0141                	addi	sp,sp,16
  10161a:	8082                	ret
  10161c:	00000013          	nop

00101620 <Resource_Init>:
Resource_Init():
  101620:	1141                	addi	sp,sp,-16
  101622:	c606                	sw	ra,12(sp)
  101624:	c422                	sw	s0,8(sp)
  101626:	0800                	addi	s0,sp,16
  101628:	410007b7          	lui	a5,0x41000
  10162c:	05878793          	addi	a5,a5,88 # 41000058 <__stack+0x20ed4058>
  101630:	439c                	lw	a5,0(a5)
  101632:	ef99                	bnez	a5,101650 <Resource_Init+0x30>
  101634:	410007b7          	lui	a5,0x41000
  101638:	06478793          	addi	a5,a5,100 # 41000064 <__stack+0x20ed4064>
  10163c:	4705                	li	a4,1
  10163e:	c398                	sw	a4,0(a5)
  101640:	0001                	nop
  101642:	410007b7          	lui	a5,0x41000
  101646:	06878793          	addi	a5,a5,104 # 41000068 <__stack+0x20ed4068>
  10164a:	439c                	lw	a5,0(a5)
  10164c:	dbfd                	beqz	a5,101642 <Resource_Init+0x22>
  10164e:	a039                	j	10165c <Resource_Init+0x3c>
  101650:	410007b7          	lui	a5,0x41000
  101654:	06478793          	addi	a5,a5,100 # 41000064 <__stack+0x20ed4064>
  101658:	0007a023          	sw	zero,0(a5)
  10165c:	3751                	jal	1015e0 <Driver_Init>
  10165e:	2a09                	jal	101770 <IRQ_Init>
  101660:	8a1ff0ef          	jal	ra,100f00 <SRAM_Init>
  101664:	0001                	nop
  101666:	40b2                	lw	ra,12(sp)
  101668:	4422                	lw	s0,8(sp)
  10166a:	0141                	addi	sp,sp,16
  10166c:	8082                	ret
	...

00101680 <save_context_handler>:
save_context_handler():
  101680:	1141                	addi	sp,sp,-16
  101682:	c606                	sw	ra,12(sp)
  101684:	c422                	sw	s0,8(sp)
  101686:	0800                	addi	s0,sp,16
  101688:	410007b7          	lui	a5,0x41000
  10168c:	07c1                	addi	a5,a5,16
  10168e:	0007a023          	sw	zero,0(a5) # 41000000 <__stack+0x20ed4000>
  101692:	3cfd                	jal	101190 <pml_stack_save>
  101694:	3cb5                	jal	101110 <pml_loc_save>
  101696:	410007b7          	lui	a5,0x41000
  10169a:	07d1                	addi	a5,a5,20
  10169c:	4705                	li	a4,1
  10169e:	c398                	sw	a4,0(a5)
  1016a0:	0001                	nop
  1016a2:	40b2                	lw	ra,12(sp)
  1016a4:	4422                	lw	s0,8(sp)
  1016a6:	0141                	addi	sp,sp,16
  1016a8:	8082                	ret
  1016aa:	00000013          	nop
  1016ae:	0001                	nop

001016b0 <user_handle_helper>:
user_handle_helper():
  1016b0:	7179                	addi	sp,sp,-48
  1016b2:	d606                	sw	ra,44(sp)
  1016b4:	d422                	sw	s0,40(sp)
  1016b6:	1800                	addi	s0,sp,48
  1016b8:	fca42e23          	sw	a0,-36(s0)
  1016bc:	fdc42703          	lw	a4,-36(s0)
  1016c0:	100007b7          	lui	a5,0x10000
  1016c4:	03f78793          	addi	a5,a5,63 # 1000003f <__l_s_ram+0xfefc3cb>
  1016c8:	97ba                	add	a5,a5,a4
  1016ca:	078a                	slli	a5,a5,0x2
  1016cc:	fef42623          	sw	a5,-20(s0)
  1016d0:	fec42783          	lw	a5,-20(s0)
  1016d4:	0007a023          	sw	zero,0(a5)
  1016d8:	fdc42583          	lw	a1,-36(s0)
  1016dc:	001047b7          	lui	a5,0x104
  1016e0:	a5c78513          	addi	a0,a5,-1444 # 103a5c <charmap+0x190>
  1016e4:	7cc000ef          	jal	ra,101eb0 <uart_printf>
  1016e8:	201207b7          	lui	a5,0x20120
  1016ec:	1d47a783          	lw	a5,468(a5) # 201201d4 <k>
  1016f0:	00178713          	addi	a4,a5,1
  1016f4:	201207b7          	lui	a5,0x20120
  1016f8:	1ce7aa23          	sw	a4,468(a5) # 201201d4 <k>
  1016fc:	0001                	nop
  1016fe:	50b2                	lw	ra,44(sp)
  101700:	5422                	lw	s0,40(sp)
  101702:	6145                	addi	sp,sp,48
  101704:	8082                	ret
  101706:	00000013          	nop
  10170a:	00000013          	nop
  10170e:	0001                	nop

00101710 <user5_handler>:
user5_handler():
  101710:	1141                	addi	sp,sp,-16
  101712:	c606                	sw	ra,12(sp)
  101714:	c422                	sw	s0,8(sp)
  101716:	0800                	addi	s0,sp,16
  101718:	4519                	li	a0,6
  10171a:	3f59                	jal	1016b0 <user_handle_helper>
  10171c:	0001                	nop
  10171e:	40b2                	lw	ra,12(sp)
  101720:	4422                	lw	s0,8(sp)
  101722:	0141                	addi	sp,sp,16
  101724:	8082                	ret
  101726:	00000013          	nop
  10172a:	00000013          	nop
  10172e:	0001                	nop

00101730 <timer0a_handler>:
timer0a_handler():
  101730:	1141                	addi	sp,sp,-16
  101732:	c606                	sw	ra,12(sp)
  101734:	c422                	sw	s0,8(sp)
  101736:	0800                	addi	s0,sp,16
  101738:	4545                	li	a0,17
  10173a:	3f9d                	jal	1016b0 <user_handle_helper>
  10173c:	0001                	nop
  10173e:	40b2                	lw	ra,12(sp)
  101740:	4422                	lw	s0,8(sp)
  101742:	0141                	addi	sp,sp,16
  101744:	8082                	ret
  101746:	00000013          	nop
  10174a:	00000013          	nop
  10174e:	0001                	nop

00101750 <timer0b_handler>:
timer0b_handler():
  101750:	1141                	addi	sp,sp,-16
  101752:	c606                	sw	ra,12(sp)
  101754:	c422                	sw	s0,8(sp)
  101756:	0800                	addi	s0,sp,16
  101758:	4549                	li	a0,18
  10175a:	3f99                	jal	1016b0 <user_handle_helper>
  10175c:	0001                	nop
  10175e:	40b2                	lw	ra,12(sp)
  101760:	4422                	lw	s0,8(sp)
  101762:	0141                	addi	sp,sp,16
  101764:	8082                	ret
  101766:	00000013          	nop
  10176a:	00000013          	nop
  10176e:	0001                	nop

00101770 <IRQ_Init>:
IRQ_Init():
  101770:	1101                	addi	sp,sp,-32
  101772:	ce06                	sw	ra,28(sp)
  101774:	cc22                	sw	s0,24(sp)
  101776:	1000                	addi	s0,sp,32
  101778:	40a1                	li	ra,8
  10177a:	3000a073          	csrs	mstatus,ra
  10177e:	802ff0ef          	jal	ra,100780 <update_cliccfg>
  101782:	fe042623          	sw	zero,-20(s0)
  101786:	a811                	j	10179a <IRQ_Init+0x2a>
  101788:	fec42503          	lw	a0,-20(s0)
  10178c:	824ff0ef          	jal	ra,1007b0 <enable_irq>
  101790:	fec42783          	lw	a5,-20(s0)
  101794:	0785                	addi	a5,a5,1
  101796:	fef42623          	sw	a5,-20(s0)
  10179a:	fec42703          	lw	a4,-20(s0)
  10179e:	4785                	li	a5,1
  1017a0:	fee7d4e3          	bge	a5,a4,101788 <IRQ_Init+0x18>
  1017a4:	04000513          	li	a0,64
  1017a8:	23a5                	jal	101d10 <PLIC_Init>
  1017aa:	001017b7          	lui	a5,0x101
  1017ae:	71078613          	addi	a2,a5,1808 # 101710 <user5_handler>
  1017b2:	4589                	li	a1,2
  1017b4:	4519                	li	a0,6
  1017b6:	2eed                	jal	101bb0 <PLIC_Register_IRQ>
  1017b8:	001017b7          	lui	a5,0x101
  1017bc:	73078613          	addi	a2,a5,1840 # 101730 <timer0a_handler>
  1017c0:	458d                	li	a1,3
  1017c2:	4545                	li	a0,17
  1017c4:	26f5                	jal	101bb0 <PLIC_Register_IRQ>
  1017c6:	001017b7          	lui	a5,0x101
  1017ca:	75078613          	addi	a2,a5,1872 # 101750 <timer0b_handler>
  1017ce:	458d                	li	a1,3
  1017d0:	4549                	li	a0,18
  1017d2:	2ef9                	jal	101bb0 <PLIC_Register_IRQ>
  1017d4:	0001                	nop
  1017d6:	40f2                	lw	ra,28(sp)
  1017d8:	4462                	lw	s0,24(sp)
  1017da:	6105                	addi	sp,sp,32
  1017dc:	8082                	ret
  1017de:	0001                	nop

001017e0 <NMI_Handler>:
NMI_Handler():
  1017e0:	1101                	addi	sp,sp,-32
  1017e2:	ce06                	sw	ra,28(sp)
  1017e4:	cc22                	sw	s0,24(sp)
  1017e6:	1000                	addi	s0,sp,32
  1017e8:	001047b7          	lui	a5,0x104
  1017ec:	a7078513          	addi	a0,a5,-1424 # 103a70 <charmap+0x1a4>
  1017f0:	6c0000ef          	jal	ra,101eb0 <uart_printf>
  1017f4:	201207b7          	lui	a5,0x20120
  1017f8:	1cc7a783          	lw	a5,460(a5) # 201201cc <feedwdt>
  1017fc:	c3b5                	beqz	a5,101860 <NMI_Handler+0x80>
  1017fe:	201207b7          	lui	a5,0x20120
  101802:	1d07a783          	lw	a5,464(a5) # 201201d0 <wdtnum>
  101806:	85be                	mv	a1,a5
  101808:	001047b7          	lui	a5,0x104
  10180c:	a9078513          	addi	a0,a5,-1392 # 103a90 <charmap+0x1c4>
  101810:	2545                	jal	101eb0 <uart_printf>
  101812:	201207b7          	lui	a5,0x20120
  101816:	1d07a783          	lw	a5,464(a5) # 201201d0 <wdtnum>
  10181a:	e799                	bnez	a5,101828 <NMI_Handler+0x48>
  10181c:	201307b7          	lui	a5,0x20130
  101820:	07b1                	addi	a5,a5,12
  101822:	4705                	li	a4,1
  101824:	c398                	sw	a4,0(a5)
  101826:	a825                	j	10185e <NMI_Handler+0x7e>
  101828:	201207b7          	lui	a5,0x20120
  10182c:	1d07a703          	lw	a4,464(a5) # 201201d0 <wdtnum>
  101830:	4785                	li	a5,1
  101832:	02f71663          	bne	a4,a5,10185e <NMI_Handler+0x7e>
  101836:	201317b7          	lui	a5,0x20131
  10183a:	07b1                	addi	a5,a5,12
  10183c:	4705                	li	a4,1
  10183e:	c398                	sw	a4,0(a5)
  101840:	fe042623          	sw	zero,-20(s0)
  101844:	a031                	j	101850 <NMI_Handler+0x70>
  101846:	fec42783          	lw	a5,-20(s0)
  10184a:	0785                	addi	a5,a5,1
  10184c:	fef42623          	sw	a5,-20(s0)
  101850:	fec42703          	lw	a4,-20(s0)
  101854:	03100793          	li	a5,49
  101858:	fee7d7e3          	bge	a5,a4,101846 <NMI_Handler+0x66>
  10185c:	0001                	nop
  10185e:	0001                	nop
  101860:	40f2                	lw	ra,28(sp)
  101862:	4462                	lw	s0,24(sp)
  101864:	6105                	addi	sp,sp,32
  101866:	8082                	ret
  101868:	00000013          	nop
  10186c:	00000013          	nop

00101870 <general_handle_trap>:
general_handle_trap():
  101870:	7179                	addi	sp,sp,-48
  101872:	d606                	sw	ra,44(sp)
  101874:	d422                	sw	s0,40(sp)
  101876:	1800                	addi	s0,sp,48
  101878:	fca42e23          	sw	a0,-36(s0)
  10187c:	fcb42c23          	sw	a1,-40(s0)
  101880:	fcc42a23          	sw	a2,-44(s0)
  101884:	fdc42783          	lw	a5,-36(s0)
  101888:	0207cc63          	bltz	a5,1018c0 <general_handle_trap+0x50>
  10188c:	fdc42703          	lw	a4,-36(s0)
  101890:	6785                	lui	a5,0x1
  101892:	17fd                	addi	a5,a5,-1
  101894:	8f7d                	and	a4,a4,a5
  101896:	47e1                	li	a5,24
  101898:	00f71463          	bne	a4,a5,1018a0 <general_handle_trap+0x30>
  10189c:	3791                	jal	1017e0 <NMI_Handler>
  10189e:	a0b5                	j	10190a <general_handle_trap+0x9a>
  1018a0:	fd842703          	lw	a4,-40(s0)
  1018a4:	fdc42683          	lw	a3,-36(s0)
  1018a8:	0a500613          	li	a2,165
  1018ac:	001047b7          	lui	a5,0x104
  1018b0:	a9c78593          	addi	a1,a5,-1380 # 103a9c <charmap+0x1d0>
  1018b4:	001047b7          	lui	a5,0x104
  1018b8:	af478513          	addi	a0,a5,-1292 # 103af4 <charmap+0x228>
  1018bc:	2bd5                	jal	101eb0 <uart_printf>
  1018be:	a001                	j	1018be <general_handle_trap+0x4e>
  1018c0:	fdc42703          	lw	a4,-36(s0)
  1018c4:	6785                	lui	a5,0x1
  1018c6:	17bd                	addi	a5,a5,-17
  1018c8:	8ff9                	and	a5,a5,a4
  1018ca:	fef42623          	sw	a5,-20(s0)
  1018ce:	fec42783          	lw	a5,-20(s0)
  1018d2:	e399                	bnez	a5,1018d8 <general_handle_trap+0x68>
  1018d4:	3375                	jal	101680 <save_context_handler>
  1018d6:	a815                	j	10190a <general_handle_trap+0x9a>
  1018d8:	fec42703          	lw	a4,-20(s0)
  1018dc:	4785                	li	a5,1
  1018de:	00f71463          	bne	a4,a5,1018e6 <general_handle_trap+0x76>
  1018e2:	223d                	jal	101a10 <plic_handler>
  1018e4:	a01d                	j	10190a <general_handle_trap+0x9a>
  1018e6:	fec42783          	lw	a5,-20(s0)
  1018ea:	fd842703          	lw	a4,-40(s0)
  1018ee:	fdc42683          	lw	a3,-36(s0)
  1018f2:	0b200613          	li	a2,178
  1018f6:	001045b7          	lui	a1,0x104
  1018fa:	a9c58593          	addi	a1,a1,-1380 # 103a9c <charmap+0x1d0>
  1018fe:	00104537          	lui	a0,0x104
  101902:	b4850513          	addi	a0,a0,-1208 # 103b48 <charmap+0x27c>
  101906:	236d                	jal	101eb0 <uart_printf>
  101908:	a001                	j	101908 <general_handle_trap+0x98>
  10190a:	50b2                	lw	ra,44(sp)
  10190c:	5422                	lw	s0,40(sp)
  10190e:	6145                	addi	sp,sp,48
  101910:	8082                	ret
	...

00101920 <system_default_interrupt_handler>:
system_default_interrupt_handler():
  101920:	1141                	addi	sp,sp,-16
  101922:	c606                	sw	ra,12(sp)
  101924:	c422                	sw	s0,8(sp)
  101926:	0800                	addi	s0,sp,16
  101928:	001047b7          	lui	a5,0x104
  10192c:	ba478513          	addi	a0,a5,-1116 # 103ba4 <charmap+0x2d8>
  101930:	2341                	jal	101eb0 <uart_printf>
  101932:	a001                	j	101932 <system_default_interrupt_handler+0x12>
  101934:	00000013          	nop
  101938:	00000013          	nop
  10193c:	00000013          	nop

00101940 <Interrupt_Init>:
Interrupt_Init():
  101940:	1101                	addi	sp,sp,-32
  101942:	ce22                	sw	s0,28(sp)
  101944:	1000                	addi	s0,sp,32
  101946:	fe042623          	sw	zero,-20(s0)
  10194a:	a01d                	j	101970 <Interrupt_Init+0x30>
  10194c:	001027b7          	lui	a5,0x102
  101950:	92078713          	addi	a4,a5,-1760 # 101920 <system_default_interrupt_handler>
  101954:	201207b7          	lui	a5,0x20120
  101958:	fec42683          	lw	a3,-20(s0)
  10195c:	068a                	slli	a3,a3,0x2
  10195e:	1d878793          	addi	a5,a5,472 # 201201d8 <SystemExtInterruptHandlers>
  101962:	97b6                	add	a5,a5,a3
  101964:	c398                	sw	a4,0(a5)
  101966:	fec42783          	lw	a5,-20(s0)
  10196a:	0785                	addi	a5,a5,1
  10196c:	fef42623          	sw	a5,-20(s0)
  101970:	fec42703          	lw	a4,-20(s0)
  101974:	03f00793          	li	a5,63
  101978:	fce7dae3          	bge	a5,a4,10194c <Interrupt_Init+0xc>
  10197c:	0001                	nop
  10197e:	4472                	lw	s0,28(sp)
  101980:	6105                	addi	sp,sp,32
  101982:	8082                	ret
  101984:	00000013          	nop
  101988:	00000013          	nop
  10198c:	00000013          	nop

00101990 <Interrupt_Register_ExtIRQ>:
Interrupt_Register_ExtIRQ():
  101990:	1101                	addi	sp,sp,-32
  101992:	ce22                	sw	s0,28(sp)
  101994:	1000                	addi	s0,sp,32
  101996:	fea42623          	sw	a0,-20(s0)
  10199a:	feb42423          	sw	a1,-24(s0)
  10199e:	fec42703          	lw	a4,-20(s0)
  1019a2:	04000793          	li	a5,64
  1019a6:	00e7ed63          	bltu	a5,a4,1019c0 <Interrupt_Register_ExtIRQ+0x30>
  1019aa:	201207b7          	lui	a5,0x20120
  1019ae:	fec42703          	lw	a4,-20(s0)
  1019b2:	070a                	slli	a4,a4,0x2
  1019b4:	1d878793          	addi	a5,a5,472 # 201201d8 <SystemExtInterruptHandlers>
  1019b8:	97ba                	add	a5,a5,a4
  1019ba:	fe842703          	lw	a4,-24(s0)
  1019be:	c398                	sw	a4,0(a5)
  1019c0:	0001                	nop
  1019c2:	4472                	lw	s0,28(sp)
  1019c4:	6105                	addi	sp,sp,32
  1019c6:	8082                	ret
  1019c8:	00000013          	nop
  1019cc:	00000013          	nop

001019d0 <Interrupt_Get_ExtIRQ>:
Interrupt_Get_ExtIRQ():
  1019d0:	1101                	addi	sp,sp,-32
  1019d2:	ce22                	sw	s0,28(sp)
  1019d4:	1000                	addi	s0,sp,32
  1019d6:	fea42623          	sw	a0,-20(s0)
  1019da:	fec42703          	lw	a4,-20(s0)
  1019de:	04000793          	li	a5,64
  1019e2:	00e7ec63          	bltu	a5,a4,1019fa <Interrupt_Get_ExtIRQ+0x2a>
  1019e6:	201207b7          	lui	a5,0x20120
  1019ea:	fec42703          	lw	a4,-20(s0)
  1019ee:	070a                	slli	a4,a4,0x2
  1019f0:	1d878793          	addi	a5,a5,472 # 201201d8 <SystemExtInterruptHandlers>
  1019f4:	97ba                	add	a5,a5,a4
  1019f6:	439c                	lw	a5,0(a5)
  1019f8:	a011                	j	1019fc <Interrupt_Get_ExtIRQ+0x2c>
  1019fa:	4781                	li	a5,0
  1019fc:	853e                	mv	a0,a5
  1019fe:	4472                	lw	s0,28(sp)
  101a00:	6105                	addi	sp,sp,32
  101a02:	8082                	ret
  101a04:	00000013          	nop
  101a08:	00000013          	nop
  101a0c:	00000013          	nop

00101a10 <plic_handler>:
plic_handler():
  101a10:	7179                	addi	sp,sp,-48
  101a12:	d606                	sw	ra,44(sp)
  101a14:	d422                	sw	s0,40(sp)
  101a16:	1800                	addi	s0,sp,48
  101a18:	fe042223          	sw	zero,-28(s0)
  101a1c:	fe442783          	lw	a5,-28(s0)
  101a20:	00c79713          	slli	a4,a5,0xc
  101a24:	411007b7          	lui	a5,0x41100
  101a28:	60478793          	addi	a5,a5,1540 # 41100604 <__stack+0x20fd4604>
  101a2c:	97ba                	add	a5,a5,a4
  101a2e:	fef42023          	sw	a5,-32(s0)
  101a32:	fe042783          	lw	a5,-32(s0)
  101a36:	439c                	lw	a5,0(a5)
  101a38:	fef42623          	sw	a5,-20(s0)
  101a3c:	fe042423          	sw	zero,-24(s0)
  101a40:	fec42703          	lw	a4,-20(s0)
  101a44:	03f00793          	li	a5,63
  101a48:	04e7eb63          	bltu	a5,a4,101a9e <plic_handler+0x8e>
  101a4c:	201207b7          	lui	a5,0x20120
  101a50:	fec42703          	lw	a4,-20(s0)
  101a54:	070a                	slli	a4,a4,0x2
  101a56:	1d878793          	addi	a5,a5,472 # 201201d8 <SystemExtInterruptHandlers>
  101a5a:	97ba                	add	a5,a5,a4
  101a5c:	439c                	lw	a5,0(a5)
  101a5e:	fef42423          	sw	a5,-24(s0)
  101a62:	fe842783          	lw	a5,-24(s0)
  101a66:	c781                	beqz	a5,101a6e <plic_handler+0x5e>
  101a68:	fe842783          	lw	a5,-24(s0)
  101a6c:	9782                	jalr	a5
  101a6e:	fec42783          	lw	a5,-20(s0)
  101a72:	fcf42e23          	sw	a5,-36(s0)
  101a76:	fc042c23          	sw	zero,-40(s0)
  101a7a:	fd842783          	lw	a5,-40(s0)
  101a7e:	00c79713          	slli	a4,a5,0xc
  101a82:	411007b7          	lui	a5,0x41100
  101a86:	60478793          	addi	a5,a5,1540 # 41100604 <__stack+0x20fd4604>
  101a8a:	97ba                	add	a5,a5,a4
  101a8c:	fcf42a23          	sw	a5,-44(s0)
  101a90:	fd442783          	lw	a5,-44(s0)
  101a94:	fdc42703          	lw	a4,-36(s0)
  101a98:	c398                	sw	a4,0(a5)
  101a9a:	4785                	li	a5,1
  101a9c:	a019                	j	101aa2 <plic_handler+0x92>
  101a9e:	3549                	jal	101920 <system_default_interrupt_handler>
  101aa0:	4781                	li	a5,0
  101aa2:	853e                	mv	a0,a5
  101aa4:	50b2                	lw	ra,44(sp)
  101aa6:	5422                	lw	s0,40(sp)
  101aa8:	6145                	addi	sp,sp,48
  101aaa:	8082                	ret
  101aac:	00000013          	nop

00101ab0 <PLIC_Register_IRQ_Hard>:
PLIC_Register_IRQ_Hard():
  101ab0:	7139                	addi	sp,sp,-64
  101ab2:	de22                	sw	s0,60(sp)
  101ab4:	0080                	addi	s0,sp,64
  101ab6:	fca42623          	sw	a0,-52(s0)
  101aba:	87ae                	mv	a5,a1
  101abc:	fcf405a3          	sb	a5,-53(s0)
  101ac0:	fcc42703          	lw	a4,-52(s0)
  101ac4:	03f00793          	li	a5,63
  101ac8:	00e7f463          	bgeu	a5,a4,101ad0 <PLIC_Register_IRQ_Hard+0x20>
  101acc:	57fd                	li	a5,-1
  101ace:	a061                	j	101b56 <PLIC_Register_IRQ_Hard+0xa6>
  101ad0:	fcb44783          	lbu	a5,-53(s0)
  101ad4:	fcc42703          	lw	a4,-52(s0)
  101ad8:	fce42e23          	sw	a4,-36(s0)
  101adc:	fcf42c23          	sw	a5,-40(s0)
  101ae0:	fdc42783          	lw	a5,-36(s0)
  101ae4:	00279713          	slli	a4,a5,0x2
  101ae8:	411007b7          	lui	a5,0x41100
  101aec:	97ba                	add	a5,a5,a4
  101aee:	fcf42a23          	sw	a5,-44(s0)
  101af2:	fd442783          	lw	a5,-44(s0)
  101af6:	fd842703          	lw	a4,-40(s0)
  101afa:	c398                	sw	a4,0(a5)
  101afc:	fcc42783          	lw	a5,-52(s0)
  101b00:	fef42623          	sw	a5,-20(s0)
  101b04:	fe042423          	sw	zero,-24(s0)
  101b08:	fe842783          	lw	a5,-24(s0)
  101b0c:	00779713          	slli	a4,a5,0x7
  101b10:	fec42783          	lw	a5,-20(s0)
  101b14:	8395                	srli	a5,a5,0x5
  101b16:	078a                	slli	a5,a5,0x2
  101b18:	973e                	add	a4,a4,a5
  101b1a:	411007b7          	lui	a5,0x41100
  101b1e:	40078793          	addi	a5,a5,1024 # 41100400 <__stack+0x20fd4400>
  101b22:	97ba                	add	a5,a5,a4
  101b24:	fef42223          	sw	a5,-28(s0)
  101b28:	fe442783          	lw	a5,-28(s0)
  101b2c:	439c                	lw	a5,0(a5)
  101b2e:	fef42023          	sw	a5,-32(s0)
  101b32:	fec42783          	lw	a5,-20(s0)
  101b36:	8bfd                	andi	a5,a5,31
  101b38:	4705                	li	a4,1
  101b3a:	00f717b3          	sll	a5,a4,a5
  101b3e:	873e                	mv	a4,a5
  101b40:	fe042783          	lw	a5,-32(s0)
  101b44:	8fd9                	or	a5,a5,a4
  101b46:	fef42023          	sw	a5,-32(s0)
  101b4a:	fe442783          	lw	a5,-28(s0)
  101b4e:	fe042703          	lw	a4,-32(s0)
  101b52:	c398                	sw	a4,0(a5)
  101b54:	4781                	li	a5,0
  101b56:	853e                	mv	a0,a5
  101b58:	5472                	lw	s0,60(sp)
  101b5a:	6121                	addi	sp,sp,64
  101b5c:	8082                	ret
  101b5e:	0001                	nop

00101b60 <PLIC_Register_IRQ_Soft>:
PLIC_Register_IRQ_Soft():
  101b60:	1101                	addi	sp,sp,-32
  101b62:	ce06                	sw	ra,28(sp)
  101b64:	cc22                	sw	s0,24(sp)
  101b66:	ca26                	sw	s1,20(sp)
  101b68:	1000                	addi	s0,sp,32
  101b6a:	fea42623          	sw	a0,-20(s0)
  101b6e:	feb42423          	sw	a1,-24(s0)
  101b72:	fec42703          	lw	a4,-20(s0)
  101b76:	03f00793          	li	a5,63
  101b7a:	00e7f463          	bgeu	a5,a4,101b82 <PLIC_Register_IRQ_Soft+0x22>
  101b7e:	57fd                	li	a5,-1
  101b80:	a005                	j	101ba0 <PLIC_Register_IRQ_Soft+0x40>
  101b82:	fe842783          	lw	a5,-24(s0)
  101b86:	c799                	beqz	a5,101b94 <PLIC_Register_IRQ_Soft+0x34>
  101b88:	fe842783          	lw	a5,-24(s0)
  101b8c:	85be                	mv	a1,a5
  101b8e:	fec42503          	lw	a0,-20(s0)
  101b92:	3bfd                	jal	101990 <Interrupt_Register_ExtIRQ>
  101b94:	6785                	lui	a5,0x1
  101b96:	80078493          	addi	s1,a5,-2048 # 800 <Reset_Handler-0xff800>
  101b9a:	3044a073          	csrs	mie,s1
  101b9e:	4781                	li	a5,0
  101ba0:	853e                	mv	a0,a5
  101ba2:	40f2                	lw	ra,28(sp)
  101ba4:	4462                	lw	s0,24(sp)
  101ba6:	44d2                	lw	s1,20(sp)
  101ba8:	6105                	addi	sp,sp,32
  101baa:	8082                	ret
  101bac:	00000013          	nop

00101bb0 <PLIC_Register_IRQ>:
PLIC_Register_IRQ():
  101bb0:	7179                	addi	sp,sp,-48
  101bb2:	d606                	sw	ra,44(sp)
  101bb4:	d422                	sw	s0,40(sp)
  101bb6:	1800                	addi	s0,sp,48
  101bb8:	fca42e23          	sw	a0,-36(s0)
  101bbc:	87ae                	mv	a5,a1
  101bbe:	fcc42a23          	sw	a2,-44(s0)
  101bc2:	fcf40da3          	sb	a5,-37(s0)
  101bc6:	fd442583          	lw	a1,-44(s0)
  101bca:	fdc42503          	lw	a0,-36(s0)
  101bce:	3f49                	jal	101b60 <PLIC_Register_IRQ_Soft>
  101bd0:	fea42623          	sw	a0,-20(s0)
  101bd4:	fec42703          	lw	a4,-20(s0)
  101bd8:	57fd                	li	a5,-1
  101bda:	00f71563          	bne	a4,a5,101be4 <PLIC_Register_IRQ+0x34>
  101bde:	fec42783          	lw	a5,-20(s0)
  101be2:	a00d                	j	101c04 <PLIC_Register_IRQ+0x54>
  101be4:	410007b7          	lui	a5,0x41000
  101be8:	05878793          	addi	a5,a5,88 # 41000058 <__stack+0x20ed4058>
  101bec:	439c                	lw	a5,0(a5)
  101bee:	eb89                	bnez	a5,101c00 <PLIC_Register_IRQ+0x50>
  101bf0:	fdb44783          	lbu	a5,-37(s0)
  101bf4:	85be                	mv	a1,a5
  101bf6:	fdc42503          	lw	a0,-36(s0)
  101bfa:	3d5d                	jal	101ab0 <PLIC_Register_IRQ_Hard>
  101bfc:	fea42623          	sw	a0,-20(s0)
  101c00:	fec42783          	lw	a5,-20(s0)
  101c04:	853e                	mv	a0,a5
  101c06:	50b2                	lw	ra,44(sp)
  101c08:	5422                	lw	s0,40(sp)
  101c0a:	6145                	addi	sp,sp,48
  101c0c:	8082                	ret
  101c0e:	0001                	nop

00101c10 <PLIC_Init_Hard>:
PLIC_Init_Hard():
  101c10:	715d                	addi	sp,sp,-80
  101c12:	c6a2                	sw	s0,76(sp)
  101c14:	0880                	addi	s0,sp,80
  101c16:	faa42e23          	sw	a0,-68(s0)
  101c1a:	fe042623          	sw	zero,-20(s0)
  101c1e:	a841                	j	101cae <PLIC_Init_Hard+0x9e>
  101c20:	fec42783          	lw	a5,-20(s0)
  101c24:	fcf42e23          	sw	a5,-36(s0)
  101c28:	fc042c23          	sw	zero,-40(s0)
  101c2c:	fd842783          	lw	a5,-40(s0)
  101c30:	00779713          	slli	a4,a5,0x7
  101c34:	fdc42783          	lw	a5,-36(s0)
  101c38:	8395                	srli	a5,a5,0x5
  101c3a:	078a                	slli	a5,a5,0x2
  101c3c:	973e                	add	a4,a4,a5
  101c3e:	411007b7          	lui	a5,0x41100
  101c42:	40078793          	addi	a5,a5,1024 # 41100400 <__stack+0x20fd4400>
  101c46:	97ba                	add	a5,a5,a4
  101c48:	fcf42a23          	sw	a5,-44(s0)
  101c4c:	fd442783          	lw	a5,-44(s0)
  101c50:	439c                	lw	a5,0(a5)
  101c52:	fcf42823          	sw	a5,-48(s0)
  101c56:	fdc42783          	lw	a5,-36(s0)
  101c5a:	8bfd                	andi	a5,a5,31
  101c5c:	4705                	li	a4,1
  101c5e:	00f717b3          	sll	a5,a4,a5
  101c62:	fff7c793          	not	a5,a5
  101c66:	873e                	mv	a4,a5
  101c68:	fd042783          	lw	a5,-48(s0)
  101c6c:	8ff9                	and	a5,a5,a4
  101c6e:	fcf42823          	sw	a5,-48(s0)
  101c72:	fd442783          	lw	a5,-44(s0)
  101c76:	fd042703          	lw	a4,-48(s0)
  101c7a:	c398                	sw	a4,0(a5)
  101c7c:	fec42783          	lw	a5,-20(s0)
  101c80:	fef42423          	sw	a5,-24(s0)
  101c84:	fe042223          	sw	zero,-28(s0)
  101c88:	fe842783          	lw	a5,-24(s0)
  101c8c:	00279713          	slli	a4,a5,0x2
  101c90:	411007b7          	lui	a5,0x41100
  101c94:	97ba                	add	a5,a5,a4
  101c96:	fef42023          	sw	a5,-32(s0)
  101c9a:	fe042783          	lw	a5,-32(s0)
  101c9e:	fe442703          	lw	a4,-28(s0)
  101ca2:	c398                	sw	a4,0(a5)
  101ca4:	fec42783          	lw	a5,-20(s0)
  101ca8:	0785                	addi	a5,a5,1
  101caa:	fef42623          	sw	a5,-20(s0)
  101cae:	fec42703          	lw	a4,-20(s0)
  101cb2:	fbc42783          	lw	a5,-68(s0)
  101cb6:	f6f765e3          	bltu	a4,a5,101c20 <PLIC_Init_Hard+0x10>
  101cba:	fc042623          	sw	zero,-52(s0)
  101cbe:	fc042423          	sw	zero,-56(s0)
  101cc2:	fc842783          	lw	a5,-56(s0)
  101cc6:	00c79713          	slli	a4,a5,0xc
  101cca:	411007b7          	lui	a5,0x41100
  101cce:	60078793          	addi	a5,a5,1536 # 41100600 <__stack+0x20fd4600>
  101cd2:	97ba                	add	a5,a5,a4
  101cd4:	fcf42223          	sw	a5,-60(s0)
  101cd8:	fc442783          	lw	a5,-60(s0)
  101cdc:	fcc42703          	lw	a4,-52(s0)
  101ce0:	c398                	sw	a4,0(a5)
  101ce2:	0001                	nop
  101ce4:	4436                	lw	s0,76(sp)
  101ce6:	6161                	addi	sp,sp,80
  101ce8:	8082                	ret
  101cea:	00000013          	nop
  101cee:	0001                	nop

00101cf0 <PLIC_Init_Soft>:
PLIC_Init_Soft():
  101cf0:	1141                	addi	sp,sp,-16
  101cf2:	c606                	sw	ra,12(sp)
  101cf4:	c422                	sw	s0,8(sp)
  101cf6:	0800                	addi	s0,sp,16
  101cf8:	31a1                	jal	101940 <Interrupt_Init>
  101cfa:	0001                	nop
  101cfc:	40b2                	lw	ra,12(sp)
  101cfe:	4422                	lw	s0,8(sp)
  101d00:	0141                	addi	sp,sp,16
  101d02:	8082                	ret
  101d04:	00000013          	nop
  101d08:	00000013          	nop
  101d0c:	00000013          	nop

00101d10 <PLIC_Init>:
PLIC_Init():
  101d10:	1101                	addi	sp,sp,-32
  101d12:	ce06                	sw	ra,28(sp)
  101d14:	cc22                	sw	s0,24(sp)
  101d16:	1000                	addi	s0,sp,32
  101d18:	fea42623          	sw	a0,-20(s0)
  101d1c:	3fd1                	jal	101cf0 <PLIC_Init_Soft>
  101d1e:	410007b7          	lui	a5,0x41000
  101d22:	05878793          	addi	a5,a5,88 # 41000058 <__stack+0x20ed4058>
  101d26:	439c                	lw	a5,0(a5)
  101d28:	e781                	bnez	a5,101d30 <PLIC_Init+0x20>
  101d2a:	fec42503          	lw	a0,-20(s0)
  101d2e:	35cd                	jal	101c10 <PLIC_Init_Hard>
  101d30:	0001                	nop
  101d32:	40f2                	lw	ra,28(sp)
  101d34:	4462                	lw	s0,24(sp)
  101d36:	6105                	addi	sp,sp,32
  101d38:	8082                	ret
  101d3a:	0000                	unimp
  101d3c:	0000                	unimp
	...

00101d40 <uart2_init>:
uart2_init():
  101d40:	7179                	addi	sp,sp,-48
  101d42:	d606                	sw	ra,44(sp)
  101d44:	d422                	sw	s0,40(sp)
  101d46:	1800                	addi	s0,sp,48
  101d48:	fca42e23          	sw	a0,-36(s0)
  101d4c:	001047b7          	lui	a5,0x104
  101d50:	bc07a603          	lw	a2,-1088(a5) # 103bc0 <charmap+0x2f4>
  101d54:	bc078713          	addi	a4,a5,-1088
  101d58:	4354                	lw	a3,4(a4)
  101d5a:	bc078713          	addi	a4,a5,-1088
  101d5e:	4718                	lw	a4,8(a4)
  101d60:	bc078793          	addi	a5,a5,-1088
  101d64:	47dc                	lw	a5,12(a5)
  101d66:	fec42023          	sw	a2,-32(s0)
  101d6a:	fed42223          	sw	a3,-28(s0)
  101d6e:	fee42423          	sw	a4,-24(s0)
  101d72:	fef42623          	sw	a5,-20(s0)
  101d76:	04000593          	li	a1,64
  101d7a:	450d                	li	a0,3
  101d7c:	155010ef          	jal	ra,1036d0 <GPIO_PinTypeUART>
  101d80:	08000593          	li	a1,128
  101d84:	450d                	li	a0,3
  101d86:	14b010ef          	jal	ra,1036d0 <GPIO_PinTypeUART>
  101d8a:	006007b7          	lui	a5,0x600
  101d8e:	32478513          	addi	a0,a5,804 # 600324 <__l_s_ram+0x4fc6b0>
  101d92:	1ff010ef          	jal	ra,103790 <GPIO_PinConfigure>
  101d96:	004007b7          	lui	a5,0x400
  101d9a:	32478513          	addi	a0,a5,804 # 400324 <__l_s_ram+0x2fc6b0>
  101d9e:	1f3010ef          	jal	ra,103790 <GPIO_PinConfigure>
  101da2:	4005b7b7          	lui	a5,0x4005b
  101da6:	11000737          	lui	a4,0x11000
  101daa:	52e7a623          	sw	a4,1324(a5) # 4005b52c <__stack+0x1ff2f52c>
  101dae:	fe040793          	addi	a5,s0,-32
  101db2:	fdc42603          	lw	a2,-36(s0)
  101db6:	85be                	mv	a1,a5
  101db8:	4000e537          	lui	a0,0x4000e
  101dbc:	2695                	jal	102120 <UART_Init>
  101dbe:	0001                	nop
  101dc0:	50b2                	lw	ra,44(sp)
  101dc2:	5422                	lw	s0,40(sp)
  101dc4:	6145                	addi	sp,sp,48
  101dc6:	8082                	ret
  101dc8:	00000013          	nop
  101dcc:	00000013          	nop

00101dd0 <uart_stdout_init>:
uart_stdout_init():
  101dd0:	7179                	addi	sp,sp,-48
  101dd2:	d606                	sw	ra,44(sp)
  101dd4:	d422                	sw	s0,40(sp)
  101dd6:	1800                	addi	s0,sp,48
  101dd8:	fca42e23          	sw	a0,-36(s0)
  101ddc:	001047b7          	lui	a5,0x104
  101de0:	bc07a603          	lw	a2,-1088(a5) # 103bc0 <charmap+0x2f4>
  101de4:	bc078713          	addi	a4,a5,-1088
  101de8:	4354                	lw	a3,4(a4)
  101dea:	bc078713          	addi	a4,a5,-1088
  101dee:	4718                	lw	a4,8(a4)
  101df0:	bc078793          	addi	a5,a5,-1088
  101df4:	47dc                	lw	a5,12(a5)
  101df6:	fec42023          	sw	a2,-32(s0)
  101dfa:	fed42223          	sw	a3,-28(s0)
  101dfe:	fee42423          	sw	a4,-24(s0)
  101e02:	fef42623          	sw	a5,-20(s0)
  101e06:	fe040793          	addi	a5,s0,-32
  101e0a:	fdc42603          	lw	a2,-36(s0)
  101e0e:	85be                	mv	a1,a5
  101e10:	4000c537          	lui	a0,0x4000c
  101e14:	2631                	jal	102120 <UART_Init>
  101e16:	0001                	nop
  101e18:	50b2                	lw	ra,44(sp)
  101e1a:	5422                	lw	s0,40(sp)
  101e1c:	6145                	addi	sp,sp,48
  101e1e:	8082                	ret

00101e20 <uart_putc>:
uart_putc():
  101e20:	1101                	addi	sp,sp,-32
  101e22:	ce22                	sw	s0,28(sp)
  101e24:	1000                	addi	s0,sp,32
  101e26:	87aa                	mv	a5,a0
  101e28:	fef407a3          	sb	a5,-17(s0)
  101e2c:	0001                	nop
  101e2e:	4000c7b7          	lui	a5,0x4000c
  101e32:	57dc                	lw	a5,44(a5)
  101e34:	8bc1                	andi	a5,a5,16
  101e36:	ffe5                	bnez	a5,101e2e <uart_putc+0xe>
  101e38:	4000c7b7          	lui	a5,0x4000c
  101e3c:	fef44703          	lbu	a4,-17(s0)
  101e40:	db98                	sw	a4,48(a5)
  101e42:	0001                	nop
  101e44:	4472                	lw	s0,28(sp)
  101e46:	6105                	addi	sp,sp,32
  101e48:	8082                	ret
  101e4a:	00000013          	nop
  101e4e:	0001                	nop

00101e50 <printn>:
printn():
  101e50:	7179                	addi	sp,sp,-48
  101e52:	d606                	sw	ra,44(sp)
  101e54:	d422                	sw	s0,40(sp)
  101e56:	1800                	addi	s0,sp,48
  101e58:	fca42e23          	sw	a0,-36(s0)
  101e5c:	fcb42c23          	sw	a1,-40(s0)
  101e60:	fdc42703          	lw	a4,-36(s0)
  101e64:	fd842783          	lw	a5,-40(s0)
  101e68:	02f757b3          	divu	a5,a4,a5
  101e6c:	fef42623          	sw	a5,-20(s0)
  101e70:	fec42783          	lw	a5,-20(s0)
  101e74:	c791                	beqz	a5,101e80 <printn+0x30>
  101e76:	fd842583          	lw	a1,-40(s0)
  101e7a:	fec42503          	lw	a0,-20(s0)
  101e7e:	3fc9                	jal	101e50 <printn>
  101e80:	fdc42703          	lw	a4,-36(s0)
  101e84:	fd842783          	lw	a5,-40(s0)
  101e88:	02f77733          	remu	a4,a4,a5
  101e8c:	001047b7          	lui	a5,0x104
  101e90:	bd078793          	addi	a5,a5,-1072 # 103bd0 <cmap>
  101e94:	97ba                	add	a5,a5,a4
  101e96:	0007c783          	lbu	a5,0(a5)
  101e9a:	853e                	mv	a0,a5
  101e9c:	3751                	jal	101e20 <uart_putc>
  101e9e:	0001                	nop
  101ea0:	50b2                	lw	ra,44(sp)
  101ea2:	5422                	lw	s0,40(sp)
  101ea4:	6145                	addi	sp,sp,48
  101ea6:	8082                	ret
  101ea8:	00000013          	nop
  101eac:	00000013          	nop

00101eb0 <uart_printf>:
uart_printf():
  101eb0:	711d                	addi	sp,sp,-96
  101eb2:	de06                	sw	ra,60(sp)
  101eb4:	dc22                	sw	s0,56(sp)
  101eb6:	0080                	addi	s0,sp,64
  101eb8:	fca42623          	sw	a0,-52(s0)
  101ebc:	c04c                	sw	a1,4(s0)
  101ebe:	c410                	sw	a2,8(s0)
  101ec0:	c454                	sw	a3,12(s0)
  101ec2:	c818                	sw	a4,16(s0)
  101ec4:	c85c                	sw	a5,20(s0)
  101ec6:	01042c23          	sw	a6,24(s0)
  101eca:	01142e23          	sw	a7,28(s0)
  101ece:	fe0405a3          	sb	zero,-21(s0)
  101ed2:	fe042623          	sw	zero,-20(s0)
  101ed6:	fe042223          	sw	zero,-28(s0)
  101eda:	fe042023          	sw	zero,-32(s0)
  101ede:	02040793          	addi	a5,s0,32
  101ee2:	1791                	addi	a5,a5,-28
  101ee4:	fcf42e23          	sw	a5,-36(s0)
  101ee8:	a411                	j	1020ec <uart_printf+0x23c>
  101eea:	feb44703          	lbu	a4,-21(s0)
  101eee:	02500793          	li	a5,37
  101ef2:	00f70763          	beq	a4,a5,101f00 <uart_printf+0x50>
  101ef6:	feb44783          	lbu	a5,-21(s0)
  101efa:	853e                	mv	a0,a5
  101efc:	3715                	jal	101e20 <uart_putc>
  101efe:	a2fd                	j	1020ec <uart_printf+0x23c>
  101f00:	fcc42783          	lw	a5,-52(s0)
  101f04:	00178713          	addi	a4,a5,1
  101f08:	fce42623          	sw	a4,-52(s0)
  101f0c:	0007c783          	lbu	a5,0(a5)
  101f10:	fef405a3          	sb	a5,-21(s0)
  101f14:	feb44783          	lbu	a5,-21(s0)
  101f18:	fa878793          	addi	a5,a5,-88
  101f1c:	02000713          	li	a4,32
  101f20:	1af76863          	bltu	a4,a5,1020d0 <uart_printf+0x220>
  101f24:	00279713          	slli	a4,a5,0x2
  101f28:	001047b7          	lui	a5,0x104
  101f2c:	be078793          	addi	a5,a5,-1056 # 103be0 <cmap+0x10>
  101f30:	97ba                	add	a5,a5,a4
  101f32:	439c                	lw	a5,0(a5)
  101f34:	8782                	jr	a5
  101f36:	fdc42783          	lw	a5,-36(s0)
  101f3a:	00478713          	addi	a4,a5,4
  101f3e:	fce42e23          	sw	a4,-36(s0)
  101f42:	439c                	lw	a5,0(a5)
  101f44:	fef42023          	sw	a5,-32(s0)
  101f48:	fe042783          	lw	a5,-32(s0)
  101f4c:	45a1                	li	a1,8
  101f4e:	853e                	mv	a0,a5
  101f50:	3701                	jal	101e50 <printn>
  101f52:	aa69                	j	1020ec <uart_printf+0x23c>
  101f54:	fdc42783          	lw	a5,-36(s0)
  101f58:	00478713          	addi	a4,a5,4
  101f5c:	fce42e23          	sw	a4,-36(s0)
  101f60:	439c                	lw	a5,0(a5)
  101f62:	fef42023          	sw	a5,-32(s0)
  101f66:	fe042783          	lw	a5,-32(s0)
  101f6a:	45a9                	li	a1,10
  101f6c:	853e                	mv	a0,a5
  101f6e:	35cd                	jal	101e50 <printn>
  101f70:	aab5                	j	1020ec <uart_printf+0x23c>
  101f72:	fdc42783          	lw	a5,-36(s0)
  101f76:	00478713          	addi	a4,a5,4
  101f7a:	fce42e23          	sw	a4,-36(s0)
  101f7e:	439c                	lw	a5,0(a5)
  101f80:	fef42223          	sw	a5,-28(s0)
  101f84:	fe442783          	lw	a5,-28(s0)
  101f88:	83f1                	srli	a5,a5,0x1c
  101f8a:	cf91                	beqz	a5,101fa6 <uart_printf+0xf6>
  101f8c:	fe442783          	lw	a5,-28(s0)
  101f90:	01c7d713          	srli	a4,a5,0x1c
  101f94:	001047b7          	lui	a5,0x104
  101f98:	bd078793          	addi	a5,a5,-1072 # 103bd0 <cmap>
  101f9c:	97ba                	add	a5,a5,a4
  101f9e:	0007c783          	lbu	a5,0(a5)
  101fa2:	853e                	mv	a0,a5
  101fa4:	3db5                	jal	101e20 <uart_putc>
  101fa6:	fe442783          	lw	a5,-28(s0)
  101faa:	83e1                	srli	a5,a5,0x18
  101fac:	cf99                	beqz	a5,101fca <uart_printf+0x11a>
  101fae:	fe442783          	lw	a5,-28(s0)
  101fb2:	83e1                	srli	a5,a5,0x18
  101fb4:	00f7f713          	andi	a4,a5,15
  101fb8:	001047b7          	lui	a5,0x104
  101fbc:	bd078793          	addi	a5,a5,-1072 # 103bd0 <cmap>
  101fc0:	97ba                	add	a5,a5,a4
  101fc2:	0007c783          	lbu	a5,0(a5)
  101fc6:	853e                	mv	a0,a5
  101fc8:	3da1                	jal	101e20 <uart_putc>
  101fca:	fe442783          	lw	a5,-28(s0)
  101fce:	83d1                	srli	a5,a5,0x14
  101fd0:	cf99                	beqz	a5,101fee <uart_printf+0x13e>
  101fd2:	fe442783          	lw	a5,-28(s0)
  101fd6:	83d1                	srli	a5,a5,0x14
  101fd8:	00f7f713          	andi	a4,a5,15
  101fdc:	001047b7          	lui	a5,0x104
  101fe0:	bd078793          	addi	a5,a5,-1072 # 103bd0 <cmap>
  101fe4:	97ba                	add	a5,a5,a4
  101fe6:	0007c783          	lbu	a5,0(a5)
  101fea:	853e                	mv	a0,a5
  101fec:	3d15                	jal	101e20 <uart_putc>
  101fee:	fe442783          	lw	a5,-28(s0)
  101ff2:	83c1                	srli	a5,a5,0x10
  101ff4:	cf99                	beqz	a5,102012 <uart_printf+0x162>
  101ff6:	fe442783          	lw	a5,-28(s0)
  101ffa:	83c1                	srli	a5,a5,0x10
  101ffc:	00f7f713          	andi	a4,a5,15
  102000:	001047b7          	lui	a5,0x104
  102004:	bd078793          	addi	a5,a5,-1072 # 103bd0 <cmap>
  102008:	97ba                	add	a5,a5,a4
  10200a:	0007c783          	lbu	a5,0(a5)
  10200e:	853e                	mv	a0,a5
  102010:	3d01                	jal	101e20 <uart_putc>
  102012:	fe442783          	lw	a5,-28(s0)
  102016:	83b1                	srli	a5,a5,0xc
  102018:	cf99                	beqz	a5,102036 <uart_printf+0x186>
  10201a:	fe442783          	lw	a5,-28(s0)
  10201e:	83b1                	srli	a5,a5,0xc
  102020:	00f7f713          	andi	a4,a5,15
  102024:	001047b7          	lui	a5,0x104
  102028:	bd078793          	addi	a5,a5,-1072 # 103bd0 <cmap>
  10202c:	97ba                	add	a5,a5,a4
  10202e:	0007c783          	lbu	a5,0(a5)
  102032:	853e                	mv	a0,a5
  102034:	33f5                	jal	101e20 <uart_putc>
  102036:	fe442783          	lw	a5,-28(s0)
  10203a:	83a1                	srli	a5,a5,0x8
  10203c:	cf99                	beqz	a5,10205a <uart_printf+0x1aa>
  10203e:	fe442783          	lw	a5,-28(s0)
  102042:	83a1                	srli	a5,a5,0x8
  102044:	00f7f713          	andi	a4,a5,15
  102048:	001047b7          	lui	a5,0x104
  10204c:	bd078793          	addi	a5,a5,-1072 # 103bd0 <cmap>
  102050:	97ba                	add	a5,a5,a4
  102052:	0007c783          	lbu	a5,0(a5)
  102056:	853e                	mv	a0,a5
  102058:	33e1                	jal	101e20 <uart_putc>
  10205a:	fe442783          	lw	a5,-28(s0)
  10205e:	8391                	srli	a5,a5,0x4
  102060:	cf99                	beqz	a5,10207e <uart_printf+0x1ce>
  102062:	fe442783          	lw	a5,-28(s0)
  102066:	8391                	srli	a5,a5,0x4
  102068:	00f7f713          	andi	a4,a5,15
  10206c:	001047b7          	lui	a5,0x104
  102070:	bd078793          	addi	a5,a5,-1072 # 103bd0 <cmap>
  102074:	97ba                	add	a5,a5,a4
  102076:	0007c783          	lbu	a5,0(a5)
  10207a:	853e                	mv	a0,a5
  10207c:	3355                	jal	101e20 <uart_putc>
  10207e:	fe442783          	lw	a5,-28(s0)
  102082:	00f7f713          	andi	a4,a5,15
  102086:	001047b7          	lui	a5,0x104
  10208a:	bd078793          	addi	a5,a5,-1072 # 103bd0 <cmap>
  10208e:	97ba                	add	a5,a5,a4
  102090:	0007c783          	lbu	a5,0(a5)
  102094:	853e                	mv	a0,a5
  102096:	3369                	jal	101e20 <uart_putc>
  102098:	a891                	j	1020ec <uart_printf+0x23c>
  10209a:	fdc42783          	lw	a5,-36(s0)
  10209e:	00478713          	addi	a4,a5,4
  1020a2:	fce42e23          	sw	a4,-36(s0)
  1020a6:	439c                	lw	a5,0(a5)
  1020a8:	fef42623          	sw	a5,-20(s0)
  1020ac:	a821                	j	1020c4 <uart_printf+0x214>
  1020ae:	fec42783          	lw	a5,-20(s0)
  1020b2:	0007c783          	lbu	a5,0(a5)
  1020b6:	853e                	mv	a0,a5
  1020b8:	33a5                	jal	101e20 <uart_putc>
  1020ba:	fec42783          	lw	a5,-20(s0)
  1020be:	0785                	addi	a5,a5,1
  1020c0:	fef42623          	sw	a5,-20(s0)
  1020c4:	fec42783          	lw	a5,-20(s0)
  1020c8:	0007c783          	lbu	a5,0(a5)
  1020cc:	f3ed                	bnez	a5,1020ae <uart_printf+0x1fe>
  1020ce:	a839                	j	1020ec <uart_printf+0x23c>
  1020d0:	fdc42783          	lw	a5,-36(s0)
  1020d4:	00478713          	addi	a4,a5,4
  1020d8:	fce42e23          	sw	a4,-36(s0)
  1020dc:	439c                	lw	a5,0(a5)
  1020de:	fef405a3          	sb	a5,-21(s0)
  1020e2:	feb44783          	lbu	a5,-21(s0)
  1020e6:	853e                	mv	a0,a5
  1020e8:	3b25                	jal	101e20 <uart_putc>
  1020ea:	0001                	nop
  1020ec:	fcc42783          	lw	a5,-52(s0)
  1020f0:	00178713          	addi	a4,a5,1
  1020f4:	fce42623          	sw	a4,-52(s0)
  1020f8:	0007c783          	lbu	a5,0(a5)
  1020fc:	fef405a3          	sb	a5,-21(s0)
  102100:	feb44783          	lbu	a5,-21(s0)
  102104:	de0793e3          	bnez	a5,101eea <uart_printf+0x3a>
  102108:	0001                	nop
  10210a:	50f2                	lw	ra,60(sp)
  10210c:	5462                	lw	s0,56(sp)
  10210e:	6125                	addi	sp,sp,96
  102110:	8082                	ret
	...

00102120 <UART_Init>:
UART_Init():
  102120:	7179                	addi	sp,sp,-48
  102122:	d622                	sw	s0,44(sp)
  102124:	1800                	addi	s0,sp,48
  102126:	fca42e23          	sw	a0,-36(s0)
  10212a:	fcb42c23          	sw	a1,-40(s0)
  10212e:	fcc42a23          	sw	a2,-44(s0)
  102132:	fe042623          	sw	zero,-20(s0)
  102136:	fe042423          	sw	zero,-24(s0)
  10213a:	fe042223          	sw	zero,-28(s0)
  10213e:	fdc42783          	lw	a5,-36(s0)
  102142:	43dc                	lw	a5,4(a5)
  102144:	fef42223          	sw	a5,-28(s0)
  102148:	fe442703          	lw	a4,-28(s0)
  10214c:	77f1                	lui	a5,0xffffc
  10214e:	8ff9                	and	a5,a5,a4
  102150:	fef42223          	sw	a5,-28(s0)
  102154:	fd842783          	lw	a5,-40(s0)
  102158:	0047c783          	lbu	a5,4(a5) # ffffc004 <__stack+0xdfed0004>
  10215c:	0786                	slli	a5,a5,0x1
  10215e:	fe442703          	lw	a4,-28(s0)
  102162:	8fd9                	or	a5,a5,a4
  102164:	fef42223          	sw	a5,-28(s0)
  102168:	fd842783          	lw	a5,-40(s0)
  10216c:	0057c783          	lbu	a5,5(a5)
  102170:	079a                	slli	a5,a5,0x6
  102172:	fe442703          	lw	a4,-28(s0)
  102176:	8fd9                	or	a5,a5,a4
  102178:	fef42223          	sw	a5,-28(s0)
  10217c:	fd842783          	lw	a5,-40(s0)
  102180:	0097c783          	lbu	a5,9(a5)
  102184:	07b2                	slli	a5,a5,0xc
  102186:	fe442703          	lw	a4,-28(s0)
  10218a:	8fd9                	or	a5,a5,a4
  10218c:	fef42223          	sw	a5,-28(s0)
  102190:	fd842783          	lw	a5,-40(s0)
  102194:	00b7c783          	lbu	a5,11(a5)
  102198:	07a2                	slli	a5,a5,0x8
  10219a:	fe442703          	lw	a4,-28(s0)
  10219e:	8fd9                	or	a5,a5,a4
  1021a0:	fef42223          	sw	a5,-28(s0)
  1021a4:	fd842783          	lw	a5,-40(s0)
  1021a8:	00a7c783          	lbu	a5,10(a5)
  1021ac:	07ae                	slli	a5,a5,0xb
  1021ae:	fe442703          	lw	a4,-28(s0)
  1021b2:	8fd9                	or	a5,a5,a4
  1021b4:	fef42223          	sw	a5,-28(s0)
  1021b8:	fd842783          	lw	a5,-40(s0)
  1021bc:	00c7c783          	lbu	a5,12(a5)
  1021c0:	07aa                	slli	a5,a5,0xa
  1021c2:	fe442703          	lw	a4,-28(s0)
  1021c6:	8fd9                	or	a5,a5,a4
  1021c8:	fef42223          	sw	a5,-28(s0)
  1021cc:	fd842783          	lw	a5,-40(s0)
  1021d0:	00d7c783          	lbu	a5,13(a5)
  1021d4:	873e                	mv	a4,a5
  1021d6:	fe442783          	lw	a5,-28(s0)
  1021da:	8fd9                	or	a5,a5,a4
  1021dc:	fef42223          	sw	a5,-28(s0)
  1021e0:	fd842783          	lw	a5,-40(s0)
  1021e4:	0067c783          	lbu	a5,6(a5)
  1021e8:	078e                	slli	a5,a5,0x3
  1021ea:	fe442703          	lw	a4,-28(s0)
  1021ee:	8fd9                	or	a5,a5,a4
  1021f0:	fef42223          	sw	a5,-28(s0)
  1021f4:	fe442703          	lw	a4,-28(s0)
  1021f8:	fdc42783          	lw	a5,-36(s0)
  1021fc:	c3d8                	sw	a4,4(a5)
  1021fe:	fd442703          	lw	a4,-44(s0)
  102202:	47c1                	li	a5,16
  102204:	00f71a63          	bne	a4,a5,102218 <UART_Init+0xf8>
  102208:	04400793          	li	a5,68
  10220c:	fef42623          	sw	a5,-20(s0)
  102210:	4785                	li	a5,1
  102212:	fef42423          	sw	a5,-24(s0)
  102216:	a049                	j	102298 <UART_Init+0x178>
  102218:	fd442703          	lw	a4,-44(s0)
  10221c:	02800793          	li	a5,40
  102220:	00f71963          	bne	a4,a5,102232 <UART_Init+0x112>
  102224:	47f1                	li	a5,28
  102226:	fef42623          	sw	a5,-20(s0)
  10222a:	4799                	li	a5,6
  10222c:	fef42423          	sw	a5,-24(s0)
  102230:	a0a5                	j	102298 <UART_Init+0x178>
  102232:	fd442703          	lw	a4,-44(s0)
  102236:	05000793          	li	a5,80
  10223a:	04f71263          	bne	a4,a5,10227e <UART_Init+0x15e>
  10223e:	fd842783          	lw	a5,-40(s0)
  102242:	4398                	lw	a4,0(a5)
  102244:	67f1                	lui	a5,0x1c
  102246:	20078793          	addi	a5,a5,512 # 1c200 <Reset_Handler-0xe3e00>
  10224a:	00f71a63          	bne	a4,a5,10225e <UART_Init+0x13e>
  10224e:	0ad00793          	li	a5,173
  102252:	fef42623          	sw	a5,-20(s0)
  102256:	4789                	li	a5,2
  102258:	fef42423          	sw	a5,-24(s0)
  10225c:	a835                	j	102298 <UART_Init+0x178>
  10225e:	fd842783          	lw	a5,-40(s0)
  102262:	4398                	lw	a4,0(a5)
  102264:	004c57b7          	lui	a5,0x4c5
  102268:	b4078793          	addi	a5,a5,-1216 # 4c4b40 <__l_s_ram+0x3c0ecc>
  10226c:	02f71663          	bne	a4,a5,102298 <UART_Init+0x178>
  102270:	479d                	li	a5,7
  102272:	fef42623          	sw	a5,-20(s0)
  102276:	4785                	li	a5,1
  102278:	fef42423          	sw	a5,-24(s0)
  10227c:	a831                	j	102298 <UART_Init+0x178>
  10227e:	fd442703          	lw	a4,-44(s0)
  102282:	07800793          	li	a5,120
  102286:	00f71963          	bne	a4,a5,102298 <UART_Init+0x178>
  10228a:	08100793          	li	a5,129
  10228e:	fef42623          	sw	a5,-20(s0)
  102292:	4791                	li	a5,4
  102294:	fef42423          	sw	a5,-24(s0)
  102298:	fdc42783          	lw	a5,-36(s0)
  10229c:	5bdc                	lw	a5,52(a5)
  10229e:	fef42223          	sw	a5,-28(s0)
  1022a2:	fe442783          	lw	a5,-28(s0)
  1022a6:	f007f793          	andi	a5,a5,-256
  1022aa:	fef42223          	sw	a5,-28(s0)
  1022ae:	fe442703          	lw	a4,-28(s0)
  1022b2:	fec42783          	lw	a5,-20(s0)
  1022b6:	8fd9                	or	a5,a5,a4
  1022b8:	fef42223          	sw	a5,-28(s0)
  1022bc:	fe442703          	lw	a4,-28(s0)
  1022c0:	fdc42783          	lw	a5,-36(s0)
  1022c4:	dbd8                	sw	a4,52(a5)
  1022c6:	fdc42783          	lw	a5,-36(s0)
  1022ca:	4f9c                	lw	a5,24(a5)
  1022cc:	fef42223          	sw	a5,-28(s0)
  1022d0:	fe442703          	lw	a4,-28(s0)
  1022d4:	77c1                	lui	a5,0xffff0
  1022d6:	8ff9                	and	a5,a5,a4
  1022d8:	fef42223          	sw	a5,-28(s0)
  1022dc:	fe442703          	lw	a4,-28(s0)
  1022e0:	fe842783          	lw	a5,-24(s0)
  1022e4:	8fd9                	or	a5,a5,a4
  1022e6:	fef42223          	sw	a5,-28(s0)
  1022ea:	fe442703          	lw	a4,-28(s0)
  1022ee:	fdc42783          	lw	a5,-36(s0)
  1022f2:	cf98                	sw	a4,24(a5)
  1022f4:	fdc42783          	lw	a5,-36(s0)
  1022f8:	439c                	lw	a5,0(a5)
  1022fa:	fef42223          	sw	a5,-28(s0)
  1022fe:	fe442783          	lw	a5,-28(s0)
  102302:	eff7f793          	andi	a5,a5,-257
  102306:	fef42223          	sw	a5,-28(s0)
  10230a:	fe442783          	lw	a5,-28(s0)
  10230e:	f7f7f793          	andi	a5,a5,-129
  102312:	fef42223          	sw	a5,-28(s0)
  102316:	fd842783          	lw	a5,-40(s0)
  10231a:	0077c703          	lbu	a4,7(a5) # ffff0007 <__stack+0xdfec4007>
  10231e:	4785                	li	a5,1
  102320:	00f71f63          	bne	a4,a5,10233e <UART_Init+0x21e>
  102324:	fe442783          	lw	a5,-28(s0)
  102328:	0107e793          	ori	a5,a5,16
  10232c:	fef42223          	sw	a5,-28(s0)
  102330:	fe442783          	lw	a5,-28(s0)
  102334:	fdf7f793          	andi	a5,a5,-33
  102338:	fef42223          	sw	a5,-28(s0)
  10233c:	a039                	j	10234a <UART_Init+0x22a>
  10233e:	fe442783          	lw	a5,-28(s0)
  102342:	0207e793          	ori	a5,a5,32
  102346:	fef42223          	sw	a5,-28(s0)
  10234a:	fd842783          	lw	a5,-40(s0)
  10234e:	0087c703          	lbu	a4,8(a5)
  102352:	4785                	li	a5,1
  102354:	00f71e63          	bne	a4,a5,102370 <UART_Init+0x250>
  102358:	fe442783          	lw	a5,-28(s0)
  10235c:	0047e793          	ori	a5,a5,4
  102360:	fef42223          	sw	a5,-28(s0)
  102364:	fe442783          	lw	a5,-28(s0)
  102368:	9bdd                	andi	a5,a5,-9
  10236a:	fef42223          	sw	a5,-28(s0)
  10236e:	a039                	j	10237c <UART_Init+0x25c>
  102370:	fe442783          	lw	a5,-28(s0)
  102374:	0087e793          	ori	a5,a5,8
  102378:	fef42223          	sw	a5,-28(s0)
  10237c:	fe442783          	lw	a5,-28(s0)
  102380:	0027e793          	ori	a5,a5,2
  102384:	fef42223          	sw	a5,-28(s0)
  102388:	fe442783          	lw	a5,-28(s0)
  10238c:	0017e793          	ori	a5,a5,1
  102390:	fef42223          	sw	a5,-28(s0)
  102394:	fe442703          	lw	a4,-28(s0)
  102398:	fdc42783          	lw	a5,-36(s0)
  10239c:	c398                	sw	a4,0(a5)
  10239e:	0001                	nop
  1023a0:	5432                	lw	s0,44(sp)
  1023a2:	6145                	addi	sp,sp,48
  1023a4:	8082                	ret
  1023a6:	00000013          	nop
  1023aa:	00000013          	nop
  1023ae:	0001                	nop

001023b0 <UART_ConfigBaud>:
UART_ConfigBaud():
  1023b0:	7179                	addi	sp,sp,-48
  1023b2:	d622                	sw	s0,44(sp)
  1023b4:	1800                	addi	s0,sp,48
  1023b6:	fca42e23          	sw	a0,-36(s0)
  1023ba:	87ae                	mv	a5,a1
  1023bc:	8732                	mv	a4,a2
  1023be:	fcf40da3          	sb	a5,-37(s0)
  1023c2:	87ba                	mv	a5,a4
  1023c4:	fcf40d23          	sb	a5,-38(s0)
  1023c8:	fe042623          	sw	zero,-20(s0)
  1023cc:	fdc42783          	lw	a5,-36(s0)
  1023d0:	5bdc                	lw	a5,52(a5)
  1023d2:	fef42623          	sw	a5,-20(s0)
  1023d6:	fec42783          	lw	a5,-20(s0)
  1023da:	f007f793          	andi	a5,a5,-256
  1023de:	fef42623          	sw	a5,-20(s0)
  1023e2:	fdb44783          	lbu	a5,-37(s0)
  1023e6:	fec42703          	lw	a4,-20(s0)
  1023ea:	8fd9                	or	a5,a5,a4
  1023ec:	fef42623          	sw	a5,-20(s0)
  1023f0:	fdc42783          	lw	a5,-36(s0)
  1023f4:	fec42703          	lw	a4,-20(s0)
  1023f8:	dbd8                	sw	a4,52(a5)
  1023fa:	fdc42783          	lw	a5,-36(s0)
  1023fe:	4f9c                	lw	a5,24(a5)
  102400:	fef42623          	sw	a5,-20(s0)
  102404:	fec42703          	lw	a4,-20(s0)
  102408:	77c1                	lui	a5,0xffff0
  10240a:	8ff9                	and	a5,a5,a4
  10240c:	fef42623          	sw	a5,-20(s0)
  102410:	fda44783          	lbu	a5,-38(s0)
  102414:	fec42703          	lw	a4,-20(s0)
  102418:	8fd9                	or	a5,a5,a4
  10241a:	fef42623          	sw	a5,-20(s0)
  10241e:	fdc42783          	lw	a5,-36(s0)
  102422:	fec42703          	lw	a4,-20(s0)
  102426:	cf98                	sw	a4,24(a5)
  102428:	0001                	nop
  10242a:	5432                	lw	s0,44(sp)
  10242c:	6145                	addi	sp,sp,48
  10242e:	8082                	ret

00102430 <UART_PollPutChar>:
UART_PollPutChar():
  102430:	1101                	addi	sp,sp,-32
  102432:	ce22                	sw	s0,28(sp)
  102434:	1000                	addi	s0,sp,32
  102436:	fea42623          	sw	a0,-20(s0)
  10243a:	feb42423          	sw	a1,-24(s0)
  10243e:	fe842703          	lw	a4,-24(s0)
  102442:	fec42783          	lw	a5,-20(s0)
  102446:	db98                	sw	a4,48(a5)
  102448:	0001                	nop
  10244a:	4472                	lw	s0,28(sp)
  10244c:	6105                	addi	sp,sp,32
  10244e:	8082                	ret

00102450 <UART_BlockPutChar>:
UART_BlockPutChar():
  102450:	1101                	addi	sp,sp,-32
  102452:	ce22                	sw	s0,28(sp)
  102454:	1000                	addi	s0,sp,32
  102456:	fea42623          	sw	a0,-20(s0)
  10245a:	feb42423          	sw	a1,-24(s0)
  10245e:	0001                	nop
  102460:	fec42783          	lw	a5,-20(s0)
  102464:	57dc                	lw	a5,44(a5)
  102466:	8ba1                	andi	a5,a5,8
  102468:	dfe5                	beqz	a5,102460 <UART_BlockPutChar+0x10>
  10246a:	fe842703          	lw	a4,-24(s0)
  10246e:	fec42783          	lw	a5,-20(s0)
  102472:	db98                	sw	a4,48(a5)
  102474:	0001                	nop
  102476:	4472                	lw	s0,28(sp)
  102478:	6105                	addi	sp,sp,32
  10247a:	8082                	ret
  10247c:	00000013          	nop

00102480 <UART_BlockPutChars>:
UART_BlockPutChars():
  102480:	7179                	addi	sp,sp,-48
  102482:	d606                	sw	ra,44(sp)
  102484:	d422                	sw	s0,40(sp)
  102486:	1800                	addi	s0,sp,48
  102488:	fca42e23          	sw	a0,-36(s0)
  10248c:	fcb42c23          	sw	a1,-40(s0)
  102490:	fcc42a23          	sw	a2,-44(s0)
  102494:	fe042623          	sw	zero,-20(s0)
  102498:	fe042623          	sw	zero,-20(s0)
  10249c:	a00d                	j	1024be <UART_BlockPutChars+0x3e>
  10249e:	fd842703          	lw	a4,-40(s0)
  1024a2:	fec42783          	lw	a5,-20(s0)
  1024a6:	97ba                	add	a5,a5,a4
  1024a8:	0007c783          	lbu	a5,0(a5) # ffff0000 <__stack+0xdfec4000>
  1024ac:	85be                	mv	a1,a5
  1024ae:	fdc42503          	lw	a0,-36(s0)
  1024b2:	3f79                	jal	102450 <UART_BlockPutChar>
  1024b4:	fec42783          	lw	a5,-20(s0)
  1024b8:	0785                	addi	a5,a5,1
  1024ba:	fef42623          	sw	a5,-20(s0)
  1024be:	fec42703          	lw	a4,-20(s0)
  1024c2:	fd442783          	lw	a5,-44(s0)
  1024c6:	fcf76ce3          	bltu	a4,a5,10249e <UART_BlockPutChars+0x1e>
  1024ca:	0001                	nop
  1024cc:	50b2                	lw	ra,44(sp)
  1024ce:	5422                	lw	s0,40(sp)
  1024d0:	6145                	addi	sp,sp,48
  1024d2:	8082                	ret
  1024d4:	00000013          	nop
  1024d8:	00000013          	nop
  1024dc:	00000013          	nop

001024e0 <UART_PollFifoPutChar>:
UART_PollFifoPutChar():
  1024e0:	1101                	addi	sp,sp,-32
  1024e2:	ce22                	sw	s0,28(sp)
  1024e4:	1000                	addi	s0,sp,32
  1024e6:	fea42623          	sw	a0,-20(s0)
  1024ea:	feb42423          	sw	a1,-24(s0)
  1024ee:	fe842703          	lw	a4,-24(s0)
  1024f2:	fec42783          	lw	a5,-20(s0)
  1024f6:	db98                	sw	a4,48(a5)
  1024f8:	0001                	nop
  1024fa:	4472                	lw	s0,28(sp)
  1024fc:	6105                	addi	sp,sp,32
  1024fe:	8082                	ret

00102500 <UART_PollGetChar>:
UART_PollGetChar():
  102500:	7179                	addi	sp,sp,-48
  102502:	d622                	sw	s0,44(sp)
  102504:	1800                	addi	s0,sp,48
  102506:	fca42e23          	sw	a0,-36(s0)
  10250a:	57fd                	li	a5,-1
  10250c:	fef42623          	sw	a5,-20(s0)
  102510:	fdc42783          	lw	a5,-36(s0)
  102514:	57dc                	lw	a5,44(a5)
  102516:	8b89                	andi	a5,a5,2
  102518:	e791                	bnez	a5,102524 <UART_PollGetChar+0x24>
  10251a:	fdc42783          	lw	a5,-36(s0)
  10251e:	5b9c                	lw	a5,48(a5)
  102520:	fef42623          	sw	a5,-20(s0)
  102524:	fec42783          	lw	a5,-20(s0)
  102528:	853e                	mv	a0,a5
  10252a:	5432                	lw	s0,44(sp)
  10252c:	6145                	addi	sp,sp,48
  10252e:	8082                	ret

00102530 <UART_BlockGetChar>:
UART_BlockGetChar():
  102530:	7179                	addi	sp,sp,-48
  102532:	d622                	sw	s0,44(sp)
  102534:	1800                	addi	s0,sp,48
  102536:	fca42e23          	sw	a0,-36(s0)
  10253a:	57fd                	li	a5,-1
  10253c:	fef42623          	sw	a5,-20(s0)
  102540:	6795                	lui	a5,0x5
  102542:	e2078793          	addi	a5,a5,-480 # 4e20 <Reset_Handler-0xfb1e0>
  102546:	fef42423          	sw	a5,-24(s0)
  10254a:	0001                	nop
  10254c:	fdc42783          	lw	a5,-36(s0)
  102550:	57dc                	lw	a5,44(a5)
  102552:	8b89                	andi	a5,a5,2
  102554:	ffe5                	bnez	a5,10254c <UART_BlockGetChar+0x1c>
  102556:	fe842783          	lw	a5,-24(s0)
  10255a:	0007c763          	bltz	a5,102568 <UART_BlockGetChar+0x38>
  10255e:	fdc42783          	lw	a5,-36(s0)
  102562:	5b9c                	lw	a5,48(a5)
  102564:	fef42623          	sw	a5,-20(s0)
  102568:	fec42783          	lw	a5,-20(s0)
  10256c:	853e                	mv	a0,a5
  10256e:	5432                	lw	s0,44(sp)
  102570:	6145                	addi	sp,sp,48
  102572:	8082                	ret
  102574:	00000013          	nop
  102578:	00000013          	nop
  10257c:	00000013          	nop

00102580 <UART_WriteByte>:
UART_WriteByte():
  102580:	1101                	addi	sp,sp,-32
  102582:	ce22                	sw	s0,28(sp)
  102584:	1000                	addi	s0,sp,32
  102586:	fea42623          	sw	a0,-20(s0)
  10258a:	87ae                	mv	a5,a1
  10258c:	fef405a3          	sb	a5,-21(s0)
  102590:	0001                	nop
  102592:	fec42783          	lw	a5,-20(s0)
  102596:	57dc                	lw	a5,44(a5)
  102598:	8bc1                	andi	a5,a5,16
  10259a:	ffe5                	bnez	a5,102592 <UART_WriteByte+0x12>
  10259c:	feb44703          	lbu	a4,-21(s0)
  1025a0:	fec42783          	lw	a5,-20(s0)
  1025a4:	db98                	sw	a4,48(a5)
  1025a6:	0001                	nop
  1025a8:	4472                	lw	s0,28(sp)
  1025aa:	6105                	addi	sp,sp,32
  1025ac:	8082                	ret
  1025ae:	0001                	nop

001025b0 <UART_WriteBytes>:
UART_WriteBytes():
  1025b0:	7179                	addi	sp,sp,-48
  1025b2:	d606                	sw	ra,44(sp)
  1025b4:	d422                	sw	s0,40(sp)
  1025b6:	1800                	addi	s0,sp,48
  1025b8:	fca42e23          	sw	a0,-36(s0)
  1025bc:	fcb42c23          	sw	a1,-40(s0)
  1025c0:	fcc42a23          	sw	a2,-44(s0)
  1025c4:	fe042623          	sw	zero,-20(s0)
  1025c8:	fe042623          	sw	zero,-20(s0)
  1025cc:	a00d                	j	1025ee <UART_WriteBytes+0x3e>
  1025ce:	fd842703          	lw	a4,-40(s0)
  1025d2:	fec42783          	lw	a5,-20(s0)
  1025d6:	97ba                	add	a5,a5,a4
  1025d8:	0007c783          	lbu	a5,0(a5)
  1025dc:	85be                	mv	a1,a5
  1025de:	fdc42503          	lw	a0,-36(s0)
  1025e2:	3f79                	jal	102580 <UART_WriteByte>
  1025e4:	fec42783          	lw	a5,-20(s0)
  1025e8:	0785                	addi	a5,a5,1
  1025ea:	fef42623          	sw	a5,-20(s0)
  1025ee:	fec42703          	lw	a4,-20(s0)
  1025f2:	fd442783          	lw	a5,-44(s0)
  1025f6:	fcf76ce3          	bltu	a4,a5,1025ce <UART_WriteBytes+0x1e>
  1025fa:	0001                	nop
  1025fc:	50b2                	lw	ra,44(sp)
  1025fe:	5422                	lw	s0,40(sp)
  102600:	6145                	addi	sp,sp,48
  102602:	8082                	ret
  102604:	00000013          	nop
  102608:	00000013          	nop
  10260c:	00000013          	nop

00102610 <UART_EnableInt>:
UART_EnableInt():
  102610:	1101                	addi	sp,sp,-32
  102612:	ce22                	sw	s0,28(sp)
  102614:	1000                	addi	s0,sp,32
  102616:	fea42623          	sw	a0,-20(s0)
  10261a:	feb42423          	sw	a1,-24(s0)
  10261e:	fec42783          	lw	a5,-20(s0)
  102622:	fe842703          	lw	a4,-24(s0)
  102626:	c798                	sw	a4,8(a5)
  102628:	0001                	nop
  10262a:	4472                	lw	s0,28(sp)
  10262c:	6105                	addi	sp,sp,32
  10262e:	8082                	ret

00102630 <UART_DisableInt>:
UART_DisableInt():
  102630:	1101                	addi	sp,sp,-32
  102632:	ce22                	sw	s0,28(sp)
  102634:	1000                	addi	s0,sp,32
  102636:	fea42623          	sw	a0,-20(s0)
  10263a:	feb42423          	sw	a1,-24(s0)
  10263e:	fec42783          	lw	a5,-20(s0)
  102642:	fe842703          	lw	a4,-24(s0)
  102646:	c7d8                	sw	a4,12(a5)
  102648:	0001                	nop
  10264a:	4472                	lw	s0,28(sp)
  10264c:	6105                	addi	sp,sp,32
  10264e:	8082                	ret

00102650 <UART_GetIntState>:
UART_GetIntState():
  102650:	1101                	addi	sp,sp,-32
  102652:	ce22                	sw	s0,28(sp)
  102654:	1000                	addi	s0,sp,32
  102656:	fea42623          	sw	a0,-20(s0)
  10265a:	feb42423          	sw	a1,-24(s0)
  10265e:	fec42783          	lw	a5,-20(s0)
  102662:	4bd8                	lw	a4,20(a5)
  102664:	fe842783          	lw	a5,-24(s0)
  102668:	8ff9                	and	a5,a5,a4
  10266a:	c399                	beqz	a5,102670 <UART_GetIntState+0x20>
  10266c:	4785                	li	a5,1
  10266e:	a011                	j	102672 <UART_GetIntState+0x22>
  102670:	4781                	li	a5,0
  102672:	853e                	mv	a0,a5
  102674:	4472                	lw	s0,28(sp)
  102676:	6105                	addi	sp,sp,32
  102678:	8082                	ret
  10267a:	00000013          	nop
  10267e:	0001                	nop

00102680 <UART_GetIntMask>:
UART_GetIntMask():
  102680:	1101                	addi	sp,sp,-32
  102682:	ce22                	sw	s0,28(sp)
  102684:	1000                	addi	s0,sp,32
  102686:	fea42623          	sw	a0,-20(s0)
  10268a:	feb42423          	sw	a1,-24(s0)
  10268e:	fec42783          	lw	a5,-20(s0)
  102692:	4b98                	lw	a4,16(a5)
  102694:	fe842783          	lw	a5,-24(s0)
  102698:	8ff9                	and	a5,a5,a4
  10269a:	c399                	beqz	a5,1026a0 <UART_GetIntMask+0x20>
  10269c:	4785                	li	a5,1
  10269e:	a011                	j	1026a2 <UART_GetIntMask+0x22>
  1026a0:	4781                	li	a5,0
  1026a2:	853e                	mv	a0,a5
  1026a4:	4472                	lw	s0,28(sp)
  1026a6:	6105                	addi	sp,sp,32
  1026a8:	8082                	ret
  1026aa:	00000013          	nop
  1026ae:	0001                	nop

001026b0 <UART_RfifoTrigger>:
UART_RfifoTrigger():
  1026b0:	1101                	addi	sp,sp,-32
  1026b2:	ce22                	sw	s0,28(sp)
  1026b4:	1000                	addi	s0,sp,32
  1026b6:	fea42623          	sw	a0,-20(s0)
  1026ba:	feb42423          	sw	a1,-24(s0)
  1026be:	fe842703          	lw	a4,-24(s0)
  1026c2:	fec42783          	lw	a5,-20(s0)
  1026c6:	d398                	sw	a4,32(a5)
  1026c8:	0001                	nop
  1026ca:	4472                	lw	s0,28(sp)
  1026cc:	6105                	addi	sp,sp,32
  1026ce:	8082                	ret

001026d0 <UART_TfifoTrigger>:
UART_TfifoTrigger():
  1026d0:	1101                	addi	sp,sp,-32
  1026d2:	ce22                	sw	s0,28(sp)
  1026d4:	1000                	addi	s0,sp,32
  1026d6:	fea42623          	sw	a0,-20(s0)
  1026da:	feb42423          	sw	a1,-24(s0)
  1026de:	fe842703          	lw	a4,-24(s0)
  1026e2:	fec42783          	lw	a5,-20(s0)
  1026e6:	c3f8                	sw	a4,68(a5)
  1026e8:	0001                	nop
  1026ea:	4472                	lw	s0,28(sp)
  1026ec:	6105                	addi	sp,sp,32
  1026ee:	8082                	ret

001026f0 <UART_SetDmaMode>:
UART_SetDmaMode():
  1026f0:	1101                	addi	sp,sp,-32
  1026f2:	ce22                	sw	s0,28(sp)
  1026f4:	1000                	addi	s0,sp,32
  1026f6:	fea42623          	sw	a0,-20(s0)
  1026fa:	feb42423          	sw	a1,-24(s0)
  1026fe:	fe842703          	lw	a4,-24(s0)
  102702:	4785                	li	a5,1
  102704:	00f71863          	bne	a4,a5,102714 <UART_SetDmaMode+0x24>
  102708:	fec42783          	lw	a5,-20(s0)
  10270c:	4705                	li	a4,1
  10270e:	0ae7a023          	sw	a4,160(a5)
  102712:	a029                	j	10271c <UART_SetDmaMode+0x2c>
  102714:	fec42783          	lw	a5,-20(s0)
  102718:	0a07a023          	sw	zero,160(a5)
  10271c:	0001                	nop
  10271e:	4472                	lw	s0,28(sp)
  102720:	6105                	addi	sp,sp,32
  102722:	8082                	ret
  102724:	00000013          	nop
  102728:	00000013          	nop
  10272c:	00000013          	nop

00102730 <UART_RS485Config>:
UART_RS485Config():
  102730:	7179                	addi	sp,sp,-48
  102732:	d622                	sw	s0,44(sp)
  102734:	1800                	addi	s0,sp,48
  102736:	fca42e23          	sw	a0,-36(s0)
  10273a:	fcb42c23          	sw	a1,-40(s0)
  10273e:	fe042623          	sw	zero,-20(s0)
  102742:	fdc42783          	lw	a5,-36(s0)
  102746:	08878793          	addi	a5,a5,136
  10274a:	fef42423          	sw	a5,-24(s0)
  10274e:	fdc42783          	lw	a5,-36(s0)
  102752:	08478793          	addi	a5,a5,132
  102756:	fef42223          	sw	a5,-28(s0)
  10275a:	fdc42783          	lw	a5,-36(s0)
  10275e:	08078793          	addi	a5,a5,128
  102762:	fef42023          	sw	a5,-32(s0)
  102766:	fd842783          	lw	a5,-40(s0)
  10276a:	47d8                	lw	a4,12(a5)
  10276c:	4785                	li	a5,1
  10276e:	04f71e63          	bne	a4,a5,1027ca <UART_RS485Config+0x9a>
  102772:	fec42783          	lw	a5,-20(s0)
  102776:	0107e793          	ori	a5,a5,16
  10277a:	fef42623          	sw	a5,-20(s0)
  10277e:	fd842783          	lw	a5,-40(s0)
  102782:	4bd8                	lw	a4,20(a5)
  102784:	4785                	li	a5,1
  102786:	00f71863          	bne	a4,a5,102796 <UART_RS485Config+0x66>
  10278a:	fec42783          	lw	a5,-20(s0)
  10278e:	0207e793          	ori	a5,a5,32
  102792:	fef42623          	sw	a5,-20(s0)
  102796:	fd842783          	lw	a5,-40(s0)
  10279a:	4b98                	lw	a4,16(a5)
  10279c:	4785                	li	a5,1
  10279e:	00f71e63          	bne	a4,a5,1027ba <UART_RS485Config+0x8a>
  1027a2:	fdc42703          	lw	a4,-36(s0)
  1027a6:	4000d7b7          	lui	a5,0x4000d
  1027aa:	00f71863          	bne	a4,a5,1027ba <UART_RS485Config+0x8a>
  1027ae:	fec42783          	lw	a5,-20(s0)
  1027b2:	0087e793          	ori	a5,a5,8
  1027b6:	fef42623          	sw	a5,-20(s0)
  1027ba:	fd842783          	lw	a5,-40(s0)
  1027be:	0197c783          	lbu	a5,25(a5) # 4000d019 <__stack+0x1fee1019>
  1027c2:	873e                	mv	a4,a5
  1027c4:	fe842783          	lw	a5,-24(s0)
  1027c8:	c398                	sw	a4,0(a5)
  1027ca:	fd842783          	lw	a5,-40(s0)
  1027ce:	4398                	lw	a4,0(a5)
  1027d0:	4785                	li	a5,1
  1027d2:	00f71863          	bne	a4,a5,1027e2 <UART_RS485Config+0xb2>
  1027d6:	fec42783          	lw	a5,-20(s0)
  1027da:	0017e793          	ori	a5,a5,1
  1027de:	fef42623          	sw	a5,-20(s0)
  1027e2:	fd842783          	lw	a5,-40(s0)
  1027e6:	4798                	lw	a4,8(a5)
  1027e8:	4785                	li	a5,1
  1027ea:	02f71063          	bne	a4,a5,10280a <UART_RS485Config+0xda>
  1027ee:	fec42783          	lw	a5,-20(s0)
  1027f2:	0047e793          	ori	a5,a5,4
  1027f6:	fef42623          	sw	a5,-20(s0)
  1027fa:	fd842783          	lw	a5,-40(s0)
  1027fe:	0187c783          	lbu	a5,24(a5)
  102802:	873e                	mv	a4,a5
  102804:	fe442783          	lw	a5,-28(s0)
  102808:	c398                	sw	a4,0(a5)
  10280a:	fd842783          	lw	a5,-40(s0)
  10280e:	43dc                	lw	a5,4(a5)
  102810:	e799                	bnez	a5,10281e <UART_RS485Config+0xee>
  102812:	fec42783          	lw	a5,-20(s0)
  102816:	0027e793          	ori	a5,a5,2
  10281a:	fef42623          	sw	a5,-20(s0)
  10281e:	fec42783          	lw	a5,-20(s0)
  102822:	03f7f713          	andi	a4,a5,63
  102826:	fe042783          	lw	a5,-32(s0)
  10282a:	c398                	sw	a4,0(a5)
  10282c:	0001                	nop
  10282e:	5432                	lw	s0,44(sp)
  102830:	6145                	addi	sp,sp,48
  102832:	8082                	ret
  102834:	00000013          	nop
  102838:	00000013          	nop
  10283c:	00000013          	nop

00102840 <UART_RS485ReceiverCmd>:
UART_RS485ReceiverCmd():
  102840:	1101                	addi	sp,sp,-32
  102842:	ce22                	sw	s0,28(sp)
  102844:	1000                	addi	s0,sp,32
  102846:	fea42623          	sw	a0,-20(s0)
  10284a:	feb42423          	sw	a1,-24(s0)
  10284e:	fe842703          	lw	a4,-24(s0)
  102852:	4785                	li	a5,1
  102854:	00f71d63          	bne	a4,a5,10286e <UART_RS485ReceiverCmd+0x2e>
  102858:	fec42783          	lw	a5,-20(s0)
  10285c:	0807a783          	lw	a5,128(a5)
  102860:	ffd7f713          	andi	a4,a5,-3
  102864:	fec42783          	lw	a5,-20(s0)
  102868:	08e7a023          	sw	a4,128(a5)
  10286c:	a819                	j	102882 <UART_RS485ReceiverCmd+0x42>
  10286e:	fec42783          	lw	a5,-20(s0)
  102872:	0807a783          	lw	a5,128(a5)
  102876:	0027e713          	ori	a4,a5,2
  10287a:	fec42783          	lw	a5,-20(s0)
  10287e:	08e7a023          	sw	a4,128(a5)
  102882:	0001                	nop
  102884:	4472                	lw	s0,28(sp)
  102886:	6105                	addi	sp,sp,32
  102888:	8082                	ret
  10288a:	00000013          	nop
  10288e:	0001                	nop

00102890 <UART_RS485Send>:
UART_RS485Send():
  102890:	7179                	addi	sp,sp,-48
  102892:	d606                	sw	ra,44(sp)
  102894:	d422                	sw	s0,40(sp)
  102896:	1800                	addi	s0,sp,48
  102898:	fca42e23          	sw	a0,-36(s0)
  10289c:	fcb42c23          	sw	a1,-40(s0)
  1028a0:	fcc42a23          	sw	a2,-44(s0)
  1028a4:	87b6                	mv	a5,a3
  1028a6:	fcf409a3          	sb	a5,-45(s0)
  1028aa:	fd344783          	lbu	a5,-45(s0)
  1028ae:	c3ad                	beqz	a5,102910 <UART_RS485Send+0x80>
  1028b0:	fdc42783          	lw	a5,-36(s0)
  1028b4:	43dc                	lw	a5,4(a5)
  1028b6:	fef407a3          	sb	a5,-17(s0)
  1028ba:	fef44783          	lbu	a5,-17(s0)
  1028be:	fc77f793          	andi	a5,a5,-57
  1028c2:	fef407a3          	sb	a5,-17(s0)
  1028c6:	fef44783          	lbu	a5,-17(s0)
  1028ca:	0187e793          	ori	a5,a5,24
  1028ce:	fef407a3          	sb	a5,-17(s0)
  1028d2:	fef44703          	lbu	a4,-17(s0)
  1028d6:	fdc42783          	lw	a5,-36(s0)
  1028da:	c3d8                	sw	a4,4(a5)
  1028dc:	fd442603          	lw	a2,-44(s0)
  1028e0:	fd842583          	lw	a1,-40(s0)
  1028e4:	fdc42503          	lw	a0,-36(s0)
  1028e8:	3e61                	jal	102480 <UART_BlockPutChars>
  1028ea:	0001                	nop
  1028ec:	fdc42783          	lw	a5,-36(s0)
  1028f0:	57dc                	lw	a5,44(a5)
  1028f2:	8ba1                	andi	a5,a5,8
  1028f4:	dfe5                	beqz	a5,1028ec <UART_RS485Send+0x5c>
  1028f6:	fef44783          	lbu	a5,-17(s0)
  1028fa:	fc77f793          	andi	a5,a5,-57
  1028fe:	fef407a3          	sb	a5,-17(s0)
  102902:	fef44783          	lbu	a5,-17(s0)
  102906:	0107e793          	ori	a5,a5,16
  10290a:	fef407a3          	sb	a5,-17(s0)
  10290e:	a0a1                	j	102956 <UART_RS485Send+0xc6>
  102910:	fdc42783          	lw	a5,-36(s0)
  102914:	43dc                	lw	a5,4(a5)
  102916:	fef407a3          	sb	a5,-17(s0)
  10291a:	fef44783          	lbu	a5,-17(s0)
  10291e:	fc77f793          	andi	a5,a5,-57
  102922:	fef407a3          	sb	a5,-17(s0)
  102926:	fef44783          	lbu	a5,-17(s0)
  10292a:	0107e793          	ori	a5,a5,16
  10292e:	fef407a3          	sb	a5,-17(s0)
  102932:	fef44703          	lbu	a4,-17(s0)
  102936:	fdc42783          	lw	a5,-36(s0)
  10293a:	c3d8                	sw	a4,4(a5)
  10293c:	fd442603          	lw	a2,-44(s0)
  102940:	fd842583          	lw	a1,-40(s0)
  102944:	fdc42503          	lw	a0,-36(s0)
  102948:	3e25                	jal	102480 <UART_BlockPutChars>
  10294a:	0001                	nop
  10294c:	fdc42783          	lw	a5,-36(s0)
  102950:	57dc                	lw	a5,44(a5)
  102952:	8ba1                	andi	a5,a5,8
  102954:	dfe5                	beqz	a5,10294c <UART_RS485Send+0xbc>
  102956:	0001                	nop
  102958:	50b2                	lw	ra,44(sp)
  10295a:	5422                	lw	s0,40(sp)
  10295c:	6145                	addi	sp,sp,48
  10295e:	8082                	ret

00102960 <UART_RS485SendSlvAddr>:
UART_RS485SendSlvAddr():
  102960:	1101                	addi	sp,sp,-32
  102962:	ce06                	sw	ra,28(sp)
  102964:	cc22                	sw	s0,24(sp)
  102966:	1000                	addi	s0,sp,32
  102968:	fea42623          	sw	a0,-20(s0)
  10296c:	87ae                	mv	a5,a1
  10296e:	fef405a3          	sb	a5,-21(s0)
  102972:	feb40793          	addi	a5,s0,-21
  102976:	4685                	li	a3,1
  102978:	4605                	li	a2,1
  10297a:	85be                	mv	a1,a5
  10297c:	fec42503          	lw	a0,-20(s0)
  102980:	3f01                	jal	102890 <UART_RS485Send>
  102982:	0001                	nop
  102984:	40f2                	lw	ra,28(sp)
  102986:	4462                	lw	s0,24(sp)
  102988:	6105                	addi	sp,sp,32
  10298a:	8082                	ret
  10298c:	00000013          	nop

00102990 <UART_RS485SendData>:
UART_RS485SendData():
  102990:	1101                	addi	sp,sp,-32
  102992:	ce06                	sw	ra,28(sp)
  102994:	cc22                	sw	s0,24(sp)
  102996:	1000                	addi	s0,sp,32
  102998:	fea42623          	sw	a0,-20(s0)
  10299c:	feb42423          	sw	a1,-24(s0)
  1029a0:	fec42223          	sw	a2,-28(s0)
  1029a4:	4681                	li	a3,0
  1029a6:	fe442603          	lw	a2,-28(s0)
  1029aa:	fe842583          	lw	a1,-24(s0)
  1029ae:	fec42503          	lw	a0,-20(s0)
  1029b2:	3df9                	jal	102890 <UART_RS485Send>
  1029b4:	0001                	nop
  1029b6:	40f2                	lw	ra,28(sp)
  1029b8:	4462                	lw	s0,24(sp)
  1029ba:	6105                	addi	sp,sp,32
  1029bc:	8082                	ret
	...

001029d0 <GPIO_DirModeSet>:
GPIO_DirModeSet():
  1029d0:	7179                	addi	sp,sp,-48
  1029d2:	d622                	sw	s0,44(sp)
  1029d4:	1800                	addi	s0,sp,48
  1029d6:	fca42e23          	sw	a0,-36(s0)
  1029da:	fcb42c23          	sw	a1,-40(s0)
  1029de:	fcc42a23          	sw	a2,-44(s0)
  1029e2:	201207b7          	lui	a5,0x20120
  1029e6:	fdc42703          	lw	a4,-36(s0)
  1029ea:	070a                	slli	a4,a4,0x2
  1029ec:	18c78793          	addi	a5,a5,396 # 2012018c <g_GpioBaseMap>
  1029f0:	97ba                	add	a5,a5,a4
  1029f2:	439c                	lw	a5,0(a5)
  1029f4:	fef42623          	sw	a5,-20(s0)
  1029f8:	fec42783          	lw	a5,-20(s0)
  1029fc:	4705                	li	a4,1
  1029fe:	52e7a023          	sw	a4,1312(a5)
  102a02:	fec42783          	lw	a5,-20(s0)
  102a06:	4c4f4737          	lui	a4,0x4c4f4
  102a0a:	34b70713          	addi	a4,a4,843 # 4c4f434b <__stack+0x2c3c834b>
  102a0e:	52e7a023          	sw	a4,1312(a5)
  102a12:	fec42783          	lw	a5,-20(s0)
  102a16:	5247a703          	lw	a4,1316(a5)
  102a1a:	fd842783          	lw	a5,-40(s0)
  102a1e:	8f5d                	or	a4,a4,a5
  102a20:	fec42783          	lw	a5,-20(s0)
  102a24:	52e7a223          	sw	a4,1316(a5)
  102a28:	fd442783          	lw	a5,-44(s0)
  102a2c:	8b85                	andi	a5,a5,1
  102a2e:	cb89                	beqz	a5,102a40 <GPIO_DirModeSet+0x70>
  102a30:	fec42783          	lw	a5,-20(s0)
  102a34:	4007a703          	lw	a4,1024(a5)
  102a38:	fd842783          	lw	a5,-40(s0)
  102a3c:	8fd9                	or	a5,a5,a4
  102a3e:	a811                	j	102a52 <GPIO_DirModeSet+0x82>
  102a40:	fec42783          	lw	a5,-20(s0)
  102a44:	4007a703          	lw	a4,1024(a5)
  102a48:	fd842783          	lw	a5,-40(s0)
  102a4c:	fff7c793          	not	a5,a5
  102a50:	8ff9                	and	a5,a5,a4
  102a52:	fec42703          	lw	a4,-20(s0)
  102a56:	40f72023          	sw	a5,1024(a4)
  102a5a:	fd442783          	lw	a5,-44(s0)
  102a5e:	8b89                	andi	a5,a5,2
  102a60:	cb89                	beqz	a5,102a72 <GPIO_DirModeSet+0xa2>
  102a62:	fec42783          	lw	a5,-20(s0)
  102a66:	4207a703          	lw	a4,1056(a5)
  102a6a:	fd842783          	lw	a5,-40(s0)
  102a6e:	8fd9                	or	a5,a5,a4
  102a70:	a811                	j	102a84 <GPIO_DirModeSet+0xb4>
  102a72:	fec42783          	lw	a5,-20(s0)
  102a76:	4207a703          	lw	a4,1056(a5)
  102a7a:	fd842783          	lw	a5,-40(s0)
  102a7e:	fff7c793          	not	a5,a5
  102a82:	8ff9                	and	a5,a5,a4
  102a84:	fec42703          	lw	a4,-20(s0)
  102a88:	42f72023          	sw	a5,1056(a4)
  102a8c:	0001                	nop
  102a8e:	5432                	lw	s0,44(sp)
  102a90:	6145                	addi	sp,sp,48
  102a92:	8082                	ret
  102a94:	00000013          	nop
  102a98:	00000013          	nop
  102a9c:	00000013          	nop

00102aa0 <GPIODirModeGet>:
GPIODirModeGet():
  102aa0:	7179                	addi	sp,sp,-48
  102aa2:	d622                	sw	s0,44(sp)
  102aa4:	1800                	addi	s0,sp,48
  102aa6:	fca42e23          	sw	a0,-36(s0)
  102aaa:	87ae                	mv	a5,a1
  102aac:	fcf40da3          	sb	a5,-37(s0)
  102ab0:	201207b7          	lui	a5,0x20120
  102ab4:	fdc42703          	lw	a4,-36(s0)
  102ab8:	070a                	slli	a4,a4,0x2
  102aba:	18c78793          	addi	a5,a5,396 # 2012018c <g_GpioBaseMap>
  102abe:	97ba                	add	a5,a5,a4
  102ac0:	439c                	lw	a5,0(a5)
  102ac2:	fef42623          	sw	a5,-20(s0)
  102ac6:	fdb44783          	lbu	a5,-37(s0)
  102aca:	4705                	li	a4,1
  102acc:	00f717b3          	sll	a5,a4,a5
  102ad0:	fcf40da3          	sb	a5,-37(s0)
  102ad4:	fec42783          	lw	a5,-20(s0)
  102ad8:	4007a783          	lw	a5,1024(a5)
  102adc:	fef42423          	sw	a5,-24(s0)
  102ae0:	fec42783          	lw	a5,-20(s0)
  102ae4:	4207a783          	lw	a5,1056(a5)
  102ae8:	fef42223          	sw	a5,-28(s0)
  102aec:	fdb44703          	lbu	a4,-37(s0)
  102af0:	fe842783          	lw	a5,-24(s0)
  102af4:	8ff9                	and	a5,a5,a4
  102af6:	00f037b3          	snez	a5,a5
  102afa:	0ff7f793          	andi	a5,a5,255
  102afe:	86be                	mv	a3,a5
  102b00:	fdb44703          	lbu	a4,-37(s0)
  102b04:	fe442783          	lw	a5,-28(s0)
  102b08:	8ff9                	and	a5,a5,a4
  102b0a:	c399                	beqz	a5,102b10 <GPIODirModeGet+0x70>
  102b0c:	4789                	li	a5,2
  102b0e:	a011                	j	102b12 <GPIODirModeGet+0x72>
  102b10:	4781                	li	a5,0
  102b12:	8fd5                	or	a5,a5,a3
  102b14:	853e                	mv	a0,a5
  102b16:	5432                	lw	s0,44(sp)
  102b18:	6145                	addi	sp,sp,48
  102b1a:	8082                	ret
  102b1c:	00000013          	nop

00102b20 <GPIO_IntTypeSet>:
GPIO_IntTypeSet():
  102b20:	7179                	addi	sp,sp,-48
  102b22:	d622                	sw	s0,44(sp)
  102b24:	1800                	addi	s0,sp,48
  102b26:	fca42e23          	sw	a0,-36(s0)
  102b2a:	87ae                	mv	a5,a1
  102b2c:	fcc42a23          	sw	a2,-44(s0)
  102b30:	fcf40da3          	sb	a5,-37(s0)
  102b34:	201207b7          	lui	a5,0x20120
  102b38:	fdc42703          	lw	a4,-36(s0)
  102b3c:	070a                	slli	a4,a4,0x2
  102b3e:	18c78793          	addi	a5,a5,396 # 2012018c <g_GpioBaseMap>
  102b42:	97ba                	add	a5,a5,a4
  102b44:	439c                	lw	a5,0(a5)
  102b46:	fef42623          	sw	a5,-20(s0)
  102b4a:	fd442783          	lw	a5,-44(s0)
  102b4e:	8b85                	andi	a5,a5,1
  102b50:	cb89                	beqz	a5,102b62 <GPIO_IntTypeSet+0x42>
  102b52:	fec42783          	lw	a5,-20(s0)
  102b56:	4087a703          	lw	a4,1032(a5)
  102b5a:	fdb44783          	lbu	a5,-37(s0)
  102b5e:	8fd9                	or	a5,a5,a4
  102b60:	a811                	j	102b74 <GPIO_IntTypeSet+0x54>
  102b62:	fec42783          	lw	a5,-20(s0)
  102b66:	4087a783          	lw	a5,1032(a5)
  102b6a:	fdb44703          	lbu	a4,-37(s0)
  102b6e:	fff74713          	not	a4,a4
  102b72:	8ff9                	and	a5,a5,a4
  102b74:	fec42703          	lw	a4,-20(s0)
  102b78:	40f72423          	sw	a5,1032(a4)
  102b7c:	fd442783          	lw	a5,-44(s0)
  102b80:	8b91                	andi	a5,a5,4
  102b82:	cb89                	beqz	a5,102b94 <GPIO_IntTypeSet+0x74>
  102b84:	fec42783          	lw	a5,-20(s0)
  102b88:	40c7a703          	lw	a4,1036(a5)
  102b8c:	fdb44783          	lbu	a5,-37(s0)
  102b90:	8fd9                	or	a5,a5,a4
  102b92:	a811                	j	102ba6 <GPIO_IntTypeSet+0x86>
  102b94:	fec42783          	lw	a5,-20(s0)
  102b98:	40c7a783          	lw	a5,1036(a5)
  102b9c:	fdb44703          	lbu	a4,-37(s0)
  102ba0:	fff74713          	not	a4,a4
  102ba4:	8ff9                	and	a5,a5,a4
  102ba6:	fec42703          	lw	a4,-20(s0)
  102baa:	40f72623          	sw	a5,1036(a4)
  102bae:	fd442783          	lw	a5,-44(s0)
  102bb2:	8b89                	andi	a5,a5,2
  102bb4:	cb89                	beqz	a5,102bc6 <GPIO_IntTypeSet+0xa6>
  102bb6:	fec42783          	lw	a5,-20(s0)
  102bba:	4047a703          	lw	a4,1028(a5)
  102bbe:	fdb44783          	lbu	a5,-37(s0)
  102bc2:	8fd9                	or	a5,a5,a4
  102bc4:	a811                	j	102bd8 <GPIO_IntTypeSet+0xb8>
  102bc6:	fec42783          	lw	a5,-20(s0)
  102bca:	4047a783          	lw	a5,1028(a5)
  102bce:	fdb44703          	lbu	a4,-37(s0)
  102bd2:	fff74713          	not	a4,a4
  102bd6:	8ff9                	and	a5,a5,a4
  102bd8:	fec42703          	lw	a4,-20(s0)
  102bdc:	40f72223          	sw	a5,1028(a4)
  102be0:	0001                	nop
  102be2:	5432                	lw	s0,44(sp)
  102be4:	6145                	addi	sp,sp,48
  102be6:	8082                	ret
  102be8:	00000013          	nop
  102bec:	00000013          	nop

00102bf0 <GPIO_IntTypeGet>:
GPIO_IntTypeGet():
  102bf0:	7179                	addi	sp,sp,-48
  102bf2:	d622                	sw	s0,44(sp)
  102bf4:	1800                	addi	s0,sp,48
  102bf6:	fca42e23          	sw	a0,-36(s0)
  102bfa:	87ae                	mv	a5,a1
  102bfc:	fcf40da3          	sb	a5,-37(s0)
  102c00:	201207b7          	lui	a5,0x20120
  102c04:	fdc42703          	lw	a4,-36(s0)
  102c08:	070a                	slli	a4,a4,0x2
  102c0a:	18c78793          	addi	a5,a5,396 # 2012018c <g_GpioBaseMap>
  102c0e:	97ba                	add	a5,a5,a4
  102c10:	439c                	lw	a5,0(a5)
  102c12:	fef42623          	sw	a5,-20(s0)
  102c16:	fdb44783          	lbu	a5,-37(s0)
  102c1a:	4705                	li	a4,1
  102c1c:	00f717b3          	sll	a5,a4,a5
  102c20:	fcf40da3          	sb	a5,-37(s0)
  102c24:	fec42783          	lw	a5,-20(s0)
  102c28:	4087a783          	lw	a5,1032(a5)
  102c2c:	fef42423          	sw	a5,-24(s0)
  102c30:	fec42783          	lw	a5,-20(s0)
  102c34:	4047a783          	lw	a5,1028(a5)
  102c38:	fef42223          	sw	a5,-28(s0)
  102c3c:	fec42783          	lw	a5,-20(s0)
  102c40:	40c7a783          	lw	a5,1036(a5)
  102c44:	fef42023          	sw	a5,-32(s0)
  102c48:	fdb44703          	lbu	a4,-37(s0)
  102c4c:	fe842783          	lw	a5,-24(s0)
  102c50:	8ff9                	and	a5,a5,a4
  102c52:	00f037b3          	snez	a5,a5
  102c56:	0ff7f793          	andi	a5,a5,255
  102c5a:	86be                	mv	a3,a5
  102c5c:	fdb44703          	lbu	a4,-37(s0)
  102c60:	fe442783          	lw	a5,-28(s0)
  102c64:	8ff9                	and	a5,a5,a4
  102c66:	c399                	beqz	a5,102c6c <GPIO_IntTypeGet+0x7c>
  102c68:	4789                	li	a5,2
  102c6a:	a011                	j	102c6e <GPIO_IntTypeGet+0x7e>
  102c6c:	4781                	li	a5,0
  102c6e:	00d7e733          	or	a4,a5,a3
  102c72:	fdb44683          	lbu	a3,-37(s0)
  102c76:	fe042783          	lw	a5,-32(s0)
  102c7a:	8ff5                	and	a5,a5,a3
  102c7c:	c399                	beqz	a5,102c82 <GPIO_IntTypeGet+0x92>
  102c7e:	4791                	li	a5,4
  102c80:	a011                	j	102c84 <GPIO_IntTypeGet+0x94>
  102c82:	4781                	li	a5,0
  102c84:	8fd9                	or	a5,a5,a4
  102c86:	853e                	mv	a0,a5
  102c88:	5432                	lw	s0,44(sp)
  102c8a:	6145                	addi	sp,sp,48
  102c8c:	8082                	ret
  102c8e:	0001                	nop

00102c90 <GPIO_PadConfigSet>:
GPIO_PadConfigSet():
  102c90:	7179                	addi	sp,sp,-48
  102c92:	d622                	sw	s0,44(sp)
  102c94:	1800                	addi	s0,sp,48
  102c96:	fca42e23          	sw	a0,-36(s0)
  102c9a:	fcb42c23          	sw	a1,-40(s0)
  102c9e:	fcc42a23          	sw	a2,-44(s0)
  102ca2:	fcd42823          	sw	a3,-48(s0)
  102ca6:	201207b7          	lui	a5,0x20120
  102caa:	fdc42703          	lw	a4,-36(s0)
  102cae:	070a                	slli	a4,a4,0x2
  102cb0:	18c78793          	addi	a5,a5,396 # 2012018c <g_GpioBaseMap>
  102cb4:	97ba                	add	a5,a5,a4
  102cb6:	439c                	lw	a5,0(a5)
  102cb8:	fef42623          	sw	a5,-20(s0)
  102cbc:	fd442783          	lw	a5,-44(s0)
  102cc0:	8b85                	andi	a5,a5,1
  102cc2:	cb89                	beqz	a5,102cd4 <GPIO_PadConfigSet+0x44>
  102cc4:	fec42783          	lw	a5,-20(s0)
  102cc8:	5007a703          	lw	a4,1280(a5)
  102ccc:	fd842783          	lw	a5,-40(s0)
  102cd0:	8fd9                	or	a5,a5,a4
  102cd2:	a811                	j	102ce6 <GPIO_PadConfigSet+0x56>
  102cd4:	fec42783          	lw	a5,-20(s0)
  102cd8:	5007a703          	lw	a4,1280(a5)
  102cdc:	fd842783          	lw	a5,-40(s0)
  102ce0:	fff7c793          	not	a5,a5
  102ce4:	8ff9                	and	a5,a5,a4
  102ce6:	fec42703          	lw	a4,-20(s0)
  102cea:	50f72023          	sw	a5,1280(a4)
  102cee:	fd442783          	lw	a5,-44(s0)
  102cf2:	8b89                	andi	a5,a5,2
  102cf4:	cb89                	beqz	a5,102d06 <GPIO_PadConfigSet+0x76>
  102cf6:	fec42783          	lw	a5,-20(s0)
  102cfa:	5047a703          	lw	a4,1284(a5)
  102cfe:	fd842783          	lw	a5,-40(s0)
  102d02:	8fd9                	or	a5,a5,a4
  102d04:	a811                	j	102d18 <GPIO_PadConfigSet+0x88>
  102d06:	fec42783          	lw	a5,-20(s0)
  102d0a:	5047a703          	lw	a4,1284(a5)
  102d0e:	fd842783          	lw	a5,-40(s0)
  102d12:	fff7c793          	not	a5,a5
  102d16:	8ff9                	and	a5,a5,a4
  102d18:	fec42703          	lw	a4,-20(s0)
  102d1c:	50f72223          	sw	a5,1284(a4)
  102d20:	fd442783          	lw	a5,-44(s0)
  102d24:	8b91                	andi	a5,a5,4
  102d26:	cb89                	beqz	a5,102d38 <GPIO_PadConfigSet+0xa8>
  102d28:	fec42783          	lw	a5,-20(s0)
  102d2c:	5087a703          	lw	a4,1288(a5)
  102d30:	fd842783          	lw	a5,-40(s0)
  102d34:	8fd9                	or	a5,a5,a4
  102d36:	a811                	j	102d4a <GPIO_PadConfigSet+0xba>
  102d38:	fec42783          	lw	a5,-20(s0)
  102d3c:	5087a703          	lw	a4,1288(a5)
  102d40:	fd842783          	lw	a5,-40(s0)
  102d44:	fff7c793          	not	a5,a5
  102d48:	8ff9                	and	a5,a5,a4
  102d4a:	fec42703          	lw	a4,-20(s0)
  102d4e:	50f72423          	sw	a5,1288(a4)
  102d52:	fd042783          	lw	a5,-48(s0)
  102d56:	8b85                	andi	a5,a5,1
  102d58:	cb89                	beqz	a5,102d6a <GPIO_PadConfigSet+0xda>
  102d5a:	fec42783          	lw	a5,-20(s0)
  102d5e:	50c7a703          	lw	a4,1292(a5)
  102d62:	fd842783          	lw	a5,-40(s0)
  102d66:	8fd9                	or	a5,a5,a4
  102d68:	a811                	j	102d7c <GPIO_PadConfigSet+0xec>
  102d6a:	fec42783          	lw	a5,-20(s0)
  102d6e:	50c7a703          	lw	a4,1292(a5)
  102d72:	fd842783          	lw	a5,-40(s0)
  102d76:	fff7c793          	not	a5,a5
  102d7a:	8ff9                	and	a5,a5,a4
  102d7c:	fec42703          	lw	a4,-20(s0)
  102d80:	50f72623          	sw	a5,1292(a4)
  102d84:	fd042783          	lw	a5,-48(s0)
  102d88:	8b89                	andi	a5,a5,2
  102d8a:	cb89                	beqz	a5,102d9c <GPIO_PadConfigSet+0x10c>
  102d8c:	fec42783          	lw	a5,-20(s0)
  102d90:	5107a703          	lw	a4,1296(a5)
  102d94:	fd842783          	lw	a5,-40(s0)
  102d98:	8fd9                	or	a5,a5,a4
  102d9a:	a811                	j	102dae <GPIO_PadConfigSet+0x11e>
  102d9c:	fec42783          	lw	a5,-20(s0)
  102da0:	5107a703          	lw	a4,1296(a5)
  102da4:	fd842783          	lw	a5,-40(s0)
  102da8:	fff7c793          	not	a5,a5
  102dac:	8ff9                	and	a5,a5,a4
  102dae:	fec42703          	lw	a4,-20(s0)
  102db2:	50f72823          	sw	a5,1296(a4)
  102db6:	fd042783          	lw	a5,-48(s0)
  102dba:	8b91                	andi	a5,a5,4
  102dbc:	cb89                	beqz	a5,102dce <GPIO_PadConfigSet+0x13e>
  102dbe:	fec42783          	lw	a5,-20(s0)
  102dc2:	5147a703          	lw	a4,1300(a5)
  102dc6:	fd842783          	lw	a5,-40(s0)
  102dca:	8fd9                	or	a5,a5,a4
  102dcc:	a811                	j	102de0 <GPIO_PadConfigSet+0x150>
  102dce:	fec42783          	lw	a5,-20(s0)
  102dd2:	5147a703          	lw	a4,1300(a5)
  102dd6:	fd842783          	lw	a5,-40(s0)
  102dda:	fff7c793          	not	a5,a5
  102dde:	8ff9                	and	a5,a5,a4
  102de0:	fec42703          	lw	a4,-20(s0)
  102de4:	50f72a23          	sw	a5,1300(a4)
  102de8:	fec42783          	lw	a5,-20(s0)
  102dec:	4c4f4737          	lui	a4,0x4c4f4
  102df0:	34b70713          	addi	a4,a4,843 # 4c4f434b <__stack+0x2c3c834b>
  102df4:	52e7a023          	sw	a4,1312(a5)
  102df8:	fec42783          	lw	a5,-20(s0)
  102dfc:	5247a703          	lw	a4,1316(a5)
  102e00:	fd842783          	lw	a5,-40(s0)
  102e04:	8f5d                	or	a4,a4,a5
  102e06:	fec42783          	lw	a5,-20(s0)
  102e0a:	52e7a223          	sw	a4,1316(a5)
  102e0e:	fd042783          	lw	a5,-48(s0)
  102e12:	8ba1                	andi	a5,a5,8
  102e14:	cb89                	beqz	a5,102e26 <GPIO_PadConfigSet+0x196>
  102e16:	fec42783          	lw	a5,-20(s0)
  102e1a:	51c7a703          	lw	a4,1308(a5)
  102e1e:	fd842783          	lw	a5,-40(s0)
  102e22:	8fd9                	or	a5,a5,a4
  102e24:	a811                	j	102e38 <GPIO_PadConfigSet+0x1a8>
  102e26:	fec42783          	lw	a5,-20(s0)
  102e2a:	51c7a703          	lw	a4,1308(a5)
  102e2e:	fd842783          	lw	a5,-40(s0)
  102e32:	fff7c793          	not	a5,a5
  102e36:	8ff9                	and	a5,a5,a4
  102e38:	fec42703          	lw	a4,-20(s0)
  102e3c:	50f72e23          	sw	a5,1308(a4)
  102e40:	fd042783          	lw	a5,-48(s0)
  102e44:	eb89                	bnez	a5,102e56 <GPIO_PadConfigSet+0x1c6>
  102e46:	fec42783          	lw	a5,-20(s0)
  102e4a:	5287a703          	lw	a4,1320(a5)
  102e4e:	fd842783          	lw	a5,-40(s0)
  102e52:	8fd9                	or	a5,a5,a4
  102e54:	a811                	j	102e68 <GPIO_PadConfigSet+0x1d8>
  102e56:	fec42783          	lw	a5,-20(s0)
  102e5a:	5287a703          	lw	a4,1320(a5)
  102e5e:	fd842783          	lw	a5,-40(s0)
  102e62:	fff7c793          	not	a5,a5
  102e66:	8ff9                	and	a5,a5,a4
  102e68:	fec42703          	lw	a4,-20(s0)
  102e6c:	52f72423          	sw	a5,1320(a4)
  102e70:	0001                	nop
  102e72:	5432                	lw	s0,44(sp)
  102e74:	6145                	addi	sp,sp,48
  102e76:	8082                	ret
  102e78:	00000013          	nop
  102e7c:	00000013          	nop

00102e80 <GPIO_PadConfigGet>:
GPIO_PadConfigGet():
  102e80:	7179                	addi	sp,sp,-48
  102e82:	d622                	sw	s0,44(sp)
  102e84:	1800                	addi	s0,sp,48
  102e86:	fca42e23          	sw	a0,-36(s0)
  102e8a:	87ae                	mv	a5,a1
  102e8c:	fcc42a23          	sw	a2,-44(s0)
  102e90:	fcd42823          	sw	a3,-48(s0)
  102e94:	fcf40da3          	sb	a5,-37(s0)
  102e98:	201207b7          	lui	a5,0x20120
  102e9c:	fdc42703          	lw	a4,-36(s0)
  102ea0:	070a                	slli	a4,a4,0x2
  102ea2:	18c78793          	addi	a5,a5,396 # 2012018c <g_GpioBaseMap>
  102ea6:	97ba                	add	a5,a5,a4
  102ea8:	439c                	lw	a5,0(a5)
  102eaa:	fef42623          	sw	a5,-20(s0)
  102eae:	fdb44783          	lbu	a5,-37(s0)
  102eb2:	4705                	li	a4,1
  102eb4:	00f717b3          	sll	a5,a4,a5
  102eb8:	fcf40da3          	sb	a5,-37(s0)
  102ebc:	fec42783          	lw	a5,-20(s0)
  102ec0:	5007a703          	lw	a4,1280(a5)
  102ec4:	fdb44783          	lbu	a5,-37(s0)
  102ec8:	8ff9                	and	a5,a5,a4
  102eca:	00f037b3          	snez	a5,a5
  102ece:	0ff7f793          	andi	a5,a5,255
  102ed2:	fef42423          	sw	a5,-24(s0)
  102ed6:	fec42783          	lw	a5,-20(s0)
  102eda:	5047a703          	lw	a4,1284(a5)
  102ede:	fdb44783          	lbu	a5,-37(s0)
  102ee2:	8ff9                	and	a5,a5,a4
  102ee4:	c399                	beqz	a5,102eea <GPIO_PadConfigGet+0x6a>
  102ee6:	4789                	li	a5,2
  102ee8:	a011                	j	102eec <GPIO_PadConfigGet+0x6c>
  102eea:	4781                	li	a5,0
  102eec:	873e                	mv	a4,a5
  102eee:	fe842783          	lw	a5,-24(s0)
  102ef2:	8fd9                	or	a5,a5,a4
  102ef4:	fef42423          	sw	a5,-24(s0)
  102ef8:	fec42783          	lw	a5,-20(s0)
  102efc:	5087a703          	lw	a4,1288(a5)
  102f00:	fdb44783          	lbu	a5,-37(s0)
  102f04:	8ff9                	and	a5,a5,a4
  102f06:	c399                	beqz	a5,102f0c <GPIO_PadConfigGet+0x8c>
  102f08:	4791                	li	a5,4
  102f0a:	a011                	j	102f0e <GPIO_PadConfigGet+0x8e>
  102f0c:	4781                	li	a5,0
  102f0e:	873e                	mv	a4,a5
  102f10:	fe842783          	lw	a5,-24(s0)
  102f14:	8fd9                	or	a5,a5,a4
  102f16:	fef42423          	sw	a5,-24(s0)
  102f1a:	fd442783          	lw	a5,-44(s0)
  102f1e:	fe842703          	lw	a4,-24(s0)
  102f22:	c398                	sw	a4,0(a5)
  102f24:	fec42783          	lw	a5,-20(s0)
  102f28:	50c7a703          	lw	a4,1292(a5)
  102f2c:	fdb44783          	lbu	a5,-37(s0)
  102f30:	8ff9                	and	a5,a5,a4
  102f32:	00f037b3          	snez	a5,a5
  102f36:	0ff7f793          	andi	a5,a5,255
  102f3a:	fef42223          	sw	a5,-28(s0)
  102f3e:	fec42783          	lw	a5,-20(s0)
  102f42:	5107a703          	lw	a4,1296(a5)
  102f46:	fdb44783          	lbu	a5,-37(s0)
  102f4a:	8ff9                	and	a5,a5,a4
  102f4c:	c399                	beqz	a5,102f52 <GPIO_PadConfigGet+0xd2>
  102f4e:	4789                	li	a5,2
  102f50:	a011                	j	102f54 <GPIO_PadConfigGet+0xd4>
  102f52:	4781                	li	a5,0
  102f54:	873e                	mv	a4,a5
  102f56:	fe442783          	lw	a5,-28(s0)
  102f5a:	8fd9                	or	a5,a5,a4
  102f5c:	fef42223          	sw	a5,-28(s0)
  102f60:	fec42783          	lw	a5,-20(s0)
  102f64:	5147a703          	lw	a4,1300(a5)
  102f68:	fdb44783          	lbu	a5,-37(s0)
  102f6c:	8ff9                	and	a5,a5,a4
  102f6e:	c399                	beqz	a5,102f74 <GPIO_PadConfigGet+0xf4>
  102f70:	4791                	li	a5,4
  102f72:	a011                	j	102f76 <GPIO_PadConfigGet+0xf6>
  102f74:	4781                	li	a5,0
  102f76:	873e                	mv	a4,a5
  102f78:	fe442783          	lw	a5,-28(s0)
  102f7c:	8fd9                	or	a5,a5,a4
  102f7e:	fef42223          	sw	a5,-28(s0)
  102f82:	fd042783          	lw	a5,-48(s0)
  102f86:	fe442703          	lw	a4,-28(s0)
  102f8a:	c398                	sw	a4,0(a5)
  102f8c:	0001                	nop
  102f8e:	5432                	lw	s0,44(sp)
  102f90:	6145                	addi	sp,sp,48
  102f92:	8082                	ret
  102f94:	00000013          	nop
  102f98:	00000013          	nop
  102f9c:	00000013          	nop

00102fa0 <GPIO_IntEnable>:
GPIO_IntEnable():
  102fa0:	7179                	addi	sp,sp,-48
  102fa2:	d622                	sw	s0,44(sp)
  102fa4:	1800                	addi	s0,sp,48
  102fa6:	fca42e23          	sw	a0,-36(s0)
  102faa:	fcb42c23          	sw	a1,-40(s0)
  102fae:	201207b7          	lui	a5,0x20120
  102fb2:	fdc42703          	lw	a4,-36(s0)
  102fb6:	070a                	slli	a4,a4,0x2
  102fb8:	18c78793          	addi	a5,a5,396 # 2012018c <g_GpioBaseMap>
  102fbc:	97ba                	add	a5,a5,a4
  102fbe:	439c                	lw	a5,0(a5)
  102fc0:	fef42623          	sw	a5,-20(s0)
  102fc4:	fec42783          	lw	a5,-20(s0)
  102fc8:	4107a703          	lw	a4,1040(a5)
  102fcc:	fd842783          	lw	a5,-40(s0)
  102fd0:	8f5d                	or	a4,a4,a5
  102fd2:	fec42783          	lw	a5,-20(s0)
  102fd6:	40e7a823          	sw	a4,1040(a5)
  102fda:	0001                	nop
  102fdc:	5432                	lw	s0,44(sp)
  102fde:	6145                	addi	sp,sp,48
  102fe0:	8082                	ret
  102fe2:	0001                	nop
  102fe4:	00000013          	nop
  102fe8:	00000013          	nop
  102fec:	00000013          	nop

00102ff0 <GPIO_IntDisable>:
GPIO_IntDisable():
  102ff0:	7179                	addi	sp,sp,-48
  102ff2:	d622                	sw	s0,44(sp)
  102ff4:	1800                	addi	s0,sp,48
  102ff6:	fca42e23          	sw	a0,-36(s0)
  102ffa:	fcb42c23          	sw	a1,-40(s0)
  102ffe:	201207b7          	lui	a5,0x20120
  103002:	fdc42703          	lw	a4,-36(s0)
  103006:	070a                	slli	a4,a4,0x2
  103008:	18c78793          	addi	a5,a5,396 # 2012018c <g_GpioBaseMap>
  10300c:	97ba                	add	a5,a5,a4
  10300e:	439c                	lw	a5,0(a5)
  103010:	fef42623          	sw	a5,-20(s0)
  103014:	fec42783          	lw	a5,-20(s0)
  103018:	4107a703          	lw	a4,1040(a5)
  10301c:	fd842783          	lw	a5,-40(s0)
  103020:	fff7c793          	not	a5,a5
  103024:	8f7d                	and	a4,a4,a5
  103026:	fec42783          	lw	a5,-20(s0)
  10302a:	40e7a823          	sw	a4,1040(a5)
  10302e:	0001                	nop
  103030:	5432                	lw	s0,44(sp)
  103032:	6145                	addi	sp,sp,48
  103034:	8082                	ret
  103036:	00000013          	nop
  10303a:	00000013          	nop
  10303e:	0001                	nop

00103040 <GPIO_IntStatus>:
GPIO_IntStatus():
  103040:	7179                	addi	sp,sp,-48
  103042:	d622                	sw	s0,44(sp)
  103044:	1800                	addi	s0,sp,48
  103046:	fca42e23          	sw	a0,-36(s0)
  10304a:	fcb42c23          	sw	a1,-40(s0)
  10304e:	201207b7          	lui	a5,0x20120
  103052:	fdc42703          	lw	a4,-36(s0)
  103056:	070a                	slli	a4,a4,0x2
  103058:	18c78793          	addi	a5,a5,396 # 2012018c <g_GpioBaseMap>
  10305c:	97ba                	add	a5,a5,a4
  10305e:	439c                	lw	a5,0(a5)
  103060:	fef42623          	sw	a5,-20(s0)
  103064:	fd842783          	lw	a5,-40(s0)
  103068:	c791                	beqz	a5,103074 <GPIO_IntStatus+0x34>
  10306a:	fec42783          	lw	a5,-20(s0)
  10306e:	4187a783          	lw	a5,1048(a5)
  103072:	a029                	j	10307c <GPIO_IntStatus+0x3c>
  103074:	fec42783          	lw	a5,-20(s0)
  103078:	4147a783          	lw	a5,1044(a5)
  10307c:	853e                	mv	a0,a5
  10307e:	5432                	lw	s0,44(sp)
  103080:	6145                	addi	sp,sp,48
  103082:	8082                	ret
  103084:	00000013          	nop
  103088:	00000013          	nop
  10308c:	00000013          	nop

00103090 <GPIO_IntClear>:
GPIO_IntClear():
  103090:	7179                	addi	sp,sp,-48
  103092:	d622                	sw	s0,44(sp)
  103094:	1800                	addi	s0,sp,48
  103096:	fca42e23          	sw	a0,-36(s0)
  10309a:	fcb42c23          	sw	a1,-40(s0)
  10309e:	201207b7          	lui	a5,0x20120
  1030a2:	fdc42703          	lw	a4,-36(s0)
  1030a6:	070a                	slli	a4,a4,0x2
  1030a8:	18c78793          	addi	a5,a5,396 # 2012018c <g_GpioBaseMap>
  1030ac:	97ba                	add	a5,a5,a4
  1030ae:	439c                	lw	a5,0(a5)
  1030b0:	fef42623          	sw	a5,-20(s0)
  1030b4:	fec42783          	lw	a5,-20(s0)
  1030b8:	fd842703          	lw	a4,-40(s0)
  1030bc:	40e7ae23          	sw	a4,1052(a5)
  1030c0:	0001                	nop
  1030c2:	5432                	lw	s0,44(sp)
  1030c4:	6145                	addi	sp,sp,48
  1030c6:	8082                	ret
  1030c8:	00000013          	nop
  1030cc:	00000013          	nop

001030d0 <GPIO_PinRead>:
GPIO_PinRead():
  1030d0:	7179                	addi	sp,sp,-48
  1030d2:	d622                	sw	s0,44(sp)
  1030d4:	1800                	addi	s0,sp,48
  1030d6:	fca42e23          	sw	a0,-36(s0)
  1030da:	87ae                	mv	a5,a1
  1030dc:	fcf40da3          	sb	a5,-37(s0)
  1030e0:	201207b7          	lui	a5,0x20120
  1030e4:	fdc42703          	lw	a4,-36(s0)
  1030e8:	070a                	slli	a4,a4,0x2
  1030ea:	18c78793          	addi	a5,a5,396 # 2012018c <g_GpioBaseMap>
  1030ee:	97ba                	add	a5,a5,a4
  1030f0:	439c                	lw	a5,0(a5)
  1030f2:	fef42623          	sw	a5,-20(s0)
  1030f6:	fdb44783          	lbu	a5,-37(s0)
  1030fa:	fec42703          	lw	a4,-20(s0)
  1030fe:	078a                	slli	a5,a5,0x2
  103100:	97ba                	add	a5,a5,a4
  103102:	439c                	lw	a5,0(a5)
  103104:	853e                	mv	a0,a5
  103106:	5432                	lw	s0,44(sp)
  103108:	6145                	addi	sp,sp,48
  10310a:	8082                	ret
  10310c:	00000013          	nop

00103110 <GPIO_PortRead>:
GPIO_PortRead():
  103110:	7179                	addi	sp,sp,-48
  103112:	d622                	sw	s0,44(sp)
  103114:	1800                	addi	s0,sp,48
  103116:	fca42e23          	sw	a0,-36(s0)
  10311a:	201207b7          	lui	a5,0x20120
  10311e:	fdc42703          	lw	a4,-36(s0)
  103122:	070a                	slli	a4,a4,0x2
  103124:	18c78793          	addi	a5,a5,396 # 2012018c <g_GpioBaseMap>
  103128:	97ba                	add	a5,a5,a4
  10312a:	439c                	lw	a5,0(a5)
  10312c:	fef42623          	sw	a5,-20(s0)
  103130:	fec42783          	lw	a5,-20(s0)
  103134:	439c                	lw	a5,0(a5)
  103136:	853e                	mv	a0,a5
  103138:	5432                	lw	s0,44(sp)
  10313a:	6145                	addi	sp,sp,48
  10313c:	8082                	ret
  10313e:	0001                	nop

00103140 <GPIO_PinWrite>:
GPIO_PinWrite():
  103140:	7179                	addi	sp,sp,-48
  103142:	d622                	sw	s0,44(sp)
  103144:	1800                	addi	s0,sp,48
  103146:	fca42e23          	sw	a0,-36(s0)
  10314a:	fcb42c23          	sw	a1,-40(s0)
  10314e:	fcc42a23          	sw	a2,-44(s0)
  103152:	201207b7          	lui	a5,0x20120
  103156:	fdc42703          	lw	a4,-36(s0)
  10315a:	070a                	slli	a4,a4,0x2
  10315c:	18c78793          	addi	a5,a5,396 # 2012018c <g_GpioBaseMap>
  103160:	97ba                	add	a5,a5,a4
  103162:	439c                	lw	a5,0(a5)
  103164:	fef42623          	sw	a5,-20(s0)
  103168:	fec42703          	lw	a4,-20(s0)
  10316c:	fd842783          	lw	a5,-40(s0)
  103170:	078a                	slli	a5,a5,0x2
  103172:	97ba                	add	a5,a5,a4
  103174:	fd442703          	lw	a4,-44(s0)
  103178:	c398                	sw	a4,0(a5)
  10317a:	0001                	nop
  10317c:	5432                	lw	s0,44(sp)
  10317e:	6145                	addi	sp,sp,48
  103180:	8082                	ret
  103182:	0001                	nop
  103184:	00000013          	nop
  103188:	00000013          	nop
  10318c:	00000013          	nop

00103190 <GPIO_PinTypeADC>:
GPIO_PinTypeADC():
  103190:	1101                	addi	sp,sp,-32
  103192:	ce06                	sw	ra,28(sp)
  103194:	cc22                	sw	s0,24(sp)
  103196:	1000                	addi	s0,sp,32
  103198:	fea42623          	sw	a0,-20(s0)
  10319c:	87ae                	mv	a5,a1
  10319e:	fef405a3          	sb	a5,-21(s0)
  1031a2:	feb44783          	lbu	a5,-21(s0)
  1031a6:	4601                	li	a2,0
  1031a8:	85be                	mv	a1,a5
  1031aa:	fec42503          	lw	a0,-20(s0)
  1031ae:	823ff0ef          	jal	ra,1029d0 <GPIO_DirModeSet>
  1031b2:	feb44783          	lbu	a5,-21(s0)
  1031b6:	4681                	li	a3,0
  1031b8:	4605                	li	a2,1
  1031ba:	85be                	mv	a1,a5
  1031bc:	fec42503          	lw	a0,-20(s0)
  1031c0:	3cc1                	jal	102c90 <GPIO_PadConfigSet>
  1031c2:	0001                	nop
  1031c4:	40f2                	lw	ra,28(sp)
  1031c6:	4462                	lw	s0,24(sp)
  1031c8:	6105                	addi	sp,sp,32
  1031ca:	8082                	ret
  1031cc:	00000013          	nop

001031d0 <GPIO_PinTypeCAN>:
GPIO_PinTypeCAN():
  1031d0:	1101                	addi	sp,sp,-32
  1031d2:	ce06                	sw	ra,28(sp)
  1031d4:	cc22                	sw	s0,24(sp)
  1031d6:	1000                	addi	s0,sp,32
  1031d8:	fea42623          	sw	a0,-20(s0)
  1031dc:	87ae                	mv	a5,a1
  1031de:	fef405a3          	sb	a5,-21(s0)
  1031e2:	feb44783          	lbu	a5,-21(s0)
  1031e6:	4609                	li	a2,2
  1031e8:	85be                	mv	a1,a5
  1031ea:	fec42503          	lw	a0,-20(s0)
  1031ee:	fe2ff0ef          	jal	ra,1029d0 <GPIO_DirModeSet>
  1031f2:	feb44783          	lbu	a5,-21(s0)
  1031f6:	46a1                	li	a3,8
  1031f8:	4611                	li	a2,4
  1031fa:	85be                	mv	a1,a5
  1031fc:	fec42503          	lw	a0,-20(s0)
  103200:	3c41                	jal	102c90 <GPIO_PadConfigSet>
  103202:	0001                	nop
  103204:	40f2                	lw	ra,28(sp)
  103206:	4462                	lw	s0,24(sp)
  103208:	6105                	addi	sp,sp,32
  10320a:	8082                	ret
  10320c:	00000013          	nop

00103210 <GPIO_PinTypeComparator>:
GPIO_PinTypeComparator():
  103210:	1101                	addi	sp,sp,-32
  103212:	ce06                	sw	ra,28(sp)
  103214:	cc22                	sw	s0,24(sp)
  103216:	1000                	addi	s0,sp,32
  103218:	fea42623          	sw	a0,-20(s0)
  10321c:	87ae                	mv	a5,a1
  10321e:	fef405a3          	sb	a5,-21(s0)
  103222:	feb44783          	lbu	a5,-21(s0)
  103226:	4601                	li	a2,0
  103228:	85be                	mv	a1,a5
  10322a:	fec42503          	lw	a0,-20(s0)
  10322e:	fa2ff0ef          	jal	ra,1029d0 <GPIO_DirModeSet>
  103232:	feb44783          	lbu	a5,-21(s0)
  103236:	4681                	li	a3,0
  103238:	4605                	li	a2,1
  10323a:	85be                	mv	a1,a5
  10323c:	fec42503          	lw	a0,-20(s0)
  103240:	3c81                	jal	102c90 <GPIO_PadConfigSet>
  103242:	0001                	nop
  103244:	40f2                	lw	ra,28(sp)
  103246:	4462                	lw	s0,24(sp)
  103248:	6105                	addi	sp,sp,32
  10324a:	8082                	ret
  10324c:	00000013          	nop

00103250 <GPIO_PinTypeComparatorOutput>:
GPIO_PinTypeComparatorOutput():
  103250:	1101                	addi	sp,sp,-32
  103252:	ce06                	sw	ra,28(sp)
  103254:	cc22                	sw	s0,24(sp)
  103256:	1000                	addi	s0,sp,32
  103258:	fea42623          	sw	a0,-20(s0)
  10325c:	87ae                	mv	a5,a1
  10325e:	fef405a3          	sb	a5,-21(s0)
  103262:	feb44783          	lbu	a5,-21(s0)
  103266:	4609                	li	a2,2
  103268:	85be                	mv	a1,a5
  10326a:	fec42503          	lw	a0,-20(s0)
  10326e:	f62ff0ef          	jal	ra,1029d0 <GPIO_DirModeSet>
  103272:	feb44783          	lbu	a5,-21(s0)
  103276:	46a1                	li	a3,8
  103278:	4605                	li	a2,1
  10327a:	85be                	mv	a1,a5
  10327c:	fec42503          	lw	a0,-20(s0)
  103280:	3c01                	jal	102c90 <GPIO_PadConfigSet>
  103282:	0001                	nop
  103284:	40f2                	lw	ra,28(sp)
  103286:	4462                	lw	s0,24(sp)
  103288:	6105                	addi	sp,sp,32
  10328a:	8082                	ret
  10328c:	00000013          	nop

00103290 <GPIO_PinTypeDIVSCLK>:
GPIO_PinTypeDIVSCLK():
  103290:	1101                	addi	sp,sp,-32
  103292:	ce06                	sw	ra,28(sp)
  103294:	cc22                	sw	s0,24(sp)
  103296:	1000                	addi	s0,sp,32
  103298:	fea42623          	sw	a0,-20(s0)
  10329c:	87ae                	mv	a5,a1
  10329e:	fef405a3          	sb	a5,-21(s0)
  1032a2:	feb44783          	lbu	a5,-21(s0)
  1032a6:	4609                	li	a2,2
  1032a8:	85be                	mv	a1,a5
  1032aa:	fec42503          	lw	a0,-20(s0)
  1032ae:	f22ff0ef          	jal	ra,1029d0 <GPIO_DirModeSet>
  1032b2:	feb44783          	lbu	a5,-21(s0)
  1032b6:	46a1                	li	a3,8
  1032b8:	4605                	li	a2,1
  1032ba:	85be                	mv	a1,a5
  1032bc:	fec42503          	lw	a0,-20(s0)
  1032c0:	3ac1                	jal	102c90 <GPIO_PadConfigSet>
  1032c2:	0001                	nop
  1032c4:	40f2                	lw	ra,28(sp)
  1032c6:	4462                	lw	s0,24(sp)
  1032c8:	6105                	addi	sp,sp,32
  1032ca:	8082                	ret
  1032cc:	00000013          	nop

001032d0 <GPIO_PinTypeEPI>:
GPIO_PinTypeEPI():
  1032d0:	1101                	addi	sp,sp,-32
  1032d2:	ce06                	sw	ra,28(sp)
  1032d4:	cc22                	sw	s0,24(sp)
  1032d6:	1000                	addi	s0,sp,32
  1032d8:	fea42623          	sw	a0,-20(s0)
  1032dc:	87ae                	mv	a5,a1
  1032de:	fef405a3          	sb	a5,-21(s0)
  1032e2:	feb44783          	lbu	a5,-21(s0)
  1032e6:	4609                	li	a2,2
  1032e8:	85be                	mv	a1,a5
  1032ea:	fec42503          	lw	a0,-20(s0)
  1032ee:	ee2ff0ef          	jal	ra,1029d0 <GPIO_DirModeSet>
  1032f2:	feb44783          	lbu	a5,-21(s0)
  1032f6:	46a1                	li	a3,8
  1032f8:	4611                	li	a2,4
  1032fa:	85be                	mv	a1,a5
  1032fc:	fec42503          	lw	a0,-20(s0)
  103300:	3a41                	jal	102c90 <GPIO_PadConfigSet>
  103302:	0001                	nop
  103304:	40f2                	lw	ra,28(sp)
  103306:	4462                	lw	s0,24(sp)
  103308:	6105                	addi	sp,sp,32
  10330a:	8082                	ret
  10330c:	00000013          	nop

00103310 <GPIO_PinTypeEthernetLED>:
GPIO_PinTypeEthernetLED():
  103310:	1101                	addi	sp,sp,-32
  103312:	ce06                	sw	ra,28(sp)
  103314:	cc22                	sw	s0,24(sp)
  103316:	1000                	addi	s0,sp,32
  103318:	fea42623          	sw	a0,-20(s0)
  10331c:	87ae                	mv	a5,a1
  10331e:	fef405a3          	sb	a5,-21(s0)
  103322:	feb44783          	lbu	a5,-21(s0)
  103326:	4609                	li	a2,2
  103328:	85be                	mv	a1,a5
  10332a:	fec42503          	lw	a0,-20(s0)
  10332e:	ea2ff0ef          	jal	ra,1029d0 <GPIO_DirModeSet>
  103332:	feb44783          	lbu	a5,-21(s0)
  103336:	46a1                	li	a3,8
  103338:	4611                	li	a2,4
  10333a:	85be                	mv	a1,a5
  10333c:	fec42503          	lw	a0,-20(s0)
  103340:	3a81                	jal	102c90 <GPIO_PadConfigSet>
  103342:	0001                	nop
  103344:	40f2                	lw	ra,28(sp)
  103346:	4462                	lw	s0,24(sp)
  103348:	6105                	addi	sp,sp,32
  10334a:	8082                	ret
  10334c:	00000013          	nop

00103350 <GPIO_PinTypeEthernetMII>:
GPIO_PinTypeEthernetMII():
  103350:	1101                	addi	sp,sp,-32
  103352:	ce06                	sw	ra,28(sp)
  103354:	cc22                	sw	s0,24(sp)
  103356:	1000                	addi	s0,sp,32
  103358:	fea42623          	sw	a0,-20(s0)
  10335c:	87ae                	mv	a5,a1
  10335e:	fef405a3          	sb	a5,-21(s0)
  103362:	feb44783          	lbu	a5,-21(s0)
  103366:	4609                	li	a2,2
  103368:	85be                	mv	a1,a5
  10336a:	fec42503          	lw	a0,-20(s0)
  10336e:	e62ff0ef          	jal	ra,1029d0 <GPIO_DirModeSet>
  103372:	feb44783          	lbu	a5,-21(s0)
  103376:	46a1                	li	a3,8
  103378:	4611                	li	a2,4
  10337a:	85be                	mv	a1,a5
  10337c:	fec42503          	lw	a0,-20(s0)
  103380:	3a01                	jal	102c90 <GPIO_PadConfigSet>
  103382:	0001                	nop
  103384:	40f2                	lw	ra,28(sp)
  103386:	4462                	lw	s0,24(sp)
  103388:	6105                	addi	sp,sp,32
  10338a:	8082                	ret
  10338c:	00000013          	nop

00103390 <GPIO_PinTypeGPIOInput>:
GPIO_PinTypeGPIOInput():
  103390:	1101                	addi	sp,sp,-32
  103392:	ce06                	sw	ra,28(sp)
  103394:	cc22                	sw	s0,24(sp)
  103396:	1000                	addi	s0,sp,32
  103398:	fea42623          	sw	a0,-20(s0)
  10339c:	87ae                	mv	a5,a1
  10339e:	fef405a3          	sb	a5,-21(s0)
  1033a2:	feb44783          	lbu	a5,-21(s0)
  1033a6:	4601                	li	a2,0
  1033a8:	85be                	mv	a1,a5
  1033aa:	fec42503          	lw	a0,-20(s0)
  1033ae:	e22ff0ef          	jal	ra,1029d0 <GPIO_DirModeSet>
  1033b2:	feb44783          	lbu	a5,-21(s0)
  1033b6:	46a1                	li	a3,8
  1033b8:	4605                	li	a2,1
  1033ba:	85be                	mv	a1,a5
  1033bc:	fec42503          	lw	a0,-20(s0)
  1033c0:	38c1                	jal	102c90 <GPIO_PadConfigSet>
  1033c2:	0001                	nop
  1033c4:	40f2                	lw	ra,28(sp)
  1033c6:	4462                	lw	s0,24(sp)
  1033c8:	6105                	addi	sp,sp,32
  1033ca:	8082                	ret
  1033cc:	00000013          	nop

001033d0 <GPIO_PinTypeGPIOOutput>:
GPIO_PinTypeGPIOOutput():
  1033d0:	1101                	addi	sp,sp,-32
  1033d2:	ce06                	sw	ra,28(sp)
  1033d4:	cc22                	sw	s0,24(sp)
  1033d6:	1000                	addi	s0,sp,32
  1033d8:	fea42623          	sw	a0,-20(s0)
  1033dc:	feb42423          	sw	a1,-24(s0)
  1033e0:	46a1                	li	a3,8
  1033e2:	4611                	li	a2,4
  1033e4:	fe842583          	lw	a1,-24(s0)
  1033e8:	fec42503          	lw	a0,-20(s0)
  1033ec:	3055                	jal	102c90 <GPIO_PadConfigSet>
  1033ee:	4605                	li	a2,1
  1033f0:	fe842583          	lw	a1,-24(s0)
  1033f4:	fec42503          	lw	a0,-20(s0)
  1033f8:	dd8ff0ef          	jal	ra,1029d0 <GPIO_DirModeSet>
  1033fc:	0001                	nop
  1033fe:	40f2                	lw	ra,28(sp)
  103400:	4462                	lw	s0,24(sp)
  103402:	6105                	addi	sp,sp,32
  103404:	8082                	ret
  103406:	00000013          	nop
  10340a:	00000013          	nop
  10340e:	0001                	nop

00103410 <GPIO_PinTypeGPIOOutputOD>:
GPIO_PinTypeGPIOOutputOD():
  103410:	1101                	addi	sp,sp,-32
  103412:	ce06                	sw	ra,28(sp)
  103414:	cc22                	sw	s0,24(sp)
  103416:	1000                	addi	s0,sp,32
  103418:	fea42623          	sw	a0,-20(s0)
  10341c:	87ae                	mv	a5,a1
  10341e:	fef405a3          	sb	a5,-21(s0)
  103422:	feb44783          	lbu	a5,-21(s0)
  103426:	46a5                	li	a3,9
  103428:	4605                	li	a2,1
  10342a:	85be                	mv	a1,a5
  10342c:	fec42503          	lw	a0,-20(s0)
  103430:	861ff0ef          	jal	ra,102c90 <GPIO_PadConfigSet>
  103434:	feb44783          	lbu	a5,-21(s0)
  103438:	4605                	li	a2,1
  10343a:	85be                	mv	a1,a5
  10343c:	fec42503          	lw	a0,-20(s0)
  103440:	d90ff0ef          	jal	ra,1029d0 <GPIO_DirModeSet>
  103444:	0001                	nop
  103446:	40f2                	lw	ra,28(sp)
  103448:	4462                	lw	s0,24(sp)
  10344a:	6105                	addi	sp,sp,32
  10344c:	8082                	ret
  10344e:	0001                	nop

00103450 <GPIO_PinTypeHibernateRTCCLK>:
GPIO_PinTypeHibernateRTCCLK():
  103450:	1101                	addi	sp,sp,-32
  103452:	ce06                	sw	ra,28(sp)
  103454:	cc22                	sw	s0,24(sp)
  103456:	1000                	addi	s0,sp,32
  103458:	fea42623          	sw	a0,-20(s0)
  10345c:	87ae                	mv	a5,a1
  10345e:	fef405a3          	sb	a5,-21(s0)
  103462:	feb44783          	lbu	a5,-21(s0)
  103466:	4609                	li	a2,2
  103468:	85be                	mv	a1,a5
  10346a:	fec42503          	lw	a0,-20(s0)
  10346e:	d62ff0ef          	jal	ra,1029d0 <GPIO_DirModeSet>
  103472:	feb44783          	lbu	a5,-21(s0)
  103476:	46a1                	li	a3,8
  103478:	4605                	li	a2,1
  10347a:	85be                	mv	a1,a5
  10347c:	fec42503          	lw	a0,-20(s0)
  103480:	811ff0ef          	jal	ra,102c90 <GPIO_PadConfigSet>
  103484:	0001                	nop
  103486:	40f2                	lw	ra,28(sp)
  103488:	4462                	lw	s0,24(sp)
  10348a:	6105                	addi	sp,sp,32
  10348c:	8082                	ret
  10348e:	0001                	nop

00103490 <GPIO_PinTypeI2C>:
GPIO_PinTypeI2C():
  103490:	1101                	addi	sp,sp,-32
  103492:	ce06                	sw	ra,28(sp)
  103494:	cc22                	sw	s0,24(sp)
  103496:	1000                	addi	s0,sp,32
  103498:	fea42623          	sw	a0,-20(s0)
  10349c:	87ae                	mv	a5,a1
  10349e:	fef405a3          	sb	a5,-21(s0)
  1034a2:	feb44783          	lbu	a5,-21(s0)
  1034a6:	4609                	li	a2,2
  1034a8:	85be                	mv	a1,a5
  1034aa:	fec42503          	lw	a0,-20(s0)
  1034ae:	d22ff0ef          	jal	ra,1029d0 <GPIO_DirModeSet>
  1034b2:	feb44783          	lbu	a5,-21(s0)
  1034b6:	46a5                	li	a3,9
  1034b8:	4605                	li	a2,1
  1034ba:	85be                	mv	a1,a5
  1034bc:	fec42503          	lw	a0,-20(s0)
  1034c0:	fd0ff0ef          	jal	ra,102c90 <GPIO_PadConfigSet>
  1034c4:	0001                	nop
  1034c6:	40f2                	lw	ra,28(sp)
  1034c8:	4462                	lw	s0,24(sp)
  1034ca:	6105                	addi	sp,sp,32
  1034cc:	8082                	ret
  1034ce:	0001                	nop

001034d0 <GPIO_PinTypeI2CSCL>:
GPIO_PinTypeI2CSCL():
  1034d0:	1101                	addi	sp,sp,-32
  1034d2:	ce06                	sw	ra,28(sp)
  1034d4:	cc22                	sw	s0,24(sp)
  1034d6:	1000                	addi	s0,sp,32
  1034d8:	fea42623          	sw	a0,-20(s0)
  1034dc:	87ae                	mv	a5,a1
  1034de:	fef405a3          	sb	a5,-21(s0)
  1034e2:	feb44783          	lbu	a5,-21(s0)
  1034e6:	4609                	li	a2,2
  1034e8:	85be                	mv	a1,a5
  1034ea:	fec42503          	lw	a0,-20(s0)
  1034ee:	ce2ff0ef          	jal	ra,1029d0 <GPIO_DirModeSet>
  1034f2:	feb44783          	lbu	a5,-21(s0)
  1034f6:	46a1                	li	a3,8
  1034f8:	4605                	li	a2,1
  1034fa:	85be                	mv	a1,a5
  1034fc:	fec42503          	lw	a0,-20(s0)
  103500:	f90ff0ef          	jal	ra,102c90 <GPIO_PadConfigSet>
  103504:	0001                	nop
  103506:	40f2                	lw	ra,28(sp)
  103508:	4462                	lw	s0,24(sp)
  10350a:	6105                	addi	sp,sp,32
  10350c:	8082                	ret
  10350e:	0001                	nop

00103510 <GPIO_PinTypeLCD>:
GPIO_PinTypeLCD():
  103510:	1101                	addi	sp,sp,-32
  103512:	ce06                	sw	ra,28(sp)
  103514:	cc22                	sw	s0,24(sp)
  103516:	1000                	addi	s0,sp,32
  103518:	fea42623          	sw	a0,-20(s0)
  10351c:	87ae                	mv	a5,a1
  10351e:	fef405a3          	sb	a5,-21(s0)
  103522:	feb44783          	lbu	a5,-21(s0)
  103526:	4609                	li	a2,2
  103528:	85be                	mv	a1,a5
  10352a:	fec42503          	lw	a0,-20(s0)
  10352e:	ca2ff0ef          	jal	ra,1029d0 <GPIO_DirModeSet>
  103532:	feb44783          	lbu	a5,-21(s0)
  103536:	46a1                	li	a3,8
  103538:	4611                	li	a2,4
  10353a:	85be                	mv	a1,a5
  10353c:	fec42503          	lw	a0,-20(s0)
  103540:	f50ff0ef          	jal	ra,102c90 <GPIO_PadConfigSet>
  103544:	0001                	nop
  103546:	40f2                	lw	ra,28(sp)
  103548:	4462                	lw	s0,24(sp)
  10354a:	6105                	addi	sp,sp,32
  10354c:	8082                	ret
  10354e:	0001                	nop

00103550 <GPIO_PinTypeOneWire>:
GPIO_PinTypeOneWire():
  103550:	1101                	addi	sp,sp,-32
  103552:	ce06                	sw	ra,28(sp)
  103554:	cc22                	sw	s0,24(sp)
  103556:	1000                	addi	s0,sp,32
  103558:	fea42623          	sw	a0,-20(s0)
  10355c:	87ae                	mv	a5,a1
  10355e:	fef405a3          	sb	a5,-21(s0)
  103562:	feb44783          	lbu	a5,-21(s0)
  103566:	4609                	li	a2,2
  103568:	85be                	mv	a1,a5
  10356a:	fec42503          	lw	a0,-20(s0)
  10356e:	c62ff0ef          	jal	ra,1029d0 <GPIO_DirModeSet>
  103572:	feb44783          	lbu	a5,-21(s0)
  103576:	46a1                	li	a3,8
  103578:	4605                	li	a2,1
  10357a:	85be                	mv	a1,a5
  10357c:	fec42503          	lw	a0,-20(s0)
  103580:	f10ff0ef          	jal	ra,102c90 <GPIO_PadConfigSet>
  103584:	0001                	nop
  103586:	40f2                	lw	ra,28(sp)
  103588:	4462                	lw	s0,24(sp)
  10358a:	6105                	addi	sp,sp,32
  10358c:	8082                	ret
  10358e:	0001                	nop

00103590 <GPIO_PinTypePWM>:
GPIO_PinTypePWM():
  103590:	1101                	addi	sp,sp,-32
  103592:	ce06                	sw	ra,28(sp)
  103594:	cc22                	sw	s0,24(sp)
  103596:	1000                	addi	s0,sp,32
  103598:	fea42623          	sw	a0,-20(s0)
  10359c:	87ae                	mv	a5,a1
  10359e:	fef405a3          	sb	a5,-21(s0)
  1035a2:	feb44783          	lbu	a5,-21(s0)
  1035a6:	4609                	li	a2,2
  1035a8:	85be                	mv	a1,a5
  1035aa:	fec42503          	lw	a0,-20(s0)
  1035ae:	c22ff0ef          	jal	ra,1029d0 <GPIO_DirModeSet>
  1035b2:	feb44783          	lbu	a5,-21(s0)
  1035b6:	46a9                	li	a3,10
  1035b8:	4605                	li	a2,1
  1035ba:	85be                	mv	a1,a5
  1035bc:	fec42503          	lw	a0,-20(s0)
  1035c0:	ed0ff0ef          	jal	ra,102c90 <GPIO_PadConfigSet>
  1035c4:	0001                	nop
  1035c6:	40f2                	lw	ra,28(sp)
  1035c8:	4462                	lw	s0,24(sp)
  1035ca:	6105                	addi	sp,sp,32
  1035cc:	8082                	ret
  1035ce:	0001                	nop

001035d0 <GPIO_PinTypeQEI>:
GPIO_PinTypeQEI():
  1035d0:	1101                	addi	sp,sp,-32
  1035d2:	ce06                	sw	ra,28(sp)
  1035d4:	cc22                	sw	s0,24(sp)
  1035d6:	1000                	addi	s0,sp,32
  1035d8:	fea42623          	sw	a0,-20(s0)
  1035dc:	87ae                	mv	a5,a1
  1035de:	fef405a3          	sb	a5,-21(s0)
  1035e2:	feb44783          	lbu	a5,-21(s0)
  1035e6:	4609                	li	a2,2
  1035e8:	85be                	mv	a1,a5
  1035ea:	fec42503          	lw	a0,-20(s0)
  1035ee:	be2ff0ef          	jal	ra,1029d0 <GPIO_DirModeSet>
  1035f2:	feb44783          	lbu	a5,-21(s0)
  1035f6:	46a9                	li	a3,10
  1035f8:	4605                	li	a2,1
  1035fa:	85be                	mv	a1,a5
  1035fc:	fec42503          	lw	a0,-20(s0)
  103600:	e90ff0ef          	jal	ra,102c90 <GPIO_PadConfigSet>
  103604:	0001                	nop
  103606:	40f2                	lw	ra,28(sp)
  103608:	4462                	lw	s0,24(sp)
  10360a:	6105                	addi	sp,sp,32
  10360c:	8082                	ret
  10360e:	0001                	nop

00103610 <GPIO_PinTypeSSI>:
GPIO_PinTypeSSI():
  103610:	1101                	addi	sp,sp,-32
  103612:	ce06                	sw	ra,28(sp)
  103614:	cc22                	sw	s0,24(sp)
  103616:	1000                	addi	s0,sp,32
  103618:	fea42623          	sw	a0,-20(s0)
  10361c:	87ae                	mv	a5,a1
  10361e:	fef405a3          	sb	a5,-21(s0)
  103622:	feb44783          	lbu	a5,-21(s0)
  103626:	4609                	li	a2,2
  103628:	85be                	mv	a1,a5
  10362a:	fec42503          	lw	a0,-20(s0)
  10362e:	ba2ff0ef          	jal	ra,1029d0 <GPIO_DirModeSet>
  103632:	feb44783          	lbu	a5,-21(s0)
  103636:	46a1                	li	a3,8
  103638:	4605                	li	a2,1
  10363a:	85be                	mv	a1,a5
  10363c:	fec42503          	lw	a0,-20(s0)
  103640:	e50ff0ef          	jal	ra,102c90 <GPIO_PadConfigSet>
  103644:	0001                	nop
  103646:	40f2                	lw	ra,28(sp)
  103648:	4462                	lw	s0,24(sp)
  10364a:	6105                	addi	sp,sp,32
  10364c:	8082                	ret
  10364e:	0001                	nop

00103650 <GPIO_PinTypeTimer>:
GPIO_PinTypeTimer():
  103650:	1101                	addi	sp,sp,-32
  103652:	ce06                	sw	ra,28(sp)
  103654:	cc22                	sw	s0,24(sp)
  103656:	1000                	addi	s0,sp,32
  103658:	fea42623          	sw	a0,-20(s0)
  10365c:	87ae                	mv	a5,a1
  10365e:	fef405a3          	sb	a5,-21(s0)
  103662:	feb44783          	lbu	a5,-21(s0)
  103666:	4609                	li	a2,2
  103668:	85be                	mv	a1,a5
  10366a:	fec42503          	lw	a0,-20(s0)
  10366e:	b62ff0ef          	jal	ra,1029d0 <GPIO_DirModeSet>
  103672:	feb44783          	lbu	a5,-21(s0)
  103676:	46a1                	li	a3,8
  103678:	4605                	li	a2,1
  10367a:	85be                	mv	a1,a5
  10367c:	fec42503          	lw	a0,-20(s0)
  103680:	e10ff0ef          	jal	ra,102c90 <GPIO_PadConfigSet>
  103684:	0001                	nop
  103686:	40f2                	lw	ra,28(sp)
  103688:	4462                	lw	s0,24(sp)
  10368a:	6105                	addi	sp,sp,32
  10368c:	8082                	ret
  10368e:	0001                	nop

00103690 <GPIO_PinTypeTrace>:
GPIO_PinTypeTrace():
  103690:	1101                	addi	sp,sp,-32
  103692:	ce06                	sw	ra,28(sp)
  103694:	cc22                	sw	s0,24(sp)
  103696:	1000                	addi	s0,sp,32
  103698:	fea42623          	sw	a0,-20(s0)
  10369c:	87ae                	mv	a5,a1
  10369e:	fef405a3          	sb	a5,-21(s0)
  1036a2:	feb44783          	lbu	a5,-21(s0)
  1036a6:	4609                	li	a2,2
  1036a8:	85be                	mv	a1,a5
  1036aa:	fec42503          	lw	a0,-20(s0)
  1036ae:	b22ff0ef          	jal	ra,1029d0 <GPIO_DirModeSet>
  1036b2:	feb44783          	lbu	a5,-21(s0)
  1036b6:	46a1                	li	a3,8
  1036b8:	4605                	li	a2,1
  1036ba:	85be                	mv	a1,a5
  1036bc:	fec42503          	lw	a0,-20(s0)
  1036c0:	dd0ff0ef          	jal	ra,102c90 <GPIO_PadConfigSet>
  1036c4:	0001                	nop
  1036c6:	40f2                	lw	ra,28(sp)
  1036c8:	4462                	lw	s0,24(sp)
  1036ca:	6105                	addi	sp,sp,32
  1036cc:	8082                	ret
  1036ce:	0001                	nop

001036d0 <GPIO_PinTypeUART>:
GPIO_PinTypeUART():
  1036d0:	1101                	addi	sp,sp,-32
  1036d2:	ce06                	sw	ra,28(sp)
  1036d4:	cc22                	sw	s0,24(sp)
  1036d6:	1000                	addi	s0,sp,32
  1036d8:	fea42623          	sw	a0,-20(s0)
  1036dc:	87ae                	mv	a5,a1
  1036de:	fef405a3          	sb	a5,-21(s0)
  1036e2:	feb44783          	lbu	a5,-21(s0)
  1036e6:	4609                	li	a2,2
  1036e8:	85be                	mv	a1,a5
  1036ea:	fec42503          	lw	a0,-20(s0)
  1036ee:	ae2ff0ef          	jal	ra,1029d0 <GPIO_DirModeSet>
  1036f2:	feb44783          	lbu	a5,-21(s0)
  1036f6:	46a1                	li	a3,8
  1036f8:	4605                	li	a2,1
  1036fa:	85be                	mv	a1,a5
  1036fc:	fec42503          	lw	a0,-20(s0)
  103700:	d90ff0ef          	jal	ra,102c90 <GPIO_PadConfigSet>
  103704:	0001                	nop
  103706:	40f2                	lw	ra,28(sp)
  103708:	4462                	lw	s0,24(sp)
  10370a:	6105                	addi	sp,sp,32
  10370c:	8082                	ret
  10370e:	0001                	nop

00103710 <GPIO_PinTypeUSBAnalog>:
GPIO_PinTypeUSBAnalog():
  103710:	1101                	addi	sp,sp,-32
  103712:	ce06                	sw	ra,28(sp)
  103714:	cc22                	sw	s0,24(sp)
  103716:	1000                	addi	s0,sp,32
  103718:	fea42623          	sw	a0,-20(s0)
  10371c:	87ae                	mv	a5,a1
  10371e:	fef405a3          	sb	a5,-21(s0)
  103722:	feb44783          	lbu	a5,-21(s0)
  103726:	4601                	li	a2,0
  103728:	85be                	mv	a1,a5
  10372a:	fec42503          	lw	a0,-20(s0)
  10372e:	aa2ff0ef          	jal	ra,1029d0 <GPIO_DirModeSet>
  103732:	feb44783          	lbu	a5,-21(s0)
  103736:	4681                	li	a3,0
  103738:	4605                	li	a2,1
  10373a:	85be                	mv	a1,a5
  10373c:	fec42503          	lw	a0,-20(s0)
  103740:	d50ff0ef          	jal	ra,102c90 <GPIO_PadConfigSet>
  103744:	0001                	nop
  103746:	40f2                	lw	ra,28(sp)
  103748:	4462                	lw	s0,24(sp)
  10374a:	6105                	addi	sp,sp,32
  10374c:	8082                	ret
  10374e:	0001                	nop

00103750 <GPIO_PinTypeUSBDigital>:
GPIO_PinTypeUSBDigital():
  103750:	1101                	addi	sp,sp,-32
  103752:	ce06                	sw	ra,28(sp)
  103754:	cc22                	sw	s0,24(sp)
  103756:	1000                	addi	s0,sp,32
  103758:	fea42623          	sw	a0,-20(s0)
  10375c:	87ae                	mv	a5,a1
  10375e:	fef405a3          	sb	a5,-21(s0)
  103762:	feb44783          	lbu	a5,-21(s0)
  103766:	4601                	li	a2,0
  103768:	85be                	mv	a1,a5
  10376a:	fec42503          	lw	a0,-20(s0)
  10376e:	a62ff0ef          	jal	ra,1029d0 <GPIO_DirModeSet>
  103772:	feb44783          	lbu	a5,-21(s0)
  103776:	4681                	li	a3,0
  103778:	4611                	li	a2,4
  10377a:	85be                	mv	a1,a5
  10377c:	fec42503          	lw	a0,-20(s0)
  103780:	d10ff0ef          	jal	ra,102c90 <GPIO_PadConfigSet>
  103784:	0001                	nop
  103786:	40f2                	lw	ra,28(sp)
  103788:	4462                	lw	s0,24(sp)
  10378a:	6105                	addi	sp,sp,32
  10378c:	8082                	ret
  10378e:	0001                	nop

00103790 <GPIO_PinConfigure>:
GPIO_PinConfigure():
  103790:	7139                	addi	sp,sp,-64
  103792:	de22                	sw	s0,60(sp)
  103794:	0080                	addi	s0,sp,64
  103796:	fca42623          	sw	a0,-52(s0)
  10379a:	fcc42783          	lw	a5,-52(s0)
  10379e:	0ff7f713          	andi	a4,a5,255
  1037a2:	400ff7b7          	lui	a5,0x400ff
  1037a6:	d0078793          	addi	a5,a5,-768 # 400fed00 <__stack+0x1ffd2d00>
  1037aa:	97ba                	add	a5,a5,a4
  1037ac:	fef42623          	sw	a5,-20(s0)
  1037b0:	fcc42783          	lw	a5,-52(s0)
  1037b4:	83f1                	srli	a5,a5,0x1c
  1037b6:	fef42423          	sw	a5,-24(s0)
  1037ba:	fcc42783          	lw	a5,-52(s0)
  1037be:	83d1                	srli	a5,a5,0x14
  1037c0:	0ff7f793          	andi	a5,a5,255
  1037c4:	fef42223          	sw	a5,-28(s0)
  1037c8:	fcc42783          	lw	a5,-52(s0)
  1037cc:	0087d713          	srli	a4,a5,0x8
  1037d0:	6785                	lui	a5,0x1
  1037d2:	17fd                	addi	a5,a5,-1
  1037d4:	8ff9                	and	a5,a5,a4
  1037d6:	fef42023          	sw	a5,-32(s0)
  1037da:	fec42783          	lw	a5,-20(s0)
  1037de:	fcf42e23          	sw	a5,-36(s0)
  1037e2:	fdc42783          	lw	a5,-36(s0)
  1037e6:	439c                	lw	a5,0(a5)
  1037e8:	fcf42c23          	sw	a5,-40(s0)
  1037ec:	fdc42783          	lw	a5,-36(s0)
  1037f0:	4398                	lw	a4,0(a5)
  1037f2:	fe442783          	lw	a5,-28(s0)
  1037f6:	fe042683          	lw	a3,-32(s0)
  1037fa:	00f697b3          	sll	a5,a3,a5
  1037fe:	fff7c793          	not	a5,a5
  103802:	8f7d                	and	a4,a4,a5
  103804:	fdc42783          	lw	a5,-36(s0)
  103808:	c398                	sw	a4,0(a5)
  10380a:	fdc42783          	lw	a5,-36(s0)
  10380e:	439c                	lw	a5,0(a5)
  103810:	fe842703          	lw	a4,-24(s0)
  103814:	4685                	li	a3,1
  103816:	00e696b3          	sll	a3,a3,a4
  10381a:	fe442703          	lw	a4,-28(s0)
  10381e:	00e69733          	sll	a4,a3,a4
  103822:	8f5d                	or	a4,a4,a5
  103824:	fdc42783          	lw	a5,-36(s0)
  103828:	c398                	sw	a4,0(a5)
  10382a:	0001                	nop
  10382c:	5472                	lw	s0,60(sp)
  10382e:	6121                	addi	sp,sp,64
  103830:	8082                	ret
	...
